                5645 number of functions
                5645 number of names

            ordinal hint   name

                  1    0   ??0AppMainLoop@nmui@@QAE@XZ  (000019C0)
                  2    1   ??0AppMainLoopRedrawClient@nmui@@QAE@ABV01@@Z  (000010B0)
                  3    2   ??0AppMainLoopRedrawClient@nmui@@QAE@XZ  (00001090)
                  4    3   ??0AppMainLoopTimerClient@nmui@@QAE@ABV01@@Z  (00001020)
                  5    4   ??0AppMainLoopTimerClient@nmui@@QAE@XZ  (00001000)
                  6    5   ??0AutoCompleteDictionary@nmui@@QAE@ABV01@@Z  (000050B0)
                  7    6   ??0AutoCompleteDictionary@nmui@@QAE@VwxString@@0_W1001@Z  (00005650)
                  8    7   ??0AutoCompleteDictionaryObserver@nmui@@QAE@ABV01@@Z  (000050A0)
                  9    8   ??0AutoCompleteDictionaryObserver@nmui@@QAE@XZ  (00005090)
                 10    9   ??0BaseState@nmui@@QAE@ABV?$basic_string@_WU?$char_traits@_W@std@@V?$allocator@_W@2@@std@@PAV01@AAVStateManager@1@@Z  (000128B0)
                 11    A   ??0BaseState@nmui@@QAE@XZ  (000109E0)
                 12    B   ??0Button@nmui@@QAE@PAVwxWindow@@HABVwxBitmap@@1ABVwxPoint@@ABVwxSize@@ABVNMStyle@1@@Z  (00009D10)
                 13    C   ??0Button@nmui@@QAE@PAVwxWindow@@HABVwxBitmap@@ABVwxPoint@@ABVwxSize@@ABVNMStyle@1@@Z  (00009A30)
                 14    D   ??0Button@nmui@@QAE@PAVwxWindow@@HABVwxImage@@ABVwxPoint@@ABVwxSize@@ABVNMStyle@1@@Z  (00009BA0)
                 15    E   ??0Button@nmui@@QAE@PAVwxWindow@@HABVwxString@@ABVwxPoint@@ABVwxSize@@ABVNMStyle@1@@Z  (000098C0)
                 16    F   ??0Button@nmui@@QAE@XZ  (0003A0B0)
                 17   10   ??0CellRenderer@nmui@@QAE@ABV01@@Z  (0003B7E0)
                 18   11   ??0CellRenderer@nmui@@QAE@PAVNMListControl@1@@Z  (0003BC30)
                 19   12   ??0CheckBox@nmui@@QAE@PAVwxWindow@@HABVwxString@@ABVwxPoint@@ABVwxSize@@ABVNMStyle@1@1@Z  (0003C7B0)
                 20   13   ??0CheckBox@nmui@@QAE@XZ  (0003C1E0)
                 21   14   ??0CheckBoxEvent@nmui@@QAE@ABV01@@Z  (0003BD70)
                 22   15   ??0CheckBoxEvent@nmui@@QAE@HPAVCheckBox@1@@Z  (0003C060)
                 23   16   ??0ColourShader@nmui@@QAE@AAVwxColour@@@Z  (00007300)
                 24   17   ??0ColourShader@nmui@@QAE@ABV01@@Z  (00006EE0)
                 25   18   ??0ColourShader@nmui@@QAE@XZ  (00006FA0)
                 26   19   ??0Condition@nmui@@QAE@ABV01@@Z  (000340C0)
                 27   1A   ??0Condition@nmui@@QAE@PAVMonitor@1@@Z  (000340C0)
                 28   1B   ??0CustomResourceData@nmui@@QAE@ABV01@@Z  (00016320)
                 29   1C   ??0CustomResourceData@nmui@@QAE@XZ  (00016300)
                 30   1D   ??0Dialog@nmui@@QAE@PAVwxWindow@@HABVwxString@@ABVwxPoint@@ABVwxSize@@J1@Z  (0004D720)
                 31   1E   ??0Dialog@nmui@@QAE@XZ  (0004C310)
                 32   1F   ??0DialogModalData@nmui@@QAE@PAVDialog@1@@Z  (0004B7A0)
                 33   20   ??0DirectoryControl@nmui@@QAE@PAVwxWindow@@HABVwxString@@ABVwxPoint@@ABVwxSize@@ABVNMStyle@1@1@Z  (0000A7F0)
                 34   21   ??0DirectoryControl@nmui@@QAE@XZ  (00009F00)
                 35   22   ??0DirectoryWatch@nmui@@QAE@XZ  (0000B230)
                 36   23   ??0DirectoryWatchBase@nmui@@QAE@XZ  (0000A940)
                 37   24   ??0DirectoryWatchObserver@nmui@@QAE@ABV01@@Z  (0000A8D0)
                 38   25   ??0DirectoryWatchObserver@nmui@@QAE@XZ  (0000A8A0)
                 39   26   ??0DirectoryWatchTreeView@nmui@@QAE@PAVwxWindow@@HABVNMStyle@1@@Z  (00010490)
                 40   27   ??0DragColumnState@NMColumnWindowStates@nmui@@QAE@ABV012@@Z  (00042060)
                 41   28   ??0DragColumnState@NMColumnWindowStates@nmui@@QAE@ABVwxString@@AAVGuiController@2@AAVNMColumnWindow@2@@Z  (00045B20)
                 42   29   ??0DragFrameMarkerState@NMSimpleGraphStates@nmui@@QAE@ABV012@@Z  (0008BDC0)
                 43   2A   ??0DragFrameMarkerState@NMSimpleGraphStates@nmui@@QAE@ABVwxString@@AAVGuiController@2@AAVNMSimpleGraph@2@@Z  (0008EFD0)
                 44   2B   ??0DragSelectState@NMListControlStates@nmui@@QAE@ABV012@@Z  (00059BA0)
                 45   2C   ??0DragSelectState@NMListControlStates@nmui@@QAE@ABVwxString@@AAVGuiController@2@AAVNMListControl@2@@Z  (00064930)
                 46   2D   ??0DragState@NMListControlStates@nmui@@QAE@ABV012@@Z  (00059AE0)
                 47   2E   ??0DragState@NMListControlStates@nmui@@QAE@ABVwxString@@AAVGuiController@2@AAVNMListControl@2@@Z  (00064310)
                 48   2F   ??0DragState@TreeControlStates@nmui@@QAE@ABVwxString@@AAVGuiController@2@AAVTreeControl@2@@Z  (000BDFD0)
                 49   30   ??0DragValueMarkerState@NMSimpleGraphStates@nmui@@QAE@ABV012@@Z  (0008BE30)
                 50   31   ??0DragValueMarkerState@NMSimpleGraphStates@nmui@@QAE@ABVwxString@@AAVGuiController@2@AAVNMSimpleGraph@2@@Z  (0008F280)
                 51   32   ??0EATRenderCallback@nmui@@QAE@ABV01@@Z  (000AB5D0)
                 52   33   ??0EATRenderCallback@nmui@@QAE@XZ  (000AB5B0)
                 53   34   ??0FSMState@nmui@@QAE@ABV01@@Z  (00007510)
                 54   35   ??0FSMState@nmui@@QAE@ABVwxString@@AAVFiniteStateMachine@1@@Z  (000217C0)
                 55   36   ??0FileHistory@nmui@@QAE@ABV01@@Z  (000501C0)
                 56   37   ??0FileHistory@nmui@@QAE@PAVwxRegConfig@@ABVwxString@@H@Z  (00050230)
                 57   38   ??0FileResourceManager@nmui@@QAE@XZ  (0001F3A0)
                 58   39   ??0FilenameControl@nmui@@QAE@ABVwxString@@0@Z  (00014A50)
                 59   3A   ??0FilteredResourceObserver@nmui@@QAE@ABV01@@Z  (000178C0)
                 60   3B   ??0FilteredResourceObserver@nmui@@QAE@_N@Z  (000196F0)
                 61   3C   ??0FilteredResourcePredicate@nmui@@QAE@ABV01@@Z  (000164D0)
                 62   3D   ??0FilteredResourcePredicate@nmui@@QAE@XZ  (000164B0)
                 63   3E   ??0FiniteStateMachine@nmui@@QAE@ABVwxString@@@Z  (000215C0)
                 64   3F   ??0Frame@nmui@@QAE@PAVwxWindow@@HABVwxString@@ABVwxPoint@@ABVwxSize@@J1@Z  (000A5C90)
                 65   40   ??0Frame@nmui@@QAE@XZ  (000A5C60)
                 66   41   ??0FullScreenFrame@nmui@@QAE@PAVwxWindow@@H@Z  (0006C0E0)
                 67   42   ??0GUIServices@nmui@@QAE@ABV01@@Z  (00008580)
                 68   43   ??0GUIServices@nmui@@QAE@XZ  (00030A50)
                 69   44   ??0GuiController@nmui@@QAE@ABVwxString@@PAVwxWindow@@@Z  (00021B30)
                 70   45   ??0GuiNode@nmui@@QAE@PAVGuiNodeData@1@PBVGuiNodeUI@1@PBVGuiNodeStateMachine@1@@Z  (00022490)
                 71   46   ??0GuiNodeData@nmui@@QAE@ABV01@@Z  (00022150)
                 72   47   ??0GuiNodeData@nmui@@QAE@XZ  (00022130)
                 73   48   ??0GuiNodeEvent@nmui@@QAE@ABV01@@Z  (000227A0)
                 74   49   ??0GuiNodeEvent@nmui@@QAE@PAVGuiNodeManager@1@ABVwxMouseEvent@@@Z  (00022FE0)
                 75   4A   ??0GuiNodeHoverState@nmui@@QAE@ABV01@@Z  (00023550)
                 76   4B   ??0GuiNodeHoverState@nmui@@QAE@PAVGuiNodeStateMachine@1@@Z  (000230F0)
                 77   4C   ??0GuiNodeManager@nmui@@QAE@ABV01@@Z  (00022380)
                 78   4D   ??0GuiNodeManager@nmui@@QAE@PAVwxWindow@@PAVGuiController@1@@Z  (00024C50)
                 79   4E   ??0GuiNodeState@nmui@@QAE@ABV01@@Z  (00022280)
                 80   4F   ??0GuiNodeState@nmui@@QAE@PAVGuiNodeStateMachine@1@@Z  (00022820)
                 81   50   ??0GuiNodeStateMachine@nmui@@QAE@ABV01@@Z  (000222B0)
                 82   51   ??0GuiNodeStateMachine@nmui@@QAE@PAVGuiNodeStateManager@1@@Z  (00024BC0)
                 83   52   ??0GuiNodeStateManager@nmui@@QAE@PAVGuiNodeManager@1@@Z  (000194D0)
                 84   53   ??0GuiNodeTransform@nmui@@QAE@ABV01@@Z  (00022320)
                 85   54   ??0GuiNodeTransform@nmui@@QAE@XZ  (000228C0)
                 86   55   ??0GuiNodeTraverseVisitor@nmui@@QAE@ABV01@@Z  (00025040)
                 87   56   ??0GuiNodeTraverseVisitor@nmui@@QAE@XZ  (00025090)
                 88   57   ??0GuiNodeUI@nmui@@QAE@ABV01@@Z  (000221E0)
                 89   58   ??0GuiNodeUI@nmui@@QAE@XZ  (000221C0)
                 90   59   ??0GuiNodeVisitor@nmui@@QAE@ABV01@@Z  (00022420)
                 91   5A   ??0GuiNodeVisitor@nmui@@QAE@XZ  (00022400)
                 92   5B   ??0GuiNodeWindow@nmui@@QAE@PAVwxWindow@@HABVwxPoint@@ABVwxSize@@ABVNMStyle@1@ABVwxString@@@Z  (000259C0)
                 93   5C   ??0GuiNodeWindow@nmui@@QAE@XZ  (00025660)
                 94   5D   ??0GuiNodeWindowBase@nmui@@QAE@ABV01@@Z  (00025500)
                 95   5E   ??0GuiNodeWindowBase@nmui@@QAE@PAVwxWindow@@@Z  (00025AC0)
                 96   5F   ??0GuiNodeWindowGdiPlus@nmui@@QAE@PAVwxWindow@@HABVwxPoint@@ABVwxSize@@ABVNMStyle@1@ABVwxString@@@Z  (00027500)
                 97   60   ??0GuiNodeWindowGdiPlus@nmui@@QAE@XZ  (000274D0)
                 98   61   ??0GuiState@nmui@@QAE@ABV01@@Z  (000075B0)
                 99   62   ??0GuiState@nmui@@QAE@ABVwxString@@AAVGuiController@1@@Z  (00021DA0)
                100   63   ??0HoverState@NMListControlStates@nmui@@QAE@ABVwxString@@AAVGuiController@2@AAVNMListControl@2@@Z  (00063310)
                101   64   ??0HoverState@NMSimpleGraphStates@nmui@@QAE@ABV012@@Z  (0008BD10)
                102   65   ??0HoverState@NMSimpleGraphStates@nmui@@QAE@ABVwxString@@AAVGuiController@2@AAVNMSimpleGraph@2@@Z  (0008EF00)
                103   66   ??0HoverState@nmui@@QAE@ABV01@@Z  (00046EE0)
                104   67   ??0HoverState@nmui@@QAE@ABVwxString@@AAVGuiController@1@AAVNMComboBoxListCtrl@1@@Z  (000463F0)
                105   68   ??0LeftClickDragDropStateMachine@nmui@@QAE@ABV01@@Z  (00025060)
                106   69   ??0LeftClickDragDropStateMachine@nmui@@QAE@PAVGuiNodeStateManager@1@@Z  (000253B0)
                107   6A   ??0LuaArgumentProcessor@nmui@@QAE@ABV01@@Z  (00031D60)
                108   6B   ??0LuaArgumentProcessor@nmui@@QAE@_N0@Z  (00033280)
                109   6C   ??0LuaSyntaxCheckEvent@nmui@@QAE@ABV01@@Z  (00028750)
                110   6D   ??0LuaSyntaxCheckEvent@nmui@@QAE@HHHVwxString@@JPAVNMScriptControl@1@@Z  (000869F0)
                111   6E   ??0Menu@nmui@@QAE@ABV01@@Z  (00067800)
                112   6F   ??0Menu@nmui@@QAE@H@Z  (00067690)
                113   70   ??0MenuBar@nmui@@QAE@PAVwxWindow@@HABVwxPoint@@ABVwxSize@@ABVNMStyle@1@ABVwxString@@@Z  (0006A480)
                114   71   ??0MenuBar@nmui@@QAE@XZ  (000693B0)
                115   72   ??0MenuItem@nmui@@QAE@PAVMenu@1@ABV01@@Z  (000665E0)
                116   73   ??0MenuItem@nmui@@QAE@PAVMenu@1@H0_N@Z  (00067F70)
                117   74   ??0MenuItem@nmui@@QAE@PAVMenu@1@HH_N@Z  (00066520)
                118   75   ??0MessageBoxLogger@nmui@@QAE@ABV01@@Z  (00033BE0)
                119   76   ??0MessageBoxLogger@nmui@@QAE@PAVBasicLogger@NMutils@@IJPAVwxWindow@@HH@Z  (00033C50)
                120   77   ??0Monitor@nmui@@QAE@ABV01@@Z  (00033FF0)
                121   78   ??0Monitor@nmui@@QAE@_N00@Z  (00034300)
                122   79   ??0MonitorLocker@nmui@@AAE@ABV01@@Z  (00027B30)
                123   7A   ??0MonitorLocker@nmui@@QAE@PAVMonitor@1@I@Z  (000341F0)
                124   7B   ??0MouseDragDownState@nmui@@QAE@ABVwxString@@AAVGuiController@1@AAVNMComboBoxListCtrl@1@@Z  (00046580)
                125   7C   ??0MouseDragUpState@nmui@@QAE@ABVwxString@@AAVGuiController@1@AAVNMComboBoxListCtrl@1@@Z  (00046470)
                126   7D   ??0NMBusyBar@nmui@@QAE@PAVwxWindow@@HABVwxPoint@@ABVwxSize@@ABVNMStyle@1@ABVwxString@@@Z  (00038720)
                127   7E   ??0NMBusyBar@nmui@@QAE@XZ  (00037E10)
                128   7F   ??0NMCheckListDialog@nmui@@QAE@AAV?$Vector@VwxString@@@NMutils@@PBV23@@Z  (0003D450)
                129   80   ??0NMColourLegend@nmui@@QAE@XZ  (0003DDB0)
                130   81   ??0NMColourSwatch@nmui@@QAE@PAVwxWindow@@HABVwxPoint@@ABVwxSize@@ABVNMStyle@1@ABVwxString@@@Z  (0003FC00)
                131   82   ??0NMColourSwatch@nmui@@QAE@XZ  (0003E9F0)
                132   83   ??0NMColumnItemAttr@nmui@@QAE@ABV01@@Z  (000421C0)
                133   84   ??0NMColumnItemAttr@nmui@@QAE@ABVwxColour@@@Z  (00042140)
                134   85   ??0NMColumnItemAttr@nmui@@QAE@XZ  (000420C0)
                135   86   ??0NMColumnWindow@nmui@@QAE@PAVwxWindow@@HABVwxPoint@@ABVwxSize@@ABVNMStyle@1@ABVwxString@@@Z  (00044B80)
                136   87   ??0NMColumnWindow@nmui@@QAE@XZ  (00044AF0)
                137   88   ??0NMColumnWindowEvent@nmui@@QAE@ABV01@@Z  (000428A0)
                138   89   ??0NMColumnWindowEvent@nmui@@QAE@HH@Z  (00042830)
                139   8A   ??0NMColumnWindowState@NMColumnWindowStates@nmui@@QAE@ABV012@@Z  (00041FB0)
                140   8B   ??0NMColumnWindowState@NMColumnWindowStates@nmui@@QAE@ABVwxString@@AAVGuiController@2@AAVNMColumnWindow@2@@Z  (00045640)
                141   8C   ??0NMComboBox@nmui@@QAE@PAVwxWindow@@HABVwxPoint@@ABVwxSize@@ABVNMStyle@1@ABVwxString@@@Z  (0004AFD0)
                142   8D   ??0NMComboBox@nmui@@QAE@XZ  (0004A540)
                143   8E   ??0NMComboBoxButton@nmui@@QAE@XZ  (00045D60)
                144   8F   ??0NMComboBoxListCtrl@nmui@@QAE@XZ  (00045E20)
                145   90   ??0NMComboBoxState@nmui@@QAE@ABV01@@Z  (00045D00)
                146   91   ??0NMComboBoxState@nmui@@QAE@ABVwxString@@AAVGuiController@1@AAVNMComboBoxListCtrl@1@@Z  (000463B0)
                147   92   ??0NMComboBoxTextCtrl@nmui@@QAE@XZ  (00045DC0)
                148   93   ??0NMCppTextControl@nmui@@QAE@XZ  (0004B4A0)
                149   94   ??0NMDnDClient@nmui@@QAE@ABV01@@Z  (00034B60)
                150   95   ??0NMDnDClient@nmui@@QAE@XZ  (0004D840)
                151   96   ??0NMDnDData@nmui@@QAE@VwxString@@PAXPAVNMDnDClient@1@@Z  (0004D860)
                152   97   ??0NMExpFloatRange@nmui@@QAE@ABV01@@Z  (0004E4F0)
                153   98   ??0NMExpFloatRange@nmui@@QAE@MMM@Z  (0004EE90)
                154   99   ??0NMExpFloatRange@nmui@@QAE@XZ  (0004E4E0)
                155   9A   ??0NMExpFloatSlider@nmui@@QAE@PAVwxWindow@@HMMMMMABVwxPoint@@ABVwxSize@@ABVNMStyle@1@ABVwxString@@@Z  (0004F9F0)
                156   9B   ??0NMExpFloatSlider@nmui@@QAE@XZ  (0004E760)
                157   9C   ??0NMFastBufferedDC@nmui@@QAE@PAVwxWindow@@@Z  (00050090)
                158   9D   ??0NMFastBufferedDC@nmui@@QAE@PAVwxWindow@@_N@Z  (00050120)
                159   9E   ??0NMFileLocator@nmui@@QAE@ABV01@@Z  (00051560)
                160   9F   ??0NMFileLocator@nmui@@QAE@_N@Z  (00051580)
                161   A0   ??0NMFilterCtrl@nmui@@QAE@PAVwxWindow@@VwxImage@@1HABVwxString@@ABVwxPoint@@ABVwxSize@@ABVNMStyle@1@2@Z  (00052CA0)
                162   A1   ??0NMFilterCtrl@nmui@@QAE@XZ  (000521E0)
                163   A2   ??0NMFloatSlider@nmui@@QAE@PAVwxWindow@@HMMMABVwxPoint@@ABVwxSize@@ABVNMStyle@1@ABVwxString@@@Z  (00053B80)
                164   A3   ??0NMFloatSlider@nmui@@QAE@XZ  (00052DD0)
                165   A4   ??0NMFloatSpinner@nmui@@QAE@MM@Z  (00054080)
                166   A5   ??0NMFloatSpinner@nmui@@QAE@PAVwxWindow@@HMMABVwxString@@ABVwxPoint@@ABVwxSize@@ABVNMStyle@1@1@Z  (000542F0)
                167   A6   ??0NMFrameRateControl@nmui@@QAE@PAVwxWindow@@HABVwxString@@ABVwxPoint@@ABVwxSize@@ABVNMStyle@1@1@Z  (000551E0)
                168   A7   ??0NMFrameRateControl@nmui@@QAE@PAVwxWindow@@HNABVwxPoint@@ABVwxSize@@ABVNMStyle@1@ABVwxString@@@Z  (00055140)
                169   A8   ??0NMFrameRateControl@nmui@@QAE@XZ  (000543D0)
                170   A9   ??0NMIconBar@nmui@@QAE@PAVwxWindow@@HABVwxPoint@@ABVwxSize@@ABVNMStyle@1@ABVwxString@@@Z  (00057520)
                171   AA   ??0NMIconBar@nmui@@QAE@XZ  (00055290)
                172   AB   ??0NMIconBarEvent@nmui@@QAE@ABV01@@Z  (00055650)
                173   AC   ??0NMIconBarEvent@nmui@@QAE@HH@Z  (000555E0)
                174   AD   ??0NMIconBarSlots@nmui@@QAE@XZ  (00056890)
                175   AE   ??0NMIncrementalChoiceDialog@nmui@@QAE@XZ  (00057940)
                176   AF   ??0NMIntSlider@nmui@@QAE@PAVwxWindow@@HHHHABVwxPoint@@ABVwxSize@@ABVNMStyle@1@ABVwxString@@@Z  (000592C0)
                177   B0   ??0NMIntSlider@nmui@@QAE@XZ  (000586A0)
                178   B1   ??0NMIntSpinner@nmui@@QAE@HH@Z  (00059690)
                179   B2   ??0NMIntSpinner@nmui@@QAE@PAVwxWindow@@HHHABVwxString@@ABVwxPoint@@ABVwxSize@@ABVNMStyle@1@1@Z  (000598E0)
                180   B3   ??0NMListControl@nmui@@QAE@H@Z  (0005ED80)
                181   B4   ??0NMListControl@nmui@@QAE@PAVwxWindow@@HABVwxPoint@@ABVwxSize@@ABVNMStyle@1@HABVwxString@@@Z  (00061CA0)
                182   B5   ??0NMListControlSelectionEventAggregator@nmui@@QAE@PAVNMListControl@1@@Z  (0005AA60)
                183   B6   ??0NMListControlSelectionEventDisabler@nmui@@QAE@PAVNMListControl@1@@Z  (00059CA0)
                184   B7   ??0NMListControlState@NMListControlStates@nmui@@QAE@ABV012@@Z  (00059A10)
                185   B8   ??0NMListControlState@NMListControlStates@nmui@@QAE@ABVwxString@@AAVGuiController@2@AAVNMListControl@2@@Z  (000632E0)
                186   B9   ??0NMListEvent@nmui@@QAE@ABV01@@Z  (0005A5D0)
                187   BA   ??0NMListEvent@nmui@@QAE@HH@Z  (0005A560)
                188   BB   ??0NMListItemCompareStrategy@nmui@@QAE@ABV01@@Z  (00027910)
                189   BC   ??0NMListItemCompareStrategy@nmui@@QAE@XZ  (00059D80)
                190   BD   ??0NMListItemCompareStrategyAlphabetical@nmui@@QAE@ABV01@@Z  (00027A20)
                191   BE   ??0NMListItemCompareStrategyAlphabetical@nmui@@QAE@H_N@Z  (00059DB0)
                192   BF   ??0NMListItemCompareStrategyInteger@nmui@@QAE@ABV01@@Z  (00027A80)
                193   C0   ??0NMListItemCompareStrategyInteger@nmui@@QAE@H_N@Z  (00059DD0)
                194   C1   ??0NMListItemCompareStrategySpatial@nmui@@QAE@ABV01@@Z  (00027990)
                195   C2   ??0NMListItemCompareStrategySpatial@nmui@@QAE@XZ  (00059DA0)
                196   C3   ??0NMListItemPredicate@nmui@@QAE@ABV01@@Z  (000278F0)
                197   C4   ??0NMListItemPredicate@nmui@@QAE@XZ  (000278E0)
                198   C5   ??0NMListItemUserData@nmui@@QAE@ABV01@@Z  (00027B20)
                199   C6   ??0NMListItemUserData@nmui@@QAE@XZ  (00059C80)
                200   C7   ??0NMListItem_@nmui@@QAE@ABV01@@Z  (00031AE0)
                201   C8   ??0NMListItem_@nmui@@QAE@HH@Z  (00061BD0)
                202   C9   ??0NMMacroReplacement@nmui@@QAE@ABV01@@Z  (000656F0)
                203   CA   ??0NMMacroReplacement@nmui@@QAE@ABVwxString@@0_N1@Z  (000657B0)
                204   CB   ??0NMMacroReplacementTool@nmui@@QAE@_N0@Z  (00065830)
                205   CC   ??0NMMenuBarFocusHelper@nmui@@QAE@ABV01@@Z  (00068DE0)
                206   CD   ??0NMMenuBarFocusHelper@nmui@@QAE@PAVMenuBar@1@AAVGuiController@1@@Z  (000690F0)
                207   CE   ??0NMMultipleDropTarget@nmui@@QAE@XZ  (0004E050)
                208   CF   ??0NMPalette@nmui@@QAE@XZ  (00077D00)
                209   D0   ??0NMPaletteItem@nmui@@QAE@ABV01@@Z  (000727A0)
                210   D1   ??0NMPaletteItem@nmui@@QAE@PAVNMPalette@1@ABVwxString@@1ABVwxImage@@I1PAXIABVwxIcon@@@Z  (00073540)
                211   D2   ??0NMProfilerMinMaxPeakStrategy@nmui@@QAE@ABV01@@Z  (0007D150)
                212   D3   ??0NMProfilerMinMaxPeakStrategy@nmui@@QAE@XZ  (0007D300)
                213   D4   ??0NMProfilerReportingStrategy@nmui@@QAE@ABV01@@Z  (0007D0E0)
                214   D5   ??0NMProfilerReportingStrategy@nmui@@QAE@XZ  (0007D0C0)
                215   D6   ??0NMProfilerWindow@nmui@@QAE@PAVwxWindow@@PAVProfiler@NMP@@PAVNMProfilerReportingStrategy@1@@Z  (0007D690)
                216   D7   ??0NMProgressBar@nmui@@QAE@PAVwxWindow@@HIABVwxPoint@@ABVwxSize@@ABVNMStyle@1@ABVwxString@@@Z  (0007E880)
                217   D8   ??0NMProgressBar@nmui@@QAE@XZ  (0007E800)
                218   D9   ??0NMProgressDialog@nmui@@QAE@ABVwxString@@0IPAVwxWindow@@HABVwxSize@@@Z  (0007F070)
                219   DA   ??0NMProgressDialog@nmui@@QAE@XZ  (0007E990)
                220   DB   ??0NMRadioBox@nmui@@QAE@PAVwxWindow@@HABVwxPoint@@ABVwxSize@@ABVNMStyle@1@ABVwxString@@@Z  (000807B0)
                221   DC   ??0NMRadioBox@nmui@@QAE@XZ  (0007FF40)
                222   DD   ??0NMRollupContainer@nmui@@QAE@PAVwxWindow@@HABVwxPoint@@ABVwxSize@@ABVNMStyle@1@ABVwxString@@@Z  (000850A0)
                223   DE   ??0NMRollupContainer@nmui@@QAE@XZ  (000848B0)
                224   DF   ??0NMRollupHeading@nmui@@QAE@PAVwxWindow@@HABVwxString@@ABVwxPoint@@ABVwxSize@@ABVNMStyle@1@1@Z  (00082830)
                225   E0   ??0NMRollupHeading@nmui@@QAE@XZ  (00081680)
                226   E1   ??0NMRollupHeadingEvent@nmui@@QAE@ABV01@@Z  (00080C40)
                227   E2   ??0NMRollupHeadingEvent@nmui@@QAE@HPAVNMRollupHeading@1@@Z  (000814C0)
                228   E3   ??0NMRollupSection@nmui@@QAE@PAVNMRollupContainer@1@HABVwxString@@ABVwxPoint@@ABVwxSize@@ABVNMStyle@1@@Z  (00086560)
                229   E4   ??0NMRollupSection@nmui@@QAE@XZ  (00083320)
                230   E5   ??0NMRollupSectionEvent@nmui@@QAE@ABV01@@Z  (00083170)
                231   E6   ??0NMRollupSectionEvent@nmui@@QAE@HH@Z  (00083140)
                232   E7   ??0NMScriptControl@nmui@@QAE@PAVwxWindow@@HABVwxPoint@@ABVwxSize@@JABVwxString@@@Z  (00087630)
                233   E8   ??0NMScriptControl@nmui@@QAE@XZ  (00086B80)
                234   E9   ??0NMScrollBar@nmui@@QAE@PAVwxWindow@@HABVwxPoint@@ABVwxSize@@ABVNMStyle@1@ABVwxString@@@Z  (00088030)
                235   EA   ??0NMScrollBar@nmui@@QAE@XZ  (00087900)
                236   EB   ??0NMScrollPanel@nmui@@QAE@PAVwxWindow@@HABVwxPoint@@ABVwxSize@@ABVNMStyle@1@ABVwxString@@@Z  (000898A0)
                237   EC   ??0NMScrollWindow@nmui@@QAE@PAVwxWindow@@HABVwxPoint@@ABVwxSize@@ABVNMStyle@1@ABVwxString@@@Z  (0008BA20)
                238   ED   ??0NMScrollWindow@nmui@@QAE@XZ  (0008B380)
                239   EE   ??0NMSimpleGraph@nmui@@QAE@XZ  (0008D880)
                240   EF   ??0NMSimpleGraphAxes@nmui@@QAE@ABV01@@Z  (0008C750)
                241   F0   ??0NMSimpleGraphAxes@nmui@@QAE@XZ  (0008C6C0)
                242   F1   ??0NMSimpleGraphEvent@nmui@@QAE@ABV01@@Z  (0008CF60)
                243   F2   ??0NMSimpleGraphEvent@nmui@@QAE@HH@Z  (0008CEF0)
                244   F3   ??0NMSimpleGraphState@NMSimpleGraphStates@nmui@@QAE@ABV012@@Z  (0008BCC0)
                245   F4   ??0NMSimpleGraphState@NMSimpleGraphStates@nmui@@QAE@ABVwxString@@AAVGuiController@2@AAVNMSimpleGraph@2@@Z  (0008EED0)
                246   F5   ??0NMSimpleMultiOptionDialog@nmui@@QAE@PAVwxWindow@@ABVwxString@@JABVwxPoint@@@Z  (00090DB0)
                247   F6   ??0NMSimpleTextCtrl@nmui@@QAE@PAVwxWindow@@HABVwxString@@ABVwxPoint@@ABVwxSize@@ABVNMStyle@1@ABVwxValidator@@1@Z  (000A14F0)
                248   F7   ??0NMSimpleTextCtrl@nmui@@QAE@XZ  (0009E3F0)
                249   F8   ??0NMSimpleTextCtrlValidator@nmui@@QAE@ABV01@@Z  (0009CF00)
                250   F9   ??0NMSimpleTextCtrlValidator@nmui@@QAE@JPAVwxString@@@Z  (0009CC90)
                251   FA   ??0NMSplash@nmui@@QAE@ABVwxBitmap@@HPAVwxWindow@@HABVwxPoint@@ABVwxSize@@JPAPAV01@@Z  (00093500)
                252   FB   ??0NMSplash@nmui@@QAE@XZ  (000931D0)
                253   FC   ??0NMSplitter@nmui@@QAE@PAVwxWindow@@HABVwxPoint@@ABVwxSize@@ABVNMStyle@1@ABVwxString@@@Z  (00027DE0)
                254   FD   ??0NMSplitter@nmui@@QAE@XZ  (00027D50)
                255   FE   ??0NMSplitterEvent@nmui@@QAE@ABV01@@Z  (00093FE0)
                256   FF   ??0NMSplitterEvent@nmui@@QAE@HPAVNMSplitter@1@@Z  (00093F50)
                257  100   ??0NMStaticBitmap@nmui@@QAE@PAVwxWindow@@HABVwxBitmap@@ABVwxPoint@@ABVwxSize@@ABVNMStyle@1@@Z  (00097AA0)
                258  101   ??0NMStaticBitmap@nmui@@QAE@PAVwxWindow@@HABVwxImage@@ABVwxPoint@@ABVwxSize@@ABVNMStyle@1@@Z  (00097B70)
                259  102   ??0NMStaticBitmap@nmui@@QAE@XZ  (000975A0)
                260  103   ??0NMStaticBox@nmui@@QAE@PAVwxWindow@@HABVwxString@@ABVwxPoint@@ABVwxSize@@JABVwxValidator@@1@Z  (00057700)
                261  104   ??0NMStaticBox@nmui@@QAE@XZ  (00097C50)
                262  105   ??0NMStaticBoxSizer@nmui@@QAE@ABV01@@Z  (00057830)
                263  106   ??0NMStaticBoxSizer@nmui@@QAE@PAVNMStaticBox@1@H@Z  (00097EF0)
                264  107   ??0NMStaticText@nmui@@QAE@PAVwxWindow@@HABVwxString@@ABVwxPoint@@ABVwxSize@@ABVNMStyle@1@H1@Z  (00099230)
                265  108   ??0NMStaticText@nmui@@QAE@XZ  (00098820)
                266  109   ??0NMSwitchablePanel@nmui@@QAE@XZ  (000996B0)
                267  10A   ??0NMTextRenameCtrl@nmui@@QAE@PAVNMTextRenameCtrlOwner@1@@Z  (0009F810)
                268  10B   ??0NMTextRenameCtrlOwner@nmui@@QAE@ABV01@@Z  (00009880)
                269  10C   ??0NMTextRenameCtrlOwner@nmui@@QAE@XZ  (0009DF30)
                270  10D   ??0NMToolBar@nmui@@QAE@PAVwxWindow@@HW4wxOrientation@@ABVwxPoint@@ABVwxSize@@ABVNMStyle@1@ABVwxString@@@Z  (00027FF0)
                271  10E   ??0NMToolBar@nmui@@QAE@XZ  (000A3A30)
                272  10F   ??0NMToolBarSeparator@nmui@@QAE@XZ  (000A1610)
                273  110   ??0NMToolEdgePanel@nmui@@QAE@XZ  (000A1A00)
                274  111   ??0NMToolPanel@nmui@@QAE@XZ  (000A1BC0)
                275  112   ??0NMToolTitlePanel@nmui@@QAE@XZ  (000A1900)
                276  113   ??0NMTreeControlSelectionEventAggregator@nmui@@QAE@PAVTreeControl@1@@Z  (000B2690)
                277  114   ??0NMTreeControlSelectionEventDisabler@nmui@@QAE@PAVTreeControl@1@@Z  (000B26B0)
                278  115   ??0NMUIntSlider@nmui@@QAE@PAVwxWindow@@HIIIABVwxPoint@@ABVwxSize@@ABVNMStyle@1@ABVwxString@@@Z  (000A4B90)
                279  116   ??0NMUIntSlider@nmui@@QAE@XZ  (000A3EB0)
                280  117   ??0NMUserDataDropTarget@nmui@@QAE@ABVwxString@@@Z  (0004DA50)
                281  118   ??0NMUserDataObject@nmui@@QAE@ABVwxString@@PAX@Z  (0004D930)
                282  119   ??0NMWhileNoPopupPanelCaptureEvents@nmui@@QAE@PAVPopupPanel@1@@Z  (0007C5F0)
                283  11A   ??0NavigatorGroup@nmui@@QAE@ABV01@@Z  (00034B30)
                284  11B   ??0NavigatorGroup@nmui@@QAE@XZ  (00034DF0)
                285  11C   ??0NavigatorItemType@nmui@@QAE@ABV01@@Z  (00034AC0)
                286  11D   ??0NavigatorItemType@nmui@@QAE@XZ  (00034A90)
                287  11E   ??0NavigatorTree@nmui@@QAE@PAVwxWindow@@HABVwxPoint@@ABVwxSize@@ABVNMStyle@1@ABVwxString@@@Z  (00037A00)
                288  11F   ??0NavigatorTree@nmui@@QAE@XZ  (00034C00)
                289  120   ??0NavigatorTreeItem@nmui@@IAE@ABVwxString@@AAVNavigatorTree@1@AAVNavigatorItemType@1@@Z  (00034D60)
                290  121   ??0NoButtonDown@NMColumnWindowStates@nmui@@QAE@ABVwxString@@AAVGuiController@2@AAVNMColumnWindow@2@H@Z  (00045690)
                291  122   ??0Notebook@nmui@@QAE@PAVwxWindow@@HABVwxPoint@@ABVwxSize@@ABVNMStyle@1@ABVwxString@@@Z  (000726D0)
                292  123   ??0Notebook@nmui@@QAE@XZ  (0006F960)
                293  124   ??0NotebookBase@nmui@@QAE@ABV01@@Z  (0006B200)
                294  125   ??0NotebookBase@nmui@@QAE@XZ  (0006B1F0)
                295  126   ??0NotebookEvent@nmui@@QAE@ABV01@@Z  (0006BF20)
                296  127   ??0NotebookEvent@nmui@@QAE@HH@Z  (0006BEB0)
                297  128   ??0NotebookWindowData@nmui@@QAE@ABU01@@Z  (0006B020)
                298  129   ??0NotebookWindowData@nmui@@QAE@XZ  (0006AEF0)
                299  12A   ??0Panel@nmui@@QAE@PAVwxWindow@@HABVwxPoint@@ABVwxSize@@ABVNMStyle@1@ABVwxString@@@Z  (000A6340)
                300  12B   ??0Panel@nmui@@QAE@XZ  (000A5B20)
                301  12C   ??0PanelBorder@nmui@@QAE@ABV01@@Z  (00009600)
                302  12D   ??0PanelBorder@nmui@@QAE@XZ  (000095E0)
                303  12E   ??0PanelBuilder@nmui@@QAE@ABV01@@Z  (0003C870)
                304  12F   ??0PanelBuilder@nmui@@QAE@PAVwxWindow@@H@Z  (000AA180)
                305  130   ??0PopupMenu@nmui@@QAE@PAVwxWindow@@ABVMenu@1@VwxPoint@@_N@Z  (0007B1E0)
                306  131   ??0PopupMenu@nmui@@QAE@XZ  (00079A00)
                307  132   ??0PopupPanel@nmui@@QAE@PAVwxWindow@@ABVwxPoint@@ABVwxSize@@@Z  (0007CD80)
                308  133   ??0PopupPanelSafeDismissContext@nmui@@QAE@PAVPopupPanel@1@@Z  (0007C590)
                309  134   ??0RawGLCanvas@nmui@@QAE@PAVwxWindow@@HABVwxPoint@@ABVwxSize@@JABVwxString@@PAHPBV01@@Z  (000AC070)
                310  135   ??0ResourceChangeContext@nmui@@QAE@AAV01@@Z  (00018410)
                311  136   ??0ResourceChangeContext@nmui@@QAE@PAVFileResourceManager@1@@Z  (000194D0)
                312  137   ??0ResourceManagerThreadHelper@nmui@@QAE@ABV01@@Z  (000163A0)
                313  138   ??0ResourceManagerThreadHelper@nmui@@QAE@ABVwxString@@@Z  (00016A40)
                314  139   ??0ResourceObserver@nmui@@QAE@ABV01@@Z  (00016440)
                315  13A   ??0ResourceObserver@nmui@@QAE@XZ  (00016420)
                316  13B   ??0ScrollDownState@nmui@@QAE@ABVwxString@@AAVGuiController@1@AAVNMComboBoxListCtrl@1@@Z  (00046790)
                317  13C   ??0ScrollPageDownState@nmui@@QAE@ABVwxString@@AAVGuiController@1@AAVNMComboBoxListCtrl@1@@Z  (000468D0)
                318  13D   ??0ScrollPageUpState@nmui@@QAE@ABVwxString@@AAVGuiController@1@AAVNMComboBoxListCtrl@1@@Z  (00046830)
                319  13E   ??0ScrollUpState@nmui@@QAE@ABVwxString@@AAVGuiController@1@AAVNMComboBoxListCtrl@1@@Z  (00046640)
                320  13F   ??0SelectionBorder@nmui@@QAE@ABV01@@Z  (00009680)
                321  140   ??0SelectionBorder@nmui@@QAE@_N@Z  (000A55D0)
                322  141   ??0Slider@nmui@@QAE@PAVwxWindow@@HABVwxPoint@@ABVwxSize@@ABVNMStyle@1@ABVwxString@@@Z  (0004E320)
                323  142   ??0Slider@nmui@@QAE@XZ  (00092210)
                324  143   ??0SpinButton@nmui@@QAE@PAVwxWindow@@HABVwxPoint@@ABVwxSize@@ABVNMStyle@1@ABVwxString@@@Z  (00093140)
                325  144   ??0SpinButton@nmui@@QAE@XZ  (000930E0)
                326  145   ??0StackLogger@nmui@@QAE@AAVBasicLogger@NMutils@@@Z  (00003780)
                327  146   ??0StackLogger@nmui@@QAE@ABV01@@Z  (00001D80)
                328  147   ??0StateManager@nmui@@IAE@ABV?$basic_string@_WU?$char_traits@_W@std@@V?$allocator@_W@2@@std@@@Z  (000142F0)
                329  148   ??0TaskList@nmui@@QAE@ABV01@@Z  (0009A5E0)
                330  149   ??0TaskList@nmui@@QAE@XZ  (0009A230)
                331  14A   ??0TaskListDialog@nmui@@QAE@AAVTaskList@1@@Z  (00099DE0)
                332  14B   ??0TaskListDialog@nmui@@QAE@AAVTaskList@1@PB_WVwxSize@@@Z  (0009C210)
                333  14C   ??0TaskListItem@nmui@@QAE@ABV01@@Z  (00099B50)
                334  14D   ??0TaskListItem@nmui@@QAE@PB_W00@Z  (00099CD0)
                335  14E   ??0TaskListItemBase@nmui@@QAE@ABV01@@Z  (00099A50)
                336  14F   ??0TaskListItemBase@nmui@@QAE@XZ  (00099A40)
                337  150   ??0TaskListObserver@nmui@@QAE@ABV01@@Z  (00099C60)
                338  151   ??0TaskListObserver@nmui@@QAE@XZ  (00099C20)
                339  152   ??0TextControl@nmui@@QAE@PAVwxWindow@@HABVwxPoint@@ABVwxSize@@JABVwxString@@@Z  (000B0A00)
                340  153   ??0TextControl@nmui@@QAE@XZ  (000AEFD0)
                341  154   ??0ThumbDragState@nmui@@QAE@ABV01@@Z  (00046F90)
                342  155   ??0ThumbDragState@nmui@@QAE@ABVwxString@@AAVGuiController@1@AAVNMComboBoxListCtrl@1@@Z  (00046420)
                343  156   ??0TreeControl@nmui@@QAE@PAVwxWindow@@HABVwxPoint@@ABVwxSize@@ABVNMStyle@1@ABVwxString@@@Z  (000BD170)
                344  157   ??0TreeControl@nmui@@QAE@XZ  (000B9DF0)
                345  158   ??0TreeEvent@nmui@@QAE@ABV01@@Z  (000B8720)
                346  159   ??0TreeEvent@nmui@@QAE@HH@Z  (000B8630)
                347  15A   ??0TreeItem@nmui@@QAE@ABVwxString@@AAVTreeControl@1@_N@Z  (000BC510)
                348  15B   ??0TreeItemCompareAlphabetically@nmui@@QAE@ABV01@@Z  (0000C890)
                349  15C   ??0TreeItemCompareAlphabetically@nmui@@QAE@H_N@Z  (000B0C90)
                350  15D   ??0TreeItemCompareSpatially@nmui@@QAE@ABV01@@Z  (0000C920)
                351  15E   ??0TreeItemCompareSpatially@nmui@@QAE@XZ  (000B0CB0)
                352  15F   ??0TreeItemCompareStrategy@nmui@@QAE@ABV01@@Z  (0000C820)
                353  160   ??0TreeItemCompareStrategy@nmui@@QAE@XZ  (000B0C70)
                354  161   ??0TreeItemData@nmui@@QAE@ABV01@@Z  (0000C990)
                355  162   ??0TreeItemData@nmui@@QAE@XZ  (000B0CE0)
                356  163   ??0TreeItemPredicate@nmui@@QAE@ABV01@@Z  (0000C7B0)
                357  164   ??0TreeItemPredicate@nmui@@QAE@XZ  (0000C7A0)
                358  165   ??0TreeLabelPredicate@nmui@@QAE@ABV01@@Z  (0000CCC0)
                359  166   ??0TreeLabelPredicate@nmui@@QAE@PAVNMFilterCtrl@1@@Z  (0000CC90)
                360  167   ??0TreeState@TreeControlStates@nmui@@QAE@ABV012@@Z  (000B0B30)
                361  168   ??0TreeState@TreeControlStates@nmui@@QAE@ABVwxString@@AAVGuiController@2@AAVTreeControl@2@@Z  (000BD360)
                362  169   ??0WaitState@TreeControlStates@nmui@@QAE@ABVwxString@@AAVGuiController@2@AAVTreeControl@2@@Z  (000BD3B0)
                363  16A   ??0Window@nmui@@QAE@PAVwxWindow@@HABVwxPoint@@ABVwxSize@@ABVNMStyle@1@ABVwxString@@@Z  (000A6210)
                364  16B   ??0Window@nmui@@QAE@XZ  (000A57F0)
                365  16C   ??0WindowEvent@nmui@@QAE@ABV01@@Z  (000A5540)
                366  16D   ??0WindowEvent@nmui@@QAE@HH@Z  (000A54C0)
                367  16E   ??0WindowFreezer@nmui@@QAE@PAVwxWindow@@@Z  (00001D30)
                368  16F   ??0WindowPannedEvent@nmui@@QAE@ABV01@@Z  (00026590)
                369  170   ??0WindowPannedEvent@nmui@@QAE@HH@Z  (00026560)
                370  171   ??0WindowScaledEvent@nmui@@QAE@ABV01@@Z  (00026690)
                371  172   ??0WindowScaledEvent@nmui@@QAE@HH@Z  (00026650)
                372  173   ??0nmuiCondition@nmui@@QAE@PAVnmuiMonitor@1@@Z  (000345A0)
                373  174   ??0nmuiMonitor@nmui@@QAE@_N00@Z  (00034330)
                374  175   ??0win32Condition@nmui@@QAE@ABV01@@Z  (000349F0)
                375  176   ??0win32Condition@nmui@@QAE@PAVwin32Monitor@1@@Z  (00034760)
                376  177   ??0win32Monitor@nmui@@QAE@ABV01@@Z  (00034260)
                377  178   ??0win32Monitor@nmui@@QAE@_N00@Z  (000346E0)
                378  179   ??0win32Semaphore@nmui@@QAE@ABV01@@Z  (00034240)
                379  17A   ??0win32Semaphore@nmui@@QAE@XZ  (00034660)
                380  17B   ??0wxEventDisabler@nmui@@QAE@PAVwxWindow@@@Z  (000042C0)
                381  17C   ??0wxEventInterceptor@nmui@@QAE@AAVwxWindow@@AAVStateManager@1@@Z  (000BFA30)
                382  17D   ??0wxStyledTextCtrl@@QAE@PAVwxWindow@@HABVwxPoint@@ABVwxSize@@JABVwxString@@@Z  (000CC4E0)
                383  17E   ??0wxStyledTextCtrl@@QAE@XZ  (000281F0)
                384  17F   ??0wxStyledTextEvent@@QAE@ABV0@@Z  (000CABA0)
                385  180   ??0wxStyledTextEvent@@QAE@HH@Z  (000CAAB0)
                386  181   ??1AppMainLoop@nmui@@UAE@XZ  (00001BB0)
                387  182   ??1AppMainLoopRedrawClient@nmui@@UAE@XZ  (000010A0)
                388  183   ??1AppMainLoopTimerClient@nmui@@UAE@XZ  (00001010)
                389  184   ??1AutoCompleteDictionary@nmui@@UAE@XZ  (000062C0)
                390  185   ??1BaseState@nmui@@UAE@XZ  (00012960)
                391  186   ??1Button@nmui@@UAE@XZ  (00038800)
                392  187   ??1CellRenderer@nmui@@QAE@XZ  (0003B740)
                393  188   ??1CheckBox@nmui@@UAE@XZ  (0003BE10)
                394  189   ??1CheckBoxEvent@nmui@@UAE@XZ  (00080C30)
                395  18A   ??1ColourShader@nmui@@QAE@XZ  (00006E70)
                396  18B   ??1Condition@nmui@@UAE@XZ  (000340B0)
                397  18C   ??1CustomResourceData@nmui@@UAE@XZ  (00016310)
                398  18D   ??1Dialog@nmui@@UAE@XZ  (0004C3A0)
                399  18E   ??1DialogModalData@nmui@@QAE@XZ  (0004B7F0)
                400  18F   ??1DirectoryControl@nmui@@UAE@XZ  (00009F80)
                401  190   ??1DirectoryWatch@nmui@@UAE@XZ  (0000B000)
                402  191   ??1DirectoryWatchBase@nmui@@UAE@XZ  (0000AA20)
                403  192   ??1DirectoryWatchObserver@nmui@@UAE@XZ  (0000A8B0)
                404  193   ??1DirectoryWatchTreeView@nmui@@UAE@XZ  (0000FED0)
                405  194   ??1DragColumnState@NMColumnWindowStates@nmui@@UAE@XZ  (000798B0)
                406  195   ??1DragFrameMarkerState@NMSimpleGraphStates@nmui@@UAE@XZ  (000798B0)
                407  196   ??1DragSelectState@NMListControlStates@nmui@@UAE@XZ  (000798B0)
                408  197   ??1DragState@NMListControlStates@nmui@@UAE@XZ  (000798B0)
                409  198   ??1DragState@TreeControlStates@nmui@@UAE@XZ  (000B0C00)
                410  199   ??1DragValueMarkerState@NMSimpleGraphStates@nmui@@UAE@XZ  (000798B0)
                411  19A   ??1EATRenderCallback@nmui@@UAE@XZ  (000AB5C0)
                412  19B   ??1FSMState@nmui@@UAE@XZ  (00021C70)
                413  19C   ??1FileHistory@nmui@@UAE@XZ  (000502B0)
                414  19D   ??1FileResourceManager@nmui@@UAE@XZ  (0001DAB0)
                415  19E   ??1FilenameControl@nmui@@UAE@XZ  (00016020)
                416  19F   ??1FilteredResourceObserver@nmui@@UAE@XZ  (00017360)
                417  1A0   ??1FilteredResourcePredicate@nmui@@UAE@XZ  (000164C0)
                418  1A1   ??1FiniteStateMachine@nmui@@UAE@XZ  (00021A00)
                419  1A2   ??1Frame@nmui@@UAE@XZ  (000A53D0)
                420  1A3   ??1FullScreenFrame@nmui@@UAE@XZ  (0006C1F0)
                421  1A4   ??1GUIServices@nmui@@UAE@XZ  (000307D0)
                422  1A5   ??1GuiController@nmui@@UAE@XZ  (00021BE0)
                423  1A6   ??1GuiNode@nmui@@QAE@XZ  (000245E0)
                424  1A7   ??1GuiNodeData@nmui@@UAE@XZ  (00022140)
                425  1A8   ??1GuiNodeEvent@nmui@@QAE@XZ  (000227D0)
                426  1A9   ??1GuiNodeHoverState@nmui@@UAE@XZ  (00023110)
                427  1AA   ??1GuiNodeManager@nmui@@UAE@XZ  (00024E20)
                428  1AB   ??1GuiNodeState@nmui@@UAE@XZ  (00023110)
                429  1AC   ??1GuiNodeStateMachine@nmui@@UAE@XZ  (00024D70)
                430  1AD   ??1GuiNodeStateManager@nmui@@QAE@XZ  (0000A8C0)
                431  1AE   ??1GuiNodeTransform@nmui@@QAE@XZ  (0000A8C0)
                432  1AF   ??1GuiNodeTraverseVisitor@nmui@@UAE@XZ  (000250B0)
                433  1B0   ??1GuiNodeUI@nmui@@UAE@XZ  (000221D0)
                434  1B1   ??1GuiNodeVisitor@nmui@@UAE@XZ  (000250B0)
                435  1B2   ??1GuiNodeWindow@nmui@@UAE@XZ  (000256E0)
                436  1B3   ??1GuiNodeWindowBase@nmui@@UAE@XZ  (00025AE0)
                437  1B4   ??1GuiNodeWindowGdiPlus@nmui@@UAE@XZ  (00027570)
                438  1B5   ??1GuiState@nmui@@UAE@XZ  (00021DD0)
                439  1B6   ??1HoverState@NMListControlStates@nmui@@UAE@XZ  (00059A60)
                440  1B7   ??1HoverState@NMSimpleGraphStates@nmui@@UAE@XZ  (000798B0)
                441  1B8   ??1HoverState@nmui@@UAE@XZ  (000463E0)
                442  1B9   ??1LeftClickDragDropStateMachine@nmui@@UAE@XZ  (00025170)
                443  1BA   ??1LuaArgumentProcessor@nmui@@UAE@XZ  (00033900)
                444  1BB   ??1LuaSyntaxCheckEvent@nmui@@UAE@XZ  (00080C30)
                445  1BC   ??1Menu@nmui@@UAE@XZ  (000677B0)
                446  1BD   ??1MenuBar@nmui@@UAE@XZ  (00069800)
                447  1BE   ??1MenuItem@nmui@@UAE@XZ  (00065F00)
                448  1BF   ??1MessageBoxLogger@nmui@@UAE@XZ  (00033C90)
                449  1C0   ??1Monitor@nmui@@UAE@XZ  (00033FE0)
                450  1C1   ??1MonitorLocker@nmui@@QAE@XZ  (00034220)
                451  1C2   ??1MouseDragDownState@nmui@@UAE@XZ  (00046FE0)
                452  1C3   ??1MouseDragUpState@nmui@@UAE@XZ  (00046FE0)
                453  1C4   ??1NMBusyBar@nmui@@UAE@XZ  (00037E40)
                454  1C5   ??1NMCheckListDialog@nmui@@UAE@XZ  (0003D5C0)
                455  1C6   ??1NMColourLegend@nmui@@UAE@XZ  (0003E6E0)
                456  1C7   ??1NMColourSwatch@nmui@@UAE@XZ  (0003EA70)
                457  1C8   ??1NMColumnItemAttr@nmui@@QAE@XZ  (00006E70)
                458  1C9   ??1NMColumnWindow@nmui@@UAE@XZ  (00044C40)
                459  1CA   ??1NMColumnWindowEvent@nmui@@UAE@XZ  (00042960)
                460  1CB   ??1NMColumnWindowState@NMColumnWindowStates@nmui@@UAE@XZ  (000798B0)
                461  1CC   ??1NMComboBox@nmui@@UAE@XZ  (0004AB50)
                462  1CD   ??1NMComboBoxButton@nmui@@UAE@XZ  (00045D90)
                463  1CE   ??1NMComboBoxListCtrl@nmui@@UAE@XZ  (00045EE0)
                464  1CF   ??1NMComboBoxState@nmui@@UAE@XZ  (000463E0)
                465  1D0   ??1NMComboBoxTextCtrl@nmui@@UAE@XZ  (00045DF0)
                466  1D1   ??1NMCppTextControl@nmui@@UAE@XZ  (0004B4C0)
                467  1D2   ??1NMDnDClient@nmui@@UAE@XZ  (0004D850)
                468  1D3   ??1NMDnDData@nmui@@QAE@XZ  (0000A8C0)
                469  1D4   ??1NMExpFloatRange@nmui@@QAE@XZ  (0000A8C0)
                470  1D5   ??1NMExpFloatSlider@nmui@@UAE@XZ  (0004E7A0)
                471  1D6   ??1NMFastBufferedDC@nmui@@UAE@XZ  (0004FAC0)
                472  1D7   ??1NMFileLocator@nmui@@QAE@XZ  (000515A0)
                473  1D8   ??1NMFilterCtrl@nmui@@UAE@XZ  (00052270)
                474  1D9   ??1NMFloatSlider@nmui@@UAE@XZ  (00052E10)
                475  1DA   ??1NMFloatSpinner@nmui@@UAE@XZ  (00053CA0)
                476  1DB   ??1NMFrameRateControl@nmui@@UAE@XZ  (00054410)
                477  1DC   ??1NMIconBar@nmui@@UAE@XZ  (000552B0)
                478  1DD   ??1NMIconBarEvent@nmui@@UAE@XZ  (00055700)
                479  1DE   ??1NMIconBarSlots@nmui@@UAE@XZ  (00057420)
                480  1DF   ??1NMIncrementalChoiceDialog@nmui@@UAE@XZ  (00058550)
                481  1E0   ??1NMIntSlider@nmui@@UAE@XZ  (000586E0)
                482  1E1   ??1NMIntSpinner@nmui@@UAE@XZ  (00059380)
                483  1E2   ??1NMListControl@nmui@@UAE@XZ  (000600A0)
                484  1E3   ??1NMListControlSelectionEventAggregator@nmui@@QAE@XZ  (0005BBE0)
                485  1E4   ??1NMListControlSelectionEventDisabler@nmui@@QAE@XZ  (00081600)
                486  1E5   ??1NMListControlState@NMListControlStates@nmui@@UAE@XZ  (000798B0)
                487  1E6   ??1NMListEvent@nmui@@UAE@XZ  (0005A6F0)
                488  1E7   ??1NMListItemCompareStrategy@nmui@@UAE@XZ  (00059D90)
                489  1E8   ??1NMListItemCompareStrategyAlphabetical@nmui@@UAE@XZ  (00027A10)
                490  1E9   ??1NMListItemCompareStrategyInteger@nmui@@UAE@XZ  (00027A10)
                491  1EA   ??1NMListItemCompareStrategySpatial@nmui@@UAE@XZ  (00027A10)
                492  1EB   ??1NMListItemUserData@nmui@@UAE@XZ  (00059C90)
                493  1EC   ??1NMListItem_@nmui@@QAE@XZ  (0005FA80)
                494  1ED   ??1NMMacroReplacement@nmui@@QAE@XZ  (000507A0)
                495  1EE   ??1NMMacroReplacementTool@nmui@@QAE@XZ  (00065D40)
                496  1EF   ??1NMMenuBarFocusHelper@nmui@@UAE@XZ  (000798B0)
                497  1F0   ??1NMMultipleDropTarget@nmui@@UAE@XZ  (0004DAE0)
                498  1F1   ??1NMPalette@nmui@@UAE@XZ  (00078200)
                499  1F2   ??1NMPaletteItem@nmui@@UAE@XZ  (00072DF0)
                500  1F3   ??1NMProfilerMinMaxPeakStrategy@nmui@@UAE@XZ  (0007D0D0)
                501  1F4   ??1NMProfilerReportingStrategy@nmui@@UAE@XZ  (0007D0D0)
                502  1F5   ??1NMProfilerWindow@nmui@@UAE@XZ  (0007D1B0)
                503  1F6   ??1NMProgressBar@nmui@@UAE@XZ  (0007DFD0)
                504  1F7   ??1NMProgressDialog@nmui@@UAE@XZ  (0007F0F0)
                505  1F8   ??1NMRadioBox@nmui@@UAE@XZ  (00080970)
                506  1F9   ??1NMRollupContainer@nmui@@UAE@XZ  (000853D0)
                507  1FA   ??1NMRollupHeading@nmui@@UAE@XZ  (00081730)
                508  1FB   ??1NMRollupHeadingEvent@nmui@@UAE@XZ  (00080C30)
                509  1FC   ??1NMRollupSection@nmui@@UAE@XZ  (00082A50)
                510  1FD   ??1NMRollupSectionEvent@nmui@@UAE@XZ  (00084BB0)
                511  1FE   ??1NMScriptControl@nmui@@UAE@XZ  (00086DF0)
                512  1FF   ??1NMScrollBar@nmui@@UAE@XZ  (00087A20)
                513  200   ??1NMScrollPanel@nmui@@UAE@XZ  (0000C3A0)
                514  201   ??1NMScrollWindow@nmui@@UAE@XZ  (0008A260)
                515  202   ??1NMSimpleGraph@nmui@@UAE@XZ  (0008E9F0)
                516  203   ??1NMSimpleGraphAxes@nmui@@QAE@XZ  (0008C7E0)
                517  204   ??1NMSimpleGraphEvent@nmui@@UAE@XZ  (0008D000)
                518  205   ??1NMSimpleGraphState@NMSimpleGraphStates@nmui@@UAE@XZ  (000798B0)
                519  206   ??1NMSimpleMultiOptionDialog@nmui@@UAE@XZ  (00090EF0)
                520  207   ??1NMSimpleTextCtrl@nmui@@UAE@XZ  (0009D100)
                521  208   ??1NMSimpleTextCtrlValidator@nmui@@UAE@XZ  (0009CFA0)
                522  209   ??1NMSplash@nmui@@UAE@XZ  (00093280)
                523  20A   ??1NMSplitter@nmui@@UAE@XZ  (000940C0)
                524  20B   ??1NMSplitterEvent@nmui@@UAE@XZ  (00027FD0)
                525  20C   ??1NMStaticBitmap@nmui@@UAE@XZ  (00097380)
                526  20D   ??1NMStaticBox@nmui@@UAE@XZ  (00097CB0)
                527  20E   ??1NMStaticBoxSizer@nmui@@UAE@XZ  (00057820)
                528  20F   ??1NMStaticText@nmui@@UAE@XZ  (00098640)
                529  210   ??1NMSwitchablePanel@nmui@@UAE@XZ  (000997E0)
                530  211   ??1NMTextRenameCtrl@nmui@@UAE@XZ  (0009E100)
                531  212   ??1NMTextRenameCtrlOwner@nmui@@QAE@XZ  (0009F7C0)
                532  213   ??1NMToolBar@nmui@@UAE@XZ  (000A39A0)
                533  214   ??1NMToolBarSeparator@nmui@@UAE@XZ  (000A1640)
                534  215   ??1NMToolEdgePanel@nmui@@UAE@XZ  (000A1A20)
                535  216   ??1NMToolPanel@nmui@@UAE@XZ  (000A1C10)
                536  217   ??1NMToolTitlePanel@nmui@@UAE@XZ  (000A1980)
                537  218   ??1NMTreeControlSelectionEventAggregator@nmui@@QAE@XZ  (000BAE10)
                538  219   ??1NMTreeControlSelectionEventDisabler@nmui@@QAE@XZ  (000B26D0)
                539  21A   ??1NMUIntSlider@nmui@@UAE@XZ  (000A3EF0)
                540  21B   ??1NMUserDataDropTarget@nmui@@UAE@XZ  (00034BF0)
                541  21C   ??1NMUserDataObject@nmui@@UAE@XZ  (0004D9A0)
                542  21D   ??1NMWhileNoPopupPanelCaptureEvents@nmui@@QAE@XZ  (0007C610)
                543  21E   ??1NavigatorGroup@nmui@@UAE@XZ  (00034E10)
                544  21F   ??1NavigatorItemType@nmui@@UAE@XZ  (00034AA0)
                545  220   ??1NavigatorTree@nmui@@UAE@XZ  (00037660)
                546  221   ??1NavigatorTreeItem@nmui@@UAE@XZ  (00034D90)
                547  222   ??1NoButtonDown@NMColumnWindowStates@nmui@@UAE@XZ  (00042000)
                548  223   ??1Notebook@nmui@@UAE@XZ  (00071E00)
                549  224   ??1NotebookEvent@nmui@@UAE@XZ  (0006C000)
                550  225   ??1NotebookWindowData@nmui@@QAE@XZ  (0006AF90)
                551  226   ??1Panel@nmui@@UAE@XZ  (000A5BB0)
                552  227   ??1PanelBorder@nmui@@UAE@XZ  (000095F0)
                553  228   ??1PanelBuilder@nmui@@UAE@XZ  (000A9CC0)
                554  229   ??1PopupMenu@nmui@@UAE@XZ  (00079320)
                555  22A   ??1PopupPanel@nmui@@UAE@XZ  (0007C370)
                556  22B   ??1PopupPanelSafeDismissContext@nmui@@QAE@XZ  (0007C5B0)
                557  22C   ??1RawGLCanvas@nmui@@UAE@XZ  (000AC1D0)
                558  22D   ??1ResourceChangeContext@nmui@@QAE@XZ  (0001FAD0)
                559  22E   ??1ResourceManagerThreadHelper@nmui@@UAE@XZ  (00016390)
                560  22F   ??1ResourceObserver@nmui@@UAE@XZ  (00016430)
                561  230   ??1ScrollDownState@nmui@@UAE@XZ  (00046FE0)
                562  231   ??1ScrollPageDownState@nmui@@UAE@XZ  (00046FE0)
                563  232   ??1ScrollPageUpState@nmui@@UAE@XZ  (00046FE0)
                564  233   ??1ScrollUpState@nmui@@UAE@XZ  (00046FE0)
                565  234   ??1SelectionBorder@nmui@@UAE@XZ  (000095F0)
                566  235   ??1Slider@nmui@@UAE@XZ  (000910C0)
                567  236   ??1SpinButton@nmui@@UAE@XZ  (00092280)
                568  237   ??1StackLogger@nmui@@UAE@XZ  (00001D70)
                569  238   ??1StateManager@nmui@@UAE@XZ  (00014410)
                570  239   ??1TaskList@nmui@@QAE@XZ  (0009A6A0)
                571  23A   ??1TaskListDialog@nmui@@UAE@XZ  (0009A460)
                572  23B   ??1TaskListItem@nmui@@UAE@XZ  (00099D60)
                573  23C   ??1TaskListItemBase@nmui@@UAE@XZ  (00099A30)
                574  23D   ??1TaskListObserver@nmui@@UAE@XZ  (00099C30)
                575  23E   ??1TextControl@nmui@@UAE@XZ  (000AEC90)
                576  23F   ??1ThumbDragState@nmui@@UAE@XZ  (000463E0)
                577  240   ??1TreeControl@nmui@@UAE@XZ  (000BCC90)
                578  241   ??1TreeEvent@nmui@@UAE@XZ  (000B75B0)
                579  242   ??1TreeItem@nmui@@UAE@XZ  (000BC650)
                580  243   ??1TreeItemCompareAlphabetically@nmui@@UAE@XZ  (0000D140)
                581  244   ??1TreeItemCompareSpatially@nmui@@UAE@XZ  (0000D140)
                582  245   ??1TreeItemCompareStrategy@nmui@@UAE@XZ  (000B0C80)
                583  246   ??1TreeItemData@nmui@@UAE@XZ  (000B0CF0)
                584  247   ??1TreeItemPredicate@nmui@@UAE@XZ  (0000CCB0)
                585  248   ??1TreeLabelPredicate@nmui@@UAE@XZ  (0000CCB0)
                586  249   ??1TreeState@TreeControlStates@nmui@@UAE@XZ  (000798B0)
                587  24A   ??1WaitState@TreeControlStates@nmui@@UAE@XZ  (000B0B80)
                588  24B   ??1Window@nmui@@UAE@XZ  (000A4CE0)
                589  24C   ??1WindowEvent@nmui@@UAE@XZ  (000097E0)
                590  24D   ??1WindowFreezer@nmui@@QAE@XZ  (00001D50)
                591  24E   ??1WindowPannedEvent@nmui@@UAE@XZ  (00026760)
                592  24F   ??1WindowScaledEvent@nmui@@UAE@XZ  (00026760)
                593  250   ??1nmuiCondition@nmui@@UAE@XZ  (00034130)
                594  251   ??1nmuiMonitor@nmui@@UAE@XZ  (000343B0)
                595  252   ??1win32Condition@nmui@@UAE@XZ  (000347A0)
                596  253   ??1win32Monitor@nmui@@UAE@XZ  (00034710)
                597  254   ??1win32Semaphore@nmui@@UAE@XZ  (00034680)
                598  255   ??1wxEventDisabler@nmui@@UAE@XZ  (00004390)
                599  256   ??1wxEventInterceptor@nmui@@UAE@XZ  (000C0200)
                600  257   ??1wxStyledTextCtrl@@UAE@XZ  (000C5460)
                601  258   ??1wxStyledTextEvent@@UAE@XZ  (000282D0)
                602  259   ??4AppMainLoopRedrawClient@nmui@@QAEAAV01@ABV01@@Z  (00027B30)
                603  25A   ??4AppMainLoopTimerClient@nmui@@QAEAAV01@ABV01@@Z  (00027B30)
                604  25B   ??4AutoCompleteDictionary@nmui@@QAEAAV01@ABV01@@Z  (00005170)
                605  25C   ??4AutoCompleteDictionaryObserver@nmui@@QAEAAV01@ABV01@@Z  (00027B30)
                606  25D   ??4CellRenderer@nmui@@QAEAAV01@ABV01@@Z  (0003B9E0)
                607  25E   ??4ColourShader@nmui@@QAEAAV01@ABV01@@Z  (00006F60)
                608  25F   ??4Condition@nmui@@QAEAAV01@ABV01@@Z  (00027B30)
                609  260   ??4CustomResourceData@nmui@@QAEAAV01@ABV01@@Z  (00027B30)
                610  261   ??4DirectoryWatchObserver@nmui@@QAEAAV01@ABV01@@Z  (00027B30)
                611  262   ??4EATRenderCallback@nmui@@QAEAAV01@ABV01@@Z  (00027B30)
                612  263   ??4FileHistory@nmui@@QAEAAV01@ABV01@@Z  (00050200)
                613  264   ??4FilteredResourceObserver@nmui@@QAEAAV01@ABV01@@Z  (00017960)
                614  265   ??4FilteredResourcePredicate@nmui@@QAEAAV01@ABV01@@Z  (00027B30)
                615  266   ??4GUIServices@nmui@@QAEAAV01@ABV01@@Z  (00008DD0)
                616  267   ??4GuiNode@nmui@@QAEAAV01@ABV01@@Z  (00022100)
                617  268   ??4GuiNodeData@nmui@@QAEAAV01@ABV01@@Z  (00027B30)
                618  269   ??4GuiNodeEvent@nmui@@QAEAAV01@ABV01@@Z  (00022250)
                619  26A   ??4GuiNodeHoverState@nmui@@QAEAAV01@ABV01@@Z  (000222A0)
                620  26B   ??4GuiNodeManager@nmui@@QAEAAV01@ABV01@@Z  (000223C0)
                621  26C   ??4GuiNodeState@nmui@@QAEAAV01@ABV01@@Z  (000222A0)
                622  26D   ??4GuiNodeStateMachine@nmui@@QAEAAV01@ABV01@@Z  (000222E0)
                623  26E   ??4GuiNodeStateManager@nmui@@QAEAAV01@ABV01@@Z  (00022300)
                624  26F   ??4GuiNodeTransform@nmui@@QAEABV01@ABV01@@Z  (00022920)
                625  270   ??4GuiNodeTraverseVisitor@nmui@@QAEAAV01@ABV01@@Z  (000098A0)
                626  271   ??4GuiNodeUI@nmui@@QAEAAV01@ABV01@@Z  (00027B30)
                627  272   ??4GuiNodeVisitor@nmui@@QAEAAV01@ABV01@@Z  (00027B30)
                628  273   ??4GuiNodeWindowBase@nmui@@QAEAAV01@ABV01@@Z  (00025530)
                629  274   ??4LeftClickDragDropStateMachine@nmui@@QAEAAV01@ABV01@@Z  (000222E0)
                630  275   ??4LuaArgumentProcessor@nmui@@QAEAAV01@ABV01@@Z  (00031D90)
                631  276   ??4Menu@nmui@@QAEAAV01@ABV01@@Z  (00067980)
                632  277   ??4MenuItem@nmui@@QAEAAV01@ABV01@@Z  (00027830)
                633  278   ??4MessageBoxLogger@nmui@@QAEAAV01@ABV01@@Z  (00033C20)
                634  279   ??4Monitor@nmui@@QAEAAV01@ABV01@@Z  (00034020)
                635  27A   ??4MonitorLocker@nmui@@AAEAAV01@ABV01@@Z  (00027B30)
                636  27B   ??4NMColumnItemAttr@nmui@@QAEABV01@ABV01@@Z  (0000C620)
                637  27C   ??4NMDnDClient@nmui@@QAEAAV01@ABV01@@Z  (00027B30)
                638  27D   ??4NMDnDData@nmui@@QAEAAV01@ABV01@@Z  (00034BD0)
                639  27E   ??4NMExpFloatRange@nmui@@QAEAAV01@ABV01@@Z  (0004E490)
                640  27F   ??4NMFileLocator@nmui@@QAEAAV01@ABV01@@Z  (000519A0)
                641  280   ??4NMListControlSelectionEventAggregator@nmui@@QAEAAV01@ABV01@@Z  (00027BA0)
                642  281   ??4NMListControlSelectionEventDisabler@nmui@@QAEAAV01@ABV01@@Z  (00027BA0)
                643  282   ??4NMListItemCompareStrategy@nmui@@QAEAAV01@ABV01@@Z  (000222A0)
                644  283   ??4NMListItemCompareStrategyAlphabetical@nmui@@QAEAAV01@ABV01@@Z  (00027A50)
                645  284   ??4NMListItemCompareStrategyInteger@nmui@@QAEAAV01@ABV01@@Z  (00027A50)
                646  285   ??4NMListItemCompareStrategySpatial@nmui@@QAEAAV01@ABV01@@Z  (000222A0)
                647  286   ??4NMListItemPredicate@nmui@@QAEAAV01@ABV01@@Z  (000222A0)
                648  287   ??4NMListItemUserData@nmui@@QAEAAV01@ABV01@@Z  (00027B30)
                649  288   ??4NMListItem_@nmui@@QAEAAV01@ABV01@@Z  (00031CA0)
                650  289   ??4NMMacroReplacement@nmui@@QAEAAV01@ABV01@@Z  (00065760)
                651  28A   ??4NMMacroReplacementTool@nmui@@QAEAAV01@ABV01@@Z  (00065790)
                652  28B   ??4NMPaletteItem@nmui@@QAEAAV01@ABV01@@Z  (00072880)
                653  28C   ??4NMProfilerMinMaxPeakStrategy@nmui@@QAEAAV01@ABV01@@Z  (0007D180)
                654  28D   ??4NMProfilerReportingStrategy@nmui@@QAEAAV01@ABV01@@Z  (00027B30)
                655  28E   ??4NMSimpleGraphAxes@nmui@@QAEAAV01@ABV01@@Z  (0008C840)
                656  28F   ??4NMStaticBoxSizer@nmui@@QAEAAV01@ABV01@@Z  (00057860)
                657  290   ??4NMTextRenameCtrlOwner@nmui@@QAEAAV01@ABV01@@Z  (000098A0)
                658  291   ??4NMTreeControlSelectionEventAggregator@nmui@@QAEAAV01@ABV01@@Z  (00027BA0)
                659  292   ??4NMTreeControlSelectionEventDisabler@nmui@@QAEAAV01@ABV01@@Z  (00027BA0)
                660  293   ??4NMWhileNoPopupPanelCaptureEvents@nmui@@QAEAAV01@ABV01@@Z  (00027BA0)
                661  294   ??4NavigatorGroup@nmui@@QAEAAV01@ABV01@@Z  (000222E0)
                662  295   ??4NavigatorItemType@nmui@@QAEAAV01@ABV01@@Z  (00027B30)
                663  296   ??4NotebookBase@nmui@@QAEAAV01@ABV01@@Z  (00027B30)
                664  297   ??4NotebookWindowData@nmui@@QAEAAU01@ABU01@@Z  (0006B130)
                665  298   ??4PanelBorder@nmui@@QAEAAV01@ABV01@@Z  (00027B30)
                666  299   ??4PanelBuilder@nmui@@QAEAAV01@ABV01@@Z  (000098A0)
                667  29A   ??4PopupPanelSafeDismissContext@nmui@@QAEAAV01@ABV01@@Z  (00027BA0)
                668  29B   ??4ResourceChangeContext@nmui@@QAEAAV01@AAV01@@Z  (0001A730)
                669  29C   ??4ResourceObserver@nmui@@QAEAAV01@ABV01@@Z  (00027B30)
                670  29D   ??4SelectionBorder@nmui@@QAEAAV01@ABV01@@Z  (000096A0)
                671  29E   ??4StackLogger@nmui@@QAEAAV01@ABV01@@Z  (000222A0)
                672  29F   ??4TaskList@nmui@@QAEAAV01@ABV01@@Z  (0009A9C0)
                673  2A0   ??4TaskListItem@nmui@@QAEAAV01@ABV01@@Z  (00099BE0)
                674  2A1   ??4TaskListItemBase@nmui@@QAEAAV01@ABV01@@Z  (00027B30)
                675  2A2   ??4TaskListObserver@nmui@@QAEAAV01@ABV01@@Z  (00027B30)
                676  2A3   ??4TreeItemCompareAlphabetically@nmui@@QAEAAV01@ABV01@@Z  (000098A0)
                677  2A4   ??4TreeItemCompareSpatially@nmui@@QAEAAV01@ABV01@@Z  (00027B30)
                678  2A5   ??4TreeItemCompareStrategy@nmui@@QAEAAV01@ABV01@@Z  (00027B30)
                679  2A6   ??4TreeItemData@nmui@@QAEAAV01@ABV01@@Z  (00027B30)
                680  2A7   ??4TreeItemPredicate@nmui@@QAEAAV01@ABV01@@Z  (00027B30)
                681  2A8   ??4TreeLabelPredicate@nmui@@QAEAAV01@ABV01@@Z  (000222A0)
                682  2A9   ??4WindowFreezer@nmui@@QAEAAV01@ABV01@@Z  (00027BA0)
                683  2AA   ??4_Init_locks@std@@QAEAAV01@ABV01@@Z  (000F2F80)
                684  2AB   ??4win32Condition@nmui@@QAEAAV01@ABV01@@Z  (000342D0)
                685  2AC   ??4win32Monitor@nmui@@QAEAAV01@ABV01@@Z  (000342A0)
                686  2AD   ??4win32Semaphore@nmui@@QAEAAV01@ABV01@@Z  (000222A0)
                687  2AE   ??8NMColumnItemAttr@nmui@@QAE_NABV01@@Z  (0000C5B0)
                688  2AF   ??_7AppMainLoop@nmui@@6B@  (0010D24C)
                689  2B0   ??_7AppMainLoopRedrawClient@nmui@@6B@  (0010D1FC)
                690  2B1   ??_7AppMainLoopTimerClient@nmui@@6B@  (0010D1EC)
                691  2B2   ??_7AutoCompleteDictionary@nmui@@6B@  (0010D624)
                692  2B3   ??_7AutoCompleteDictionaryObserver@nmui@@6B@  (0010D61C)
                693  2B4   ??_7BaseState@nmui@@6B@  (0010F64C)
                694  2B5   ??_7Button@nmui@@6BColourSchemeClient@1@@  (0010E3C4)
                695  2B6   ??_7Button@nmui@@6BwxWindow@@@  (0010E3CC)
                696  2B7   ??_7CellRenderer@nmui@@6B@  (0011477C)
                697  2B8   ??_7CheckBox@nmui@@6BColourSchemeClient@1@@  (001147FC)
                698  2B9   ??_7CheckBox@nmui@@6BwxWindow@@@  (00114804)
                699  2BA   ??_7CheckBoxEvent@nmui@@6B@  (001147C0)
                700  2BB   ??_7Condition@nmui@@6B@  (00112010)
                701  2BC   ??_7CustomResourceData@nmui@@6B@  (00110164)
                702  2BD   ??_7Dialog@nmui@@6BColourSchemeClient@1@@  (00117AA0)
                703  2BE   ??_7Dialog@nmui@@6BwxDialogBase@@@  (00117AAC)
                704  2BF   ??_7DirectoryControl@nmui@@6BColourSchemeClient@1@@  (0010E984)
                705  2C0   ??_7DirectoryControl@nmui@@6BwxWindow@@@  (0010E98C)
                706  2C1   ??_7DirectoryWatch@nmui@@6B@  (0010EE7C)
                707  2C2   ??_7DirectoryWatchBase@nmui@@6B@  (0010EDCC)
                708  2C3   ??_7DirectoryWatchObserver@nmui@@6B@  (0010ED60)
                709  2C4   ??_7DirectoryWatchTreeView@nmui@@6BColourSchemeClient@1@@  (0010F204)
                710  2C5   ??_7DirectoryWatchTreeView@nmui@@6BDirectoryWatchObserver@1@@  (0010F1CC)
                711  2C6   ??_7DirectoryWatchTreeView@nmui@@6BTreeControl@1@@  (0010F1F4)
                712  2C7   ??_7DirectoryWatchTreeView@nmui@@6BwxWindow@@@  (0010F20C)
                713  2C8   ??_7DragColumnState@NMColumnWindowStates@nmui@@6B@  (00115CC4)
                714  2C9   ??_7DragFrameMarkerState@NMSimpleGraphStates@nmui@@6B@  (0012736C)
                715  2CA   ??_7DragSelectState@NMListControlStates@nmui@@6B@  (0011AE3C)
                716  2CB   ??_7DragState@NMListControlStates@nmui@@6B@  (0011ADCC)
                717  2CC   ??_7DragState@TreeControlStates@nmui@@6B@  (0012C94C)
                718  2CD   ??_7DragValueMarkerState@NMSimpleGraphStates@nmui@@6B@  (001273DC)
                719  2CE   ??_7EATRenderCallback@nmui@@6B@  (0012BC8C)
                720  2CF   ??_7FSMState@nmui@@6B@  (0010E2F8)
                721  2D0   ??_7FileHistory@nmui@@6B@  (001189DC)
                722  2D1   ??_7FileResourceManager@nmui@@6B@  (00110204)
                723  2D2   ??_7FilenameControl@nmui@@6BColourSchemeClient@1@@  (0010FE04)
                724  2D3   ??_7FilenameControl@nmui@@6BwxWindow@@@  (0010FE0C)
                725  2D4   ??_7FilteredResourceObserver@nmui@@6B@  (001101D4)
                726  2D5   ??_7FilteredResourcePredicate@nmui@@6B@  (001101A0)
                727  2D6   ??_7FiniteStateMachine@nmui@@6B@  (0011052C)
                728  2D7   ??_7Frame@nmui@@6BColourSchemeClient@1@@  (0012B4F4)
                729  2D8   ??_7Frame@nmui@@6BwxFrame@@@  (0012B4FC)
                730  2D9   ??_7FullScreenFrame@nmui@@6BColourSchemeClient@1@@  (00122898)
                731  2DA   ??_7FullScreenFrame@nmui@@6BwxDialogBase@@@  (001228A4)
                732  2DB   ??_7GUIServices@nmui@@6B@  (0010E37C)
                733  2DC   ??_7GuiController@nmui@@6B@  (0011059C)
                734  2DD   ??_7GuiNodeData@nmui@@6B@  (001105FC)
                735  2DE   ??_7GuiNodeHoverState@nmui@@6B@  (0011069C)
                736  2DF   ??_7GuiNodeManager@nmui@@6B@  (00110674)
                737  2E0   ??_7GuiNodeState@nmui@@6B@  (0011062C)
                738  2E1   ??_7GuiNodeStateMachine@nmui@@6B@  (0011066C)
                739  2E2   ??_7GuiNodeTraverseVisitor@nmui@@6B@  (001108E0)
                740  2E3   ??_7GuiNodeUI@nmui@@6B@  (0011061C)
                741  2E4   ??_7GuiNodeVisitor@nmui@@6B@  (0011067C)
                742  2E5   ??_7GuiNodeWindow@nmui@@6B@  (00110994)
                743  2E6   ??_7GuiNodeWindow@nmui@@6BColourSchemeClient@1@@  (001109A4)
                744  2E7   ??_7GuiNodeWindow@nmui@@6BwxWindow@@@  (001109AC)
                745  2E8   ??_7GuiNodeWindowBase@nmui@@6B@  (00110984)
                746  2E9   ??_7GuiNodeWindowGdiPlus@nmui@@6B@  (00110F78)
                747  2EA   ??_7GuiNodeWindowGdiPlus@nmui@@6BColourSchemeClient@1@@  (00110F88)
                748  2EB   ??_7GuiNodeWindowGdiPlus@nmui@@6BwxWindow@@@  (00110F94)
                749  2EC   ??_7GuiState@nmui@@6B@  (0010E30C)
                750  2ED   ??_7HoverState@NMListControlStates@nmui@@6B@  (0011B36C)
                751  2EE   ??_7HoverState@NMSimpleGraphStates@nmui@@6B@  (001272FC)
                752  2EF   ??_7HoverState@nmui@@6B@  (00116BD4)
                753  2F0   ??_7LeftClickDragDropStateMachine@nmui@@6B@  (001108F4)
                754  2F1   ??_7LuaArgumentProcessor@nmui@@6B@  (00111F34)
                755  2F2   ??_7LuaSyntaxCheckEvent@nmui@@6B@  (00111BD4)
                756  2F3   ??_7Menu@nmui@@6B@  (0011B3E8)
                757  2F4   ??_7MenuBar@nmui@@6BColourSchemeClient@1@@  (0011B578)
                758  2F5   ??_7MenuBar@nmui@@6BwxWindow@@@  (0011B584)
                759  2F6   ??_7MenuItem@nmui@@6B@  (0011B3DC)
                760  2F7   ??_7MessageBoxLogger@nmui@@6B@  (00111FD4)
                761  2F8   ??_7Monitor@nmui@@6B@  (00112000)
                762  2F9   ??_7MouseDragDownState@nmui@@6B@  (00116D24)
                763  2FA   ??_7MouseDragUpState@nmui@@6B@  (00116CB4)
                764  2FB   ??_7NMBusyBar@nmui@@6BColourSchemeClient@1@@  (001140FC)
                765  2FC   ??_7NMBusyBar@nmui@@6BwxWindow@@@  (00114104)
                766  2FD   ??_7NMCheckListDialog@nmui@@6BColourSchemeClient@1@@  (00114B3C)
                767  2FE   ??_7NMCheckListDialog@nmui@@6BwxDialogBase@@@  (00114B44)
                768  2FF   ??_7NMColourLegend@nmui@@6BColourSchemeClient@1@@  (00114EC4)
                769  300   ??_7NMColourLegend@nmui@@6BwxWindow@@@  (00114ECC)
                770  301   ??_7NMColourSwatch@nmui@@6BColourSchemeClient@1@@  (001151C8)
                771  302   ??_7NMColourSwatch@nmui@@6BwxWindow@@@  (001151D4)
                772  303   ??_7NMColumnWindow@nmui@@6BColourSchemeClient@1@@  (00115DC8)
                773  304   ??_7NMColumnWindow@nmui@@6BwxWindow@@@  (00115DD4)
                774  305   ??_7NMColumnWindowEvent@nmui@@6B@  (00115D6C)
                775  306   ??_7NMColumnWindowState@NMColumnWindowStates@nmui@@6B@  (00115C54)
                776  307   ??_7NMComboBox@nmui@@6BColourSchemeClient@1@@  (00117048)
                777  308   ??_7NMComboBox@nmui@@6BwxWindow@@@  (00117054)
                778  309   ??_7NMComboBoxButton@nmui@@6BColourSchemeClient@1@@  (0011630C)
                779  30A   ??_7NMComboBoxButton@nmui@@6BwxWindow@@@  (00116314)
                780  30B   ??_7NMComboBoxListCtrl@nmui@@6B@  (001168DC)
                781  30C   ??_7NMComboBoxState@nmui@@6B@  (0011629C)
                782  30D   ??_7NMComboBoxTextCtrl@nmui@@6B@  (001165EC)
                783  30E   ??_7NMComboBoxTextCtrl@nmui@@6BColourSchemeClient@1@@  (001165F4)
                784  30F   ??_7NMComboBoxTextCtrl@nmui@@6BwxWindow@@@  (001165FC)
                785  310   ??_7NMCppTextControl@nmui@@6B@  (001173C4)
                786  311   ??_7NMDnDClient@nmui@@6B@  (001123D4)
                787  312   ??_7NMExpFloatSlider@nmui@@6BColourSchemeClient@1@@  (00118214)
                788  313   ??_7NMExpFloatSlider@nmui@@6BwxWindow@@@  (0011821C)
                789  314   ??_7NMFastBufferedDC@nmui@@6B@  (0011885C)
                790  315   ??_7NMFilterCtrl@nmui@@6B@  (00118A0C)
                791  316   ??_7NMFilterCtrl@nmui@@6BColourSchemeClient@1@@  (00118A14)
                792  317   ??_7NMFilterCtrl@nmui@@6BwxWindow@@@  (00118A1C)
                793  318   ??_7NMFloatSlider@nmui@@6BColourSchemeClient@1@@  (00118D34)
                794  319   ??_7NMFloatSlider@nmui@@6BwxWindow@@@  (00118D3C)
                795  31A   ??_7NMFloatSpinner@nmui@@6BColourSchemeClient@1@@  (00119048)
                796  31B   ??_7NMFloatSpinner@nmui@@6BwxWindow@@@  (00119054)
                797  31C   ??_7NMFrameRateControl@nmui@@6BColourSchemeClient@1@@  (00119364)
                798  31D   ??_7NMFrameRateControl@nmui@@6BwxWindow@@@  (0011936C)
                799  31E   ??_7NMIconBar@nmui@@6BColourSchemeClient@1@@  (001196D4)
                800  31F   ??_7NMIconBar@nmui@@6BwxWindow@@@  (001196DC)
                801  320   ??_7NMIconBarEvent@nmui@@6B@  (001199C0)
                802  321   ??_7NMIconBarSlots@nmui@@6BColourSchemeClient@1@@  (001199FC)
                803  322   ??_7NMIconBarSlots@nmui@@6BwxWindow@@@  (00119A04)
                804  323   ??_7NMIncrementalChoiceDialog@nmui@@6BColourSchemeClient@1@@  (0011A0DC)
                805  324   ??_7NMIncrementalChoiceDialog@nmui@@6BwxDialogBase@@@  (0011A0E4)
                806  325   ??_7NMIntSlider@nmui@@6BColourSchemeClient@1@@  (0011A738)
                807  326   ??_7NMIntSlider@nmui@@6BwxWindow@@@  (0011A744)
                808  327   ??_7NMIntSpinner@nmui@@6BColourSchemeClient@1@@  (0011AA50)
                809  328   ??_7NMIntSpinner@nmui@@6BwxWindow@@@  (0011AA5C)
                810  329   ??_7NMListControl@nmui@@6BColourSchemeClient@1@@  (0011AF64)
                811  32A   ??_7NMListControl@nmui@@6BwxWindow@@@  (0011AF6C)
                812  32B   ??_7NMListControlState@NMListControlStates@nmui@@6B@  (0011AD5C)
                813  32C   ??_7NMListEvent@nmui@@6B@  (0011AEE0)
                814  32D   ??_7NMListItemCompareStrategy@nmui@@6B@  (00111290)
                815  32E   ??_7NMListItemCompareStrategyAlphabetical@nmui@@6B@  (001112A8)
                816  32F   ??_7NMListItemCompareStrategyInteger@nmui@@6B@  (001112B4)
                817  330   ??_7NMListItemCompareStrategySpatial@nmui@@6B@  (0011129C)
                818  331   ??_7NMListItemPredicate@nmui@@6B@  (00111288)
                819  332   ??_7NMListItemUserData@nmui@@6B@  (001112C0)
                820  333   ??_7NMMenuBarFocusHelper@nmui@@6B@  (0011B3FC)
                821  334   ??_7NMMultipleDropTarget@nmui@@6B@  (00117EE4)
                822  335   ??_7NMPalette@nmui@@6BColourSchemeClient@1@@  (00123590)
                823  336   ??_7NMPalette@nmui@@6BwxWindow@@@  (0012359C)
                824  337   ??_7NMPaletteItem@nmui@@6B@  (0012303C)
                825  338   ??_7NMProfilerMinMaxPeakStrategy@nmui@@6B@  (00123FDC)
                826  339   ??_7NMProfilerReportingStrategy@nmui@@6B@  (00123FBC)
                827  33A   ??_7NMProfilerWindow@nmui@@6B@  (00123FFC)
                828  33B   ??_7NMProfilerWindow@nmui@@6BColourSchemeClient@1@@  (0012400C)
                829  33C   ??_7NMProfilerWindow@nmui@@6BwxWindow@@@  (00124014)
                830  33D   ??_7NMProgressBar@nmui@@6BColourSchemeClient@1@@  (00124498)
                831  33E   ??_7NMProgressBar@nmui@@6BwxWindow@@@  (001244A4)
                832  33F   ??_7NMProgressDialog@nmui@@6BColourSchemeClient@1@@  (0012479C)
                833  340   ??_7NMProgressDialog@nmui@@6BwxDialogBase@@@  (001247A4)
                834  341   ??_7NMRadioBox@nmui@@6BColourSchemeClient@1@@  (00124AF4)
                835  342   ??_7NMRadioBox@nmui@@6BwxWindow@@@  (00124AFC)
                836  343   ??_7NMRollupContainer@nmui@@6BColourSchemeClient@1@@  (001258B4)
                837  344   ??_7NMRollupContainer@nmui@@6BwxWindow@@@  (001258BC)
                838  345   ??_7NMRollupHeading@nmui@@6BColourSchemeClient@1@@  (00124E28)
                839  346   ??_7NMRollupHeading@nmui@@6BwxWindow@@@  (00124E34)
                840  347   ??_7NMRollupHeadingEvent@nmui@@6B@  (00124DEC)
                841  348   ??_7NMRollupSection@nmui@@6BColourSchemeClient@1@@  (00125488)
                842  349   ??_7NMRollupSection@nmui@@6BwxWindow@@@  (00125494)
                843  34A   ??_7NMRollupSectionEvent@nmui@@6B@  (00125878)
                844  34B   ??_7NMScriptControl@nmui@@6BLuaProcessor@1@@  (00125C50)
                845  34C   ??_7NMScriptControl@nmui@@6BTextControl@1@@  (00125C5C)
                846  34D   ??_7NMScrollBar@nmui@@6BColourSchemeClient@1@@  (00126260)
                847  34E   ??_7NMScrollBar@nmui@@6BwxWindow@@@  (0012626C)
                848  34F   ??_7NMScrollPanel@nmui@@6BColourSchemeClient@1@@  (00126B34)
                849  350   ??_7NMScrollPanel@nmui@@6BwxWindow@@@  (00126B3C)
                850  351   ??_7NMScrollWindow@nmui@@6BColourSchemeClient@1@@  (00126E4C)
                851  352   ??_7NMScrollWindow@nmui@@6BwxWindow@@@  (00126E54)
                852  353   ??_7NMSimpleGraph@nmui@@6BColourSchemeClient@1@@  (001274F0)
                853  354   ??_7NMSimpleGraph@nmui@@6BwxWindow@@@  (001274FC)
                854  355   ??_7NMSimpleGraphEvent@nmui@@6B@  (001274B0)
                855  356   ??_7NMSimpleGraphState@NMSimpleGraphStates@nmui@@6B@  (0012728C)
                856  357   ??_7NMSimpleMultiOptionDialog@nmui@@6BColourSchemeClient@1@@  (00127874)
                857  358   ??_7NMSimpleMultiOptionDialog@nmui@@6BwxDialogBase@@@  (0012787C)
                858  359   ??_7NMSimpleTextCtrl@nmui@@6B@  (00129BBC)
                859  35A   ??_7NMSimpleTextCtrl@nmui@@6BColourSchemeClient@1@@  (00129BC4)
                860  35B   ??_7NMSimpleTextCtrl@nmui@@6BwxWindow@@@  (00129BCC)
                861  35C   ??_7NMSimpleTextCtrlValidator@nmui@@6B@  (00129AFC)
                862  35D   ??_7NMSplash@nmui@@6B@  (00128184)
                863  35E   ??_7NMSplitter@nmui@@6BColourSchemeClient@1@@  (001112C8)
                864  35F   ??_7NMSplitter@nmui@@6BwxWindow@@@  (001112D4)
                865  360   ??_7NMSplitterEvent@nmui@@6B@  (001287C8)
                866  361   ??_7NMStaticBitmap@nmui@@6BColourSchemeClient@1@@  (00128ADC)
                867  362   ??_7NMStaticBitmap@nmui@@6BwxWindow@@@  (00128AE4)
                868  363   ??_7NMStaticBox@nmui@@6B@  (00119D3C)
                869  364   ??_7NMStaticBoxSizer@nmui@@6BwxClientDataContainer@@@  (0011A044)
                870  365   ??_7NMStaticBoxSizer@nmui@@6BwxObject@@@  (0011A05C)
                871  366   ??_7NMStaticText@nmui@@6BColourSchemeClient@1@@  (00128E00)
                872  367   ??_7NMStaticText@nmui@@6BwxWindow@@@  (00128E0C)
                873  368   ??_7NMSwitchablePanel@nmui@@6BColourSchemeClient@1@@  (001290E4)
                874  369   ??_7NMSwitchablePanel@nmui@@6BwxWindow@@@  (001290EC)
                875  36A   ??_7NMTextRenameCtrl@nmui@@6B@  (00129FCC)
                876  36B   ??_7NMTextRenameCtrl@nmui@@6BColourSchemeClient@1@@  (00129FD4)
                877  36C   ??_7NMTextRenameCtrl@nmui@@6BwxWindow@@@  (00129FDC)
                878  36D   ??_7NMTextRenameCtrlOwner@nmui@@6B@  (0010E3A4)
                879  36E   ??_7NMToolBar@nmui@@6BColourSchemeClient@1@@  (001115B8)
                880  36F   ??_7NMToolBar@nmui@@6BwxWindow@@@  (001115C4)
                881  370   ??_7NMToolBarSeparator@nmui@@6BColourSchemeClient@1@@  (0012A2EC)
                882  371   ??_7NMToolBarSeparator@nmui@@6BwxWindow@@@  (0012A2F4)
                883  372   ??_7NMToolEdgePanel@nmui@@6BColourSchemeClient@1@@  (0012A8AC)
                884  373   ??_7NMToolEdgePanel@nmui@@6BwxWindow@@@  (0012A8B4)
                885  374   ??_7NMToolPanel@nmui@@6BColourSchemeClient@1@@  (0012AB98)
                886  375   ??_7NMToolPanel@nmui@@6BwxWindow@@@  (0012ABA4)
                887  376   ??_7NMToolTitlePanel@nmui@@6BColourSchemeClient@1@@  (0012A5CC)
                888  377   ??_7NMToolTitlePanel@nmui@@6BwxWindow@@@  (0012A5D4)
                889  378   ??_7NMUIntSlider@nmui@@6BColourSchemeClient@1@@  (0012AEFC)
                890  379   ??_7NMUIntSlider@nmui@@6BwxWindow@@@  (0012AF04)
                891  37A   ??_7NMUserDataDropTarget@nmui@@6B@  (00117EC0)
                892  37B   ??_7NMUserDataObject@nmui@@6B@  (00117E94)
                893  37C   ??_7NavigatorGroup@nmui@@6B@  (001123B4)
                894  37D   ??_7NavigatorItemType@nmui@@6B@  (00112374)
                895  37E   ??_7NavigatorTree@nmui@@6B@  (001123E0)
                896  37F   ??_7NavigatorTree@nmui@@6BColourSchemeClient@1@@  (001123F0)
                897  380   ??_7NavigatorTree@nmui@@6BwxWindow@@@  (001123FC)
                898  381   ??_7NavigatorTreeItem@nmui@@6B@  (001127EC)
                899  382   ??_7NoButtonDown@NMColumnWindowStates@nmui@@6BNMColumnWindowState@12@@  (001161A4)
                900  383   ??_7NoButtonDown@NMColumnWindowStates@nmui@@6BwxEvtHandler@@@  (00116214)
                901  384   ??_7Notebook@nmui@@6B@  (00122C4C)
                902  385   ??_7Notebook@nmui@@6BColourSchemeClient@1@@  (00122CD0)
                903  386   ??_7Notebook@nmui@@6BwxWindow@@@  (00122CDC)
                904  387   ??_7NotebookBase@nmui@@6B@  (001222DC)
                905  388   ??_7NotebookEvent@nmui@@6B@  (0012285C)
                906  389   ??_7Panel@nmui@@6BColourSchemeClient@1@@  (0012B8A4)
                907  38A   ??_7Panel@nmui@@6BwxWindow@@@  (0012B8AC)
                908  38B   ??_7PanelBorder@nmui@@6B@  (0010E384)
                909  38C   ??_7PanelBuilder@nmui@@6B@  (00114B18)
                910  38D   ??_7PopupMenu@nmui@@6B@  (0012390C)
                911  38E   ??_7PopupPanel@nmui@@6BColourSchemeClient@1@@  (00123C68)
                912  38F   ??_7PopupPanel@nmui@@6BwxDialogBase@@@  (00123C74)
                913  390   ??_7RawGLCanvas@nmui@@6B@  (0012BC9C)
                914  391   ??_7ResourceManagerThreadHelper@nmui@@6B@  (0011016C)
                915  392   ??_7ResourceObserver@nmui@@6B@  (00110184)
                916  393   ??_7ScrollDownState@nmui@@6B@  (00116E04)
                917  394   ??_7ScrollPageDownState@nmui@@6B@  (00116EE4)
                918  395   ??_7ScrollPageUpState@nmui@@6B@  (00116E74)
                919  396   ??_7ScrollUpState@nmui@@6B@  (00116D94)
                920  397   ??_7SelectionBorder@nmui@@6B@  (0010E394)
                921  398   ??_7Slider@nmui@@6BColourSchemeClient@1@@  (00117F34)
                922  399   ??_7Slider@nmui@@6BwxWindow@@@  (00117F3C)
                923  39A   ??_7SpinButton@nmui@@6BColourSchemeClient@1@@  (00127BFC)
                924  39B   ??_7SpinButton@nmui@@6BwxWindow@@@  (00127C04)
                925  39C   ??_7StackLogger@nmui@@6B@  (0010D27C)
                926  39D   ??_7StateManager@nmui@@6B@  (0010FB1C)
                927  39E   ??_7TaskListDialog@nmui@@6B@  (00129450)
                928  39F   ??_7TaskListDialog@nmui@@6BColourSchemeClient@1@@  (0012946C)
                929  3A0   ??_7TaskListDialog@nmui@@6BwxDialogBase@@@  (00129474)
                930  3A1   ??_7TaskListItem@nmui@@6B@  (00129414)
                931  3A2   ??_7TaskListItemBase@nmui@@6B@  (001293F4)
                932  3A3   ??_7TaskListObserver@nmui@@6B@  (00129434)
                933  3A4   ??_7TextControl@nmui@@6B@  (0012C044)
                934  3A5   ??_7ThumbDragState@nmui@@6B@  (00116C44)
                935  3A6   ??_7TreeControl@nmui@@6B@  (0012C494)
                936  3A7   ??_7TreeControl@nmui@@6BColourSchemeClient@1@@  (0012C4A4)
                937  3A8   ??_7TreeControl@nmui@@6BwxWindow@@@  (0012C4AC)
                938  3A9   ??_7TreeEvent@nmui@@6B@  (0012C434)
                939  3AA   ??_7TreeItem@nmui@@6B@  (0012C864)
                940  3AB   ??_7TreeItemCompareAlphabetically@nmui@@6B@  (0010F0F0)
                941  3AC   ??_7TreeItemCompareSpatially@nmui@@6B@  (0010F0FC)
                942  3AD   ??_7TreeItemCompareStrategy@nmui@@6B@  (0010F0E4)
                943  3AE   ??_7TreeItemData@nmui@@6B@  (0010F108)
                944  3AF   ??_7TreeItemPredicate@nmui@@6B@  (0010F0D8)
                945  3B0   ??_7TreeLabelPredicate@nmui@@6B@  (0010F110)
                946  3B1   ??_7TreeState@TreeControlStates@nmui@@6B@  (0012C3B4)
                947  3B2   ??_7WaitState@TreeControlStates@nmui@@6B@  (0012C8DC)
                948  3B3   ??_7Window@nmui@@6BColourSchemeClient@1@@  (0012B214)
                949  3B4   ??_7Window@nmui@@6BwxWindow@@@  (0012B21C)
                950  3B5   ??_7WindowEvent@nmui@@6B@  (0012B868)
                951  3B6   ??_7WindowPannedEvent@nmui@@6B@  (00110E5C)
                952  3B7   ??_7WindowScaledEvent@nmui@@6B@  (00110E98)
                953  3B8   ??_7nmuiCondition@nmui@@6B@  (00112024)
                954  3B9   ??_7nmuiMonitor@nmui@@6B@  (0011205C)
                955  3BA   ??_7win32Condition@nmui@@6B@  (00112358)
                956  3BB   ??_7win32Monitor@nmui@@6B@  (0011204C)
                957  3BC   ??_7win32Semaphore@nmui@@6B@  (00112038)
                958  3BD   ??_7wxEventDisabler@nmui@@6B@  (0010D45C)
                959  3BE   ??_7wxEventInterceptor@nmui@@6B@  (0012C9BC)
                960  3BF   ??_7wxStyledTextCtrl@@6B@  (001118AC)
                961  3C0   ??_7wxStyledTextEvent@@6B@  (00111B98)
                962  3C1   ??_FAutoCompleteDictionary@nmui@@QAEXXZ  (00005A30)
                963  3C2   ??_FCheckBoxEvent@nmui@@QAEXXZ  (0003C1D0)
                964  3C3   ??_FFilenameControl@nmui@@QAEXXZ  (00014D30)
                965  3C4   ??_FFilteredResourceObserver@nmui@@QAEXXZ  (0001A780)
                966  3C5   ??_FGuiNode@nmui@@QAEXXZ  (00022EF0)
                967  3C6   ??_FLuaArgumentProcessor@nmui@@QAEXXZ  (00033390)
                968  3C7   ??_FMenu@nmui@@QAEXXZ  (000278D0)
                969  3C8   ??_FMessageBoxLogger@nmui@@QAEXXZ  (00033D80)
                970  3C9   ??_FMonitor@nmui@@QAEXXZ  (00034860)
                971  3CA   ??_FNMColumnWindowEvent@nmui@@QAEXXZ  (0000C690)
                972  3CB   ??_FNMFileLocator@nmui@@QAEXXZ  (00051710)
                973  3CC   ??_FNMIconBarEvent@nmui@@QAEXXZ  (000557C0)
                974  3CD   ??_FNMListControl@nmui@@QAEXXZ  (00027C40)
                975  3CE   ??_FNMListEvent@nmui@@QAEXXZ  (00027D40)
                976  3CF   ??_FNMListItemCompareStrategyAlphabetical@nmui@@QAEXXZ  (00027A70)
                977  3D0   ??_FNMListItemCompareStrategyInteger@nmui@@QAEXXZ  (00027AB0)
                978  3D1   ??_FNMMacroReplacementTool@nmui@@QAEXXZ  (00065AF0)
                979  3D2   ??_FNMRollupHeadingEvent@nmui@@QAEXXZ  (00081610)
                980  3D3   ??_FNMRollupSectionEvent@nmui@@QAEXXZ  (000832B0)
                981  3D4   ??_FNMSimpleGraphEvent@nmui@@QAEXXZ  (0008D0E0)
                982  3D5   ??_FNMSimpleTextCtrlValidator@nmui@@QAEXXZ  (0003C9E0)
                983  3D6   ??_FNMSplitterEvent@nmui@@QAEXXZ  (00027FE0)
                984  3D7   ??_FNotebookEvent@nmui@@QAEXXZ  (0006C040)
                985  3D8   ??_FSelectionBorder@nmui@@QAEXXZ  (000096B0)
                986  3D9   ??_FTreeEvent@nmui@@QAEXXZ  (0000CC80)
                987  3DA   ??_FTreeItemCompareAlphabetically@nmui@@QAEXXZ  (0000C8B0)
                988  3DB   ??_FWindowEvent@nmui@@QAEXXZ  (000097F0)
                989  3DC   ??_FWindowPannedEvent@nmui@@QAEXXZ  (00025600)
                990  3DD   ??_FWindowScaledEvent@nmui@@QAEXXZ  (00025650)
                991  3DE   ??_FnmuiMonitor@nmui@@QAEXXZ  (00034880)
                992  3DF   ??_Fwin32Monitor@nmui@@QAEXXZ  (00034950)
                993  3E0   ??_FwxStyledTextEvent@@QAEXXZ  (000285F0)
                994  3E1   ?ACLDirectoryCreationResultToString@nmui@@YAPB_WW4ACLDirectoryCreationResult@1@@Z  (00037AC0)
                995  3E2   ?ALWAYS@MessageBoxLogger@nmui@@2IB  (00111FCC)
                996  3E3   ?AcceptsFocus@Button@nmui@@UBE_NXZ  (00028160)
                997  3E4   ?AcceptsFocus@NMBusyBar@nmui@@UBE_NXZ  (00028160)
                998  3E5   ?AcceptsFocus@NMColourSwatch@nmui@@UBE_NXZ  (0003E990)
                999  3E6   ?AcceptsFocus@NMComboBoxButton@nmui@@MBE_NXZ  (00028160)
               1000  3E7   ?AcceptsFocus@NMComboBoxTextCtrl@nmui@@UBE_NXZ  (000095C0)
               1001  3E8   ?AcceptsFocus@NMProgressBar@nmui@@UBE_NXZ  (00028160)
               1002  3E9   ?AcceptsFocus@NMRollupHeading@nmui@@UBE_NXZ  (00080D20)
               1003  3EA   ?AcceptsFocus@NMScrollBar@nmui@@UBE_NXZ  (00028160)
               1004  3EB   ?AcceptsFocus@NMScrollPanel@nmui@@UBE_NXZ  (00089C10)
               1005  3EC   ?AcceptsFocus@NMSimpleTextCtrl@nmui@@UBE_NXZ  (00009840)
               1006  3ED   ?AcceptsFocus@NMStaticText@nmui@@UBE_NXZ  (00028160)
               1007  3EE   ?AcceptsFocus@NMToolBar@nmui@@UBE_NXZ  (00028160)
               1008  3EF   ?AcceptsFocus@NMToolBarSeparator@nmui@@UBE_NXZ  (00028160)
               1009  3F0   ?AcceptsFocus@NMToolEdgePanel@nmui@@UBE_NXZ  (00028160)
               1010  3F1   ?AcceptsFocus@NMToolTitlePanel@nmui@@UBE_NXZ  (00028160)
               1011  3F2   ?AcceptsFocus@Panel@nmui@@UBE_NXZ  (000A52A0)
               1012  3F3   ?AcceptsFocus@SpinButton@nmui@@UBE_NXZ  (00028160)
               1013  3F4   ?AcceptsFocus@Window@nmui@@UBE_NXZ  (000095D0)
               1014  3F5   ?AcceptsFocusFromKeyboard@Button@nmui@@UBE_NXZ  (000095C0)
               1015  3F6   ?AcceptsFocusFromKeyboard@NMColumnWindow@nmui@@MBE_NXZ  (00025890)
               1016  3F7   ?AcceptsFocusFromKeyboard@NMComboBoxButton@nmui@@MBE_NXZ  (00028160)
               1017  3F8   ?AcceptsFocusFromKeyboard@NMToolBar@nmui@@UBE_NXZ  (00025890)
               1018  3F9   ?AcceptsFocusFromKeyboard@NMToolEdgePanel@nmui@@UBE_NXZ  (000A1A40)
               1019  3FA   ?AddChild@NMScrollWindow@nmui@@MAEXPAVwxWindowBase@@@Z  (0008AD50)
               1020  3FB   ?AddChild@NMSplitter@nmui@@UAEXPAVwxWindowBase@@@Z  (00093E80)
               1021  3FC   ?AddChild@NMSwitchablePanel@nmui@@MAEXPAVwxWindowBase@@@Z  (000999F0)
               1022  3FD   ?AddChild@TreeItem@nmui@@QAE_NPAV12@@Z  (000BC790)
               1023  3FE   ?AddEntry@AutoCompleteDictionary@nmui@@QAE_NABVwxString@@000H_N@Z  (00006450)
               1024  3FF   ?AddInvalidString@NMSimpleTextCtrlValidator@nmui@@QAEXABVwxString@@@Z  (0009D080)
               1025  400   ?AddObserver@AutoCompleteDictionary@nmui@@IAEXPAVAutoCompleteDictionaryObserver@2@@Z  (000060A0)
               1026  401   ?AddRefDocument@wxStyledTextCtrl@@QAEXPAX@Z  (000C8FE0)
               1027  402   ?AddStyledText@wxStyledTextCtrl@@QAEXABVwxMemoryBuffer@@@Z  (000C5540)
               1028  403   ?AddText@wxStyledTextCtrl@@QAEXABVwxString@@@Z  (000CAE60)
               1029  404   ?AddTextRaw@wxStyledTextCtrl@@QAEXPBD@Z  (000C9FF0)
               1030  405   ?AddValidString@NMSimpleTextCtrlValidator@nmui@@QAEXABVwxString@@@Z  (0009D070)
               1031  406   ?Allocate@wxStyledTextCtrl@@QAEXH@Z  (000C9960)
               1032  407   ?AllowsAcceleratorToPropogate@FullScreenFrame@nmui@@UAE_NXZ  (00025890)
               1033  408   ?AppendText@wxStyledTextCtrl@@QAEXABVwxString@@@Z  (000C8230)
               1034  409   ?AppendTextRaw@wxStyledTextCtrl@@QAEXPBD@Z  (000CA570)
               1035  40A   ?AssignImageList@TreeControl@nmui@@QAEXPAVwxImageList@@H@Z  (000B8F00)
               1036  40B   ?AssignUserData@TreeItem@nmui@@QAEXPAVTreeItemData@2@@Z  (00028380)
               1037  40C   ?AsyncIsKeyPressed@nmui@@YA_NH@Z  (00002B60)
               1038  40D   ?AutoCompActive@wxStyledTextCtrl@@QAE_NXZ  (000C6820)
               1039  40E   ?AutoCompCancel@wxStyledTextCtrl@@QAEXXZ  (000C6800)
               1040  40F   ?AutoCompComplete@wxStyledTextCtrl@@QAEXXZ  (000C6860)
               1041  410   ?AutoCompGetAutoHide@wxStyledTextCtrl@@QAE_NXZ  (000C6BE0)
               1042  411   ?AutoCompGetCancelAtStart@wxStyledTextCtrl@@QAE_NXZ  (000C6A00)
               1043  412   ?AutoCompGetChooseSingle@wxStyledTextCtrl@@QAE_NXZ  (000C6AD0)
               1044  413   ?AutoCompGetCurrent@wxStyledTextCtrl@@QAEHXZ  (000C9940)
               1045  414   ?AutoCompGetDropRestOfWord@wxStyledTextCtrl@@QAE_NXZ  (000C6C20)
               1046  415   ?AutoCompGetIgnoreCase@wxStyledTextCtrl@@QAE_NXZ  (000C6B10)
               1047  416   ?AutoCompGetSeparator@wxStyledTextCtrl@@QAEHXZ  (000C6930)
               1048  417   ?AutoCompGetTypeSeparator@wxStyledTextCtrl@@QAEHXZ  (000C6D70)
               1049  418   ?AutoCompPosStart@wxStyledTextCtrl@@QAEHXZ  (000C6840)
               1050  419   ?AutoCompSelect@wxStyledTextCtrl@@QAEXABVwxString@@@Z  (000C6950)
               1051  41A   ?AutoCompSetAutoHide@wxStyledTextCtrl@@QAEX_N@Z  (000C6BC0)
               1052  41B   ?AutoCompSetCancelAtStart@wxStyledTextCtrl@@QAEX_N@Z  (000C69E0)
               1053  41C   ?AutoCompSetChooseSingle@wxStyledTextCtrl@@QAEX_N@Z  (000C6AB0)
               1054  41D   ?AutoCompSetDropRestOfWord@wxStyledTextCtrl@@QAEX_N@Z  (000C6C00)
               1055  41E   ?AutoCompSetFillUps@wxStyledTextCtrl@@QAEXABVwxString@@@Z  (000C6A20)
               1056  41F   ?AutoCompSetIgnoreCase@wxStyledTextCtrl@@QAEX_N@Z  (000C6AF0)
               1057  420   ?AutoCompSetSeparator@wxStyledTextCtrl@@QAEXH@Z  (000C6910)
               1058  421   ?AutoCompSetTypeSeparator@wxStyledTextCtrl@@QAEXH@Z  (000C6D90)
               1059  422   ?AutoCompShow@wxStyledTextCtrl@@QAEXHABVwxString@@@Z  (000C6770)
               1060  423   ?AutoCompStops@wxStyledTextCtrl@@QAEXABVwxString@@@Z  (000C6880)
               1061  424   ?AutoCompleteDictionaryPredicate@AutoCompleteDictionary@nmui@@CA_NPAUDictionaryEntry@12@0@Z  (00005200)
               1062  425   ?BackTab@wxStyledTextCtrl@@QAEXXZ  (000C87D0)
               1063  426   ?BeginUndoAction@wxStyledTextCtrl@@QAEXXZ  (000C63C0)
               1064  427   ?BraceBadLight@wxStyledTextCtrl@@QAEXH@Z  (000C8BE0)
               1065  428   ?BraceHighlight@wxStyledTextCtrl@@QAEXHH@Z  (000C8BB0)
               1066  429   ?BraceMatch@wxStyledTextCtrl@@QAEHH@Z  (000C8C00)
               1067  42A   ?BreakMultiLineStringIntoList@nmui@@YAXABVwxString@@AAV?$Vector@VwxString@@@NMutils@@@Z  (00004FD0)
               1068  42B   ?COLUMN_HIT_TOLERANCE@NMColumnWindow@nmui@@2HA  (001C33E4)
               1069  42C   ?COLUMN_HIT_TOLERANCE@TreeControl@nmui@@2HA  (001C7620)
               1070  42D   ?CalcMin@NMStaticBoxSizer@nmui@@UAE?AVwxSize@@XZ  (00098000)
               1071  42E   ?CalcVisibleItemNumber@TreeControl@nmui@@QBEHPAVTreeItem@2@@Z  (000B57D0)
               1072  42F   ?CallTipActive@wxStyledTextCtrl@@QAE_NXZ  (000C7A80)
               1073  430   ?CallTipCancel@wxStyledTextCtrl@@QAEXXZ  (000C7A60)
               1074  431   ?CallTipPosAtStart@wxStyledTextCtrl@@QAEHXZ  (000C7AA0)
               1075  432   ?CallTipSetBackground@wxStyledTextCtrl@@QAEXABVwxColour@@@Z  (000C7AF0)
               1076  433   ?CallTipSetForeground@wxStyledTextCtrl@@QAEXABVwxColour@@@Z  (000C7B50)
               1077  434   ?CallTipSetForegroundHighlight@wxStyledTextCtrl@@QAEXABVwxColour@@@Z  (000C7BB0)
               1078  435   ?CallTipSetHighlight@wxStyledTextCtrl@@QAEXHH@Z  (000C7AC0)
               1079  436   ?CallTipShow@wxStyledTextCtrl@@QAEXHABVwxString@@@Z  (000C79D0)
               1080  437   ?CanPaste@wxStyledTextCtrl@@QAE_NXZ  (000C7470)
               1081  438   ?CanRedo@wxStyledTextCtrl@@QAE_NXZ  (000C56F0)
               1082  439   ?CanUndo@wxStyledTextCtrl@@QAE_NXZ  (000C7490)
               1083  43A   ?Cancel@wxStyledTextCtrl@@QAEXXZ  (000C8770)
               1084  43B   ?CenterOnParentDevice@Dialog@nmui@@QAEXH@Z  (0004B8C0)
               1085  43C   ?CharLeft@wxStyledTextCtrl@@QAEXXZ  (000C84D0)
               1086  43D   ?CharLeftExtend@wxStyledTextCtrl@@QAEXXZ  (000C84F0)
               1087  43E   ?CharLeftRectExtend@wxStyledTextCtrl@@QAEXXZ  (000C96B0)
               1088  43F   ?CharRight@wxStyledTextCtrl@@QAEXXZ  (000C8510)
               1089  440   ?CharRightExtend@wxStyledTextCtrl@@QAEXXZ  (000C8530)
               1090  441   ?CharRightRectExtend@wxStyledTextCtrl@@QAEXXZ  (000C96D0)
               1091  442   ?CheckValidator@NMSimpleTextCtrlValidator@nmui@@IBE_NXZ  (0009C2F0)
               1092  443   ?ChildIteratorBegin@TreeItem@nmui@@QAE?AV?$_Vector_iterator@PAVTreeItem@nmui@@V?$allocator@PAVTreeItem@nmui@@@std@@@std@@XZ  (0000D990)
               1093  444   ?ChildIteratorBegin@TreeItem@nmui@@QBE?AV?$_Vector_const_iterator@PAVTreeItem@nmui@@V?$allocator@PAVTreeItem@nmui@@@std@@@std@@XZ  (0000D990)
               1094  445   ?ChildIteratorEnd@TreeItem@nmui@@QAE?AV?$_Vector_iterator@PAVTreeItem@nmui@@V?$allocator@PAVTreeItem@nmui@@@std@@@std@@XZ  (0000D9C0)
               1095  446   ?ChildIteratorEnd@TreeItem@nmui@@QBE?AV?$_Vector_const_iterator@PAVTreeItem@nmui@@V?$allocator@PAVTreeItem@nmui@@@std@@@std@@XZ  (0000D9C0)
               1096  447   ?ChooseCaretX@wxStyledTextCtrl@@QAEXXZ  (000C92B0)
               1097  448   ?Clear@AutoCompleteDictionary@nmui@@UAEXXZ  (000060B0)
               1098  449   ?Clear@wxStyledTextCtrl@@QAEXXZ  (000C7550)
               1099  44A   ?ClearAll@wxStyledTextCtrl@@QAEXXZ  (000C5570)
               1100  44B   ?ClearDocumentStyle@wxStyledTextCtrl@@QAEXXZ  (000C5590)
               1101  44C   ?ClearRegisteredImages@wxStyledTextCtrl@@QAEXXZ  (000C6D50)
               1102  44D   ?ClearSelection@TreeControl@nmui@@QAEXXZ  (000BAE30)
               1103  44E   ?Clone@CheckBoxEvent@nmui@@UBEPAVwxEvent@@XZ  (0003C0E0)
               1104  44F   ?Clone@NMColumnWindowEvent@nmui@@UBEPAVwxEvent@@XZ  (000428E0)
               1105  450   ?Clone@NMIconBarEvent@nmui@@UBEPAVwxEvent@@XZ  (00055680)
               1106  451   ?Clone@NMListEvent@nmui@@UBEPAVwxEvent@@XZ  (0005A680)
               1107  452   ?Clone@NMRollupHeadingEvent@nmui@@UBEPAVwxEvent@@XZ  (00081540)
               1108  453   ?Clone@NMRollupSectionEvent@nmui@@UBEPAVwxEvent@@XZ  (000831A0)
               1109  454   ?Clone@NMSimpleGraphEvent@nmui@@UBEPAVwxEvent@@XZ  (0008CF90)
               1110  455   ?Clone@NMSimpleTextCtrlValidator@nmui@@UBEPAVwxObject@@XZ  (0003C8F0)
               1111  456   ?Clone@NMSplitterEvent@nmui@@UBEPAVwxEvent@@XZ  (00094010)
               1112  457   ?Clone@NotebookEvent@nmui@@UBEPAVwxEvent@@XZ  (0006BF90)
               1113  458   ?Clone@TreeEvent@nmui@@UBEPAVwxEvent@@XZ  (000B8860)
               1114  459   ?Clone@WindowEvent@nmui@@UBEPAVwxEvent@@XZ  (00009770)
               1115  45A   ?Clone@WindowPannedEvent@nmui@@UBEPAVwxEvent@@XZ  (000265C0)
               1116  45B   ?Clone@WindowScaledEvent@nmui@@UBEPAVwxEvent@@XZ  (000266D0)
               1117  45C   ?Clone@wxStyledTextEvent@@UBEPAVwxEvent@@XZ  (00028580)
               1118  45D   ?CmdKeyAssign@wxStyledTextCtrl@@QAEXHHH@Z  (000C6210)
               1119  45E   ?CmdKeyClear@wxStyledTextCtrl@@QAEXHH@Z  (000C6240)
               1120  45F   ?CmdKeyClearAll@wxStyledTextCtrl@@QAEXXZ  (000C6270)
               1121  460   ?CmdKeyExecute@wxStyledTextCtrl@@QAEXH@Z  (000C9E80)
               1122  461   ?Collapse@TreeItem@nmui@@QAEXXZ  (000B1640)
               1123  462   ?CollapseAll@TreeControl@nmui@@QAEXPAVTreeItem@2@@Z  (000B4A60)
               1124  463   ?CollapseNotebook_xpm@Icons@nmui@@3PAPBDA  (001C7DC8)
               1125  464   ?CollapseSplitterHorizontal_xpm@Icons@nmui@@3PAPBDA  (001C7D18)
               1126  465   ?CollapseSplitterVertical_xpm@Icons@nmui@@3PAPBDA  (001C7D70)
               1127  466   ?Colourise@wxStyledTextCtrl@@QAEXHH@Z  (000C9A30)
               1128  467   ?ContinueAutoComplete@TextControl@nmui@@IAEX_W@Z  (000B0280)
               1129  468   ?ContinueCallTip@TextControl@nmui@@IAEX_W@Z  (000AD570)
               1130  469   ?ConvertEOLs@wxStyledTextCtrl@@QAEXH@Z  (000C5890)
               1131  46A   ?Copy@NMSimpleTextCtrlValidator@nmui@@QAE_NABV12@@Z  (0009CDB0)
               1132  46B   ?Copy@wxStyledTextCtrl@@QAEXXZ  (000C7510)
               1133  46C   ?CopyRange@wxStyledTextCtrl@@QAEXHH@Z  (000C9530)
               1134  46D   ?CopyText@wxStyledTextCtrl@@QAEXHABVwxString@@@Z  (000C9560)
               1135  46E   ?CountVisibleItems@TreeControl@nmui@@QBEHXZ  (000B5730)
               1136  46F   ?Create@Button@nmui@@QAE_NPAVwxWindow@@HABVwxBitmap@@1ABVwxPoint@@ABVwxSize@@ABVNMStyle@2@ABVwxString@@@Z  (0003A5F0)
               1137  470   ?Create@Button@nmui@@QAE_NPAVwxWindow@@HABVwxBitmap@@ABVwxPoint@@ABVwxSize@@ABVNMStyle@2@ABVwxString@@@Z  (0003A550)
               1138  471   ?Create@Button@nmui@@QAE_NPAVwxWindow@@HABVwxImage@@ABVwxPoint@@ABVwxSize@@ABVNMStyle@2@ABVwxString@@@Z  (0003A6A0)
               1139  472   ?Create@Button@nmui@@QAE_NPAVwxWindow@@HABVwxString@@ABVwxBitmap@@ABVwxPoint@@ABVwxSize@@ABVNMStyle@2@1@Z  (0003A860)
               1140  473   ?Create@Button@nmui@@QAE_NPAVwxWindow@@HABVwxString@@ABVwxPoint@@ABVwxSize@@ABVNMStyle@2@1@Z  (0003A7E0)
               1141  474   ?Create@CheckBox@nmui@@QAE_NPAVwxWindow@@HABVwxString@@ABVwxPoint@@ABVwxSize@@ABVNMStyle@2@1@Z  (0003C640)
               1142  475   ?Create@Dialog@nmui@@QAE_NPAVwxWindow@@HABVwxString@@ABVwxPoint@@ABVwxSize@@J1@Z  (0004D520)
               1143  476   ?Create@DirectoryControl@nmui@@QAE_NPAVwxWindow@@HABVwxString@@ABVwxPoint@@ABVwxSize@@ABVNMStyle@2@1@Z  (0000A500)
               1144  477   ?Create@FilenameControl@nmui@@QAE_NPAVwxWindow@@HABVwxPoint@@ABVwxSize@@ABVNMStyle@2@ABVwxString@@@Z  (000154B0)
               1145  478   ?Create@Frame@nmui@@QAE_NPAVwxWindow@@HABVwxString@@ABVwxPoint@@ABVwxSize@@J1@Z  (000A53F0)
               1146  479   ?Create@FullScreenFrame@nmui@@QAE_NXZ  (00071090)
               1147  47A   ?Create@GuiNodeWindow@nmui@@QAE_NPAVwxWindow@@HABVwxPoint@@ABVwxSize@@ABVNMStyle@2@ABVwxString@@@Z  (00025A70)
               1148  47B   ?Create@GuiNodeWindowGdiPlus@nmui@@QAE_NPAVwxWindow@@HABVwxPoint@@ABVwxSize@@ABVNMStyle@2@ABVwxString@@@Z  (00027560)
               1149  47C   ?Create@MenuBar@nmui@@QAE_NPAVwxWindow@@HABVwxPoint@@ABVwxSize@@ABVNMStyle@2@ABVwxString@@@Z  (0006A220)
               1150  47D   ?Create@NMBusyBar@nmui@@QAE_NPAVwxWindow@@HABVwxPoint@@ABVwxSize@@ABVNMStyle@2@ABVwxString@@@Z  (000387B0)
               1151  47E   ?Create@NMCheckListDialog@nmui@@QAE_NPAVwxWindow@@HABVwxString@@ABVwxPoint@@ABVwxSize@@J1@Z  (0003D8C0)
               1152  47F   ?Create@NMColourLegend@nmui@@QAE_NPAVwxWindow@@HABVwxPoint@@ABVwxSize@@ABVNMStyle@2@ABVwxString@@@Z  (0003E780)
               1153  480   ?Create@NMColourSwatch@nmui@@QAE_NPAVwxWindow@@HABVwxPoint@@ABVwxSize@@ABVNMStyle@2@ABVwxString@@@Z  (0003FCB0)
               1154  481   ?Create@NMColumnWindow@nmui@@QAE_NPAVwxWindow@@HABVwxPoint@@ABVwxSize@@ABVNMStyle@2@ABVwxString@@@Z  (000431D0)
               1155  482   ?Create@NMComboBox@nmui@@QAE_NPAVwxWindow@@HABVwxPoint@@ABVwxSize@@ABVNMStyle@2@ABVwxString@@@Z  (0004AC30)
               1156  483   ?Create@NMComboBoxButton@nmui@@QAE_NPAVNMComboBox@2@HABVwxBitmap@@ABVwxPoint@@ABVwxSize@@ABVNMStyle@2@ABVwxValidator@@ABVwxString@@@Z  (0004A7C0)
               1157  484   ?Create@NMComboBoxListCtrl@nmui@@QAE_NPAVNMComboBox@2@HABVwxPoint@@ABVwxSize@@ABVNMStyle@2@ABVwxString@@@Z  (000493D0)
               1158  485   ?Create@NMComboBoxTextCtrl@nmui@@QAE_NPAVNMComboBox@2@HABVwxPoint@@ABVwxSize@@ABVNMStyle@2@ABVwxString@@@Z  (0004A860)
               1159  486   ?Create@NMCppTextControl@nmui@@QAE_NPAVwxWindow@@HABVwxPoint@@ABVwxSize@@JABVwxString@@@Z  (0004B6F0)
               1160  487   ?Create@NMExpFloatSlider@nmui@@QAE_NPAVwxWindow@@HMMMMMABVwxPoint@@ABVwxSize@@ABVNMStyle@2@ABVwxString@@@Z  (0004F340)
               1161  488   ?Create@NMFilterCtrl@nmui@@UAE_NPAVwxWindow@@VwxImage@@1HABVwxString@@ABVwxPoint@@ABVwxSize@@ABVNMStyle@2@2@Z  (00052820)
               1162  489   ?Create@NMFloatSlider@nmui@@QAE_NPAVwxWindow@@HMMMABVwxPoint@@ABVwxSize@@ABVNMStyle@2@ABVwxString@@@Z  (00053490)
               1163  48A   ?Create@NMFloatSpinner@nmui@@QAE_NPAVwxWindow@@HABVwxString@@ABVwxPoint@@ABVwxSize@@ABVNMStyle@2@1@Z  (000540E0)
               1164  48B   ?Create@NMFrameRateControl@nmui@@QAE_NPAVwxWindow@@HABVwxString@@ABVwxPoint@@ABVwxSize@@ABVNMStyle@2@1@Z  (00055080)
               1165  48C   ?Create@NMFrameRateControl@nmui@@QAE_NPAVwxWindow@@HNABVwxPoint@@ABVwxSize@@ABVNMStyle@2@ABVwxString@@@Z  (00054FC0)
               1166  48D   ?Create@NMIconBar@nmui@@QAE_NPAVwxWindow@@HABVwxPoint@@ABVwxSize@@ABVNMStyle@2@ABVwxString@@@Z  (00056D10)
               1167  48E   ?Create@NMIconBarSlots@nmui@@QAE_NPAVwxWindow@@HABVwxPoint@@ABVwxSize@@ABVNMStyle@2@ABVwxString@@@Z  (00056920)
               1168  48F   ?Create@NMIncrementalChoiceDialog@nmui@@QAE_NPAVwxWindow@@HABVwxString@@ABVwxPoint@@ABVwxSize@@J1@Z  (00057E90)
               1169  490   ?Create@NMIntSlider@nmui@@QAE_NPAVwxWindow@@HHHHABVwxPoint@@ABVwxSize@@ABVNMStyle@2@ABVwxString@@@Z  (00058BE0)
               1170  491   ?Create@NMIntSpinner@nmui@@QAE_NPAVwxWindow@@HABVwxString@@ABVwxPoint@@ABVwxSize@@ABVNMStyle@2@1@Z  (000596E0)
               1171  492   ?Create@NMListControl@nmui@@QAE_NPAVwxWindow@@HABVwxPoint@@ABVwxSize@@ABVNMStyle@2@ABVwxString@@@Z  (000602B0)
               1172  493   ?Create@NMPalette@nmui@@QAE_NPAVwxWindow@@HABVwxPoint@@ABVwxSize@@ABVNMStyle@2@ABVwxString@@@Z  (00078DA0)
               1173  494   ?Create@NMProgressBar@nmui@@QAE_NPAVwxWindow@@HIABVwxPoint@@ABVwxSize@@ABVNMStyle@2@ABVwxString@@@Z  (0007E920)
               1174  495   ?Create@NMProgressDialog@nmui@@QAE_NABVwxString@@0IPAVwxWindow@@HABVwxSize@@@Z  (0007EB10)
               1175  496   ?Create@NMRadioBox@nmui@@QAE_NPAVwxWindow@@HABVwxPoint@@ABVwxSize@@ABVNMStyle@2@ABVwxString@@@Z  (00080320)
               1176  497   ?Create@NMRollupContainer@nmui@@QAE_NPAVwxWindow@@HABVwxPoint@@ABVwxSize@@ABVNMStyle@2@ABVwxString@@@Z  (00084910)
               1177  498   ?Create@NMRollupHeading@nmui@@QAE_NPAVwxWindow@@HABVwxString@@ABVwxPoint@@ABVwxSize@@ABVNMStyle@2@1@Z  (00082660)
               1178  499   ?Create@NMRollupSection@nmui@@QAE_NPAVwxWindow@@HABVwxString@@ABVwxPoint@@ABVwxSize@@ABVNMStyle@2@@Z  (000861C0)
               1179  49A   ?Create@NMScriptControl@nmui@@QAE_NPAVwxWindow@@HABVwxPoint@@ABVwxSize@@JABVwxString@@@Z  (00087400)
               1180  49B   ?Create@NMScrollBar@nmui@@QAE_NPAVwxWindow@@HABVwxPoint@@ABVwxSize@@ABVNMStyle@2@ABVwxString@@@Z  (00087D40)
               1181  49C   ?Create@NMScrollWindow@nmui@@QAE_NPAVwxWindow@@HABVwxPoint@@ABVwxSize@@ABVNMStyle@2@ABVwxString@@@Z  (0008B570)
               1182  49D   ?Create@NMSimpleGraph@nmui@@QAE_NPAVwxWindow@@HABVwxPoint@@ABVwxSize@@ABVNMStyle@2@ABVwxString@@@Z  (0008EBD0)
               1183  49E   ?Create@NMSimpleTextCtrl@nmui@@UAE_NPAVwxWindow@@HABVwxString@@ABVwxPoint@@ABVwxSize@@ABVNMStyle@2@ABVwxValidator@@1@Z  (000A11E0)
               1184  49F   ?Create@NMSplitter@nmui@@QAE_NPAVwxWindow@@HABVwxPoint@@ABVwxSize@@ABVNMStyle@2@ABVwxString@@@Z  (00096FF0)
               1185  4A0   ?Create@NMStaticBitmap@nmui@@QAE_NPAVwxWindow@@HABVwxBitmap@@ABVwxPoint@@ABVwxSize@@ABVNMStyle@2@ABVwxString@@@Z  (00097980)
               1186  4A1   ?Create@NMStaticBitmap@nmui@@QAE_NPAVwxWindow@@HABVwxImage@@ABVwxPoint@@ABVwxSize@@ABVNMStyle@2@ABVwxString@@@Z  (00097A00)
               1187  4A2   ?Create@NMStaticBox@nmui@@QAE_NPAVwxWindow@@HABVwxString@@ABVwxPoint@@ABVwxSize@@JABVwxValidator@@1@Z  (000984D0)
               1188  4A3   ?Create@NMStaticText@nmui@@QAE_NPAVwxWindow@@HABVwxString@@ABVwxPoint@@ABVwxSize@@ABVNMStyle@2@H1@Z  (000990E0)
               1189  4A4   ?Create@NMSwitchablePanel@nmui@@QAE_NPAVwxWindow@@HABVwxPoint@@ABVwxSize@@ABVNMStyle@2@ABVwxString@@@Z  (00099300)
               1190  4A5   ?Create@NMTextRenameCtrl@nmui@@UAE_NPAVwxWindow@@HABVwxString@@ABVwxPoint@@ABVwxSize@@ABVNMStyle@2@ABVwxValidator@@1@Z  (000A1460)
               1191  4A6   ?Create@NMToolBar@nmui@@QAE_NPAVwxWindow@@HW4wxOrientation@@ABVwxPoint@@ABVwxSize@@ABVNMStyle@2@ABVwxString@@@Z  (000A37D0)
               1192  4A7   ?Create@NMToolBarSeparator@nmui@@QAE_NPAVwxWindow@@HABVwxString@@W4wxOrientation@@@Z  (000A2000)
               1193  4A8   ?Create@NMToolEdgePanel@nmui@@QAE_NPAVwxWindow@@H@Z  (000A2190)
               1194  4A9   ?Create@NMToolPanel@nmui@@QAE_NPAVwxWindow@@HABVNMStyle@2@ABVwxString@@@Z  (000A3AC0)
               1195  4AA   ?Create@NMToolTitlePanel@nmui@@QAE_NPAVwxWindow@@HABVwxString@@PAVwxBitmap@@ABVNMStyle@2@1@Z  (000A2600)
               1196  4AB   ?Create@NMUIntSlider@nmui@@QAE_NPAVwxWindow@@HIIIABVwxPoint@@ABVwxSize@@ABVNMStyle@2@ABVwxString@@@Z  (000A4490)
               1197  4AC   ?Create@NavigatorTree@nmui@@QAE_NPAVwxWindow@@HABVwxPoint@@ABVwxSize@@ABVNMStyle@2@ABVwxString@@@Z  (00037920)
               1198  4AD   ?Create@Notebook@nmui@@QAE_NPAVwxWindow@@HABVwxPoint@@ABVwxSize@@ABVNMStyle@2@ABVwxString@@@Z  (00071EA0)
               1199  4AE   ?Create@Panel@nmui@@QAE_NPAVwxWindow@@HABVwxPoint@@ABVwxSize@@ABVNMStyle@2@ABVwxString@@@Z  (000A62D0)
               1200  4AF   ?Create@PopupMenu@nmui@@QAE_NPAVwxWindow@@ABVMenu@2@VwxPoint@@_N@Z  (0007AE70)
               1201  4B0   ?Create@Slider@nmui@@QAE_NPAVwxWindow@@HABVwxPoint@@ABVwxSize@@ABVNMStyle@2@ABVwxString@@@Z  (00091A40)
               1202  4B1   ?Create@SpinButton@nmui@@QAE_NPAVwxWindow@@HABVwxPoint@@ABVwxSize@@ABVNMStyle@2@ABVwxString@@@Z  (00093010)
               1203  4B2   ?Create@TextControl@nmui@@QAE_NPAVwxWindow@@HABVwxPoint@@ABVwxSize@@JABVwxString@@@Z  (000B0870)
               1204  4B3   ?Create@TreeControl@nmui@@QAE_NPAVwxWindow@@HABVwxPoint@@ABVwxSize@@ABVNMStyle@2@ABVwxString@@@Z  (000BCEC0)
               1205  4B4   ?Create@Window@nmui@@QAE_NPAVwxWindow@@HABVwxPoint@@ABVwxSize@@ABVNMStyle@2@ABVwxString@@@Z  (000A5D90)
               1206  4B5   ?Create@wxStyledTextCtrl@@QAE_NPAVwxWindow@@HABVwxPoint@@ABVwxSize@@JABVwxString@@@Z  (000CAD50)
               1207  4B6   ?CreateDirectoryWithFullAccessPermissions@nmui@@YA?AW4ACLDirectoryCreationResult@1@PB_W@Z  (00037B30)
               1208  4B7   ?CreateDocument@wxStyledTextCtrl@@QAEPAXXZ  (000C8FC0)
               1209  4B8   ?Cut@wxStyledTextCtrl@@QAEXXZ  (000C74F0)
               1210  4B9   ?DEBUG@MessageBoxLogger@nmui@@2IB  (00111FC4)
               1211  4BA   ?DEFAULT_INDENT@TreeControl@nmui@@2HA  (001C7624)
               1212  4BB   ?DRAG_SCROLL_TIMEOUT@TreeControl@nmui@@2HA  (001C7618)
               1213  4BC   ?DelLineLeft@wxStyledTextCtrl@@QAEXXZ  (000C9230)
               1214  4BD   ?DelLineRight@wxStyledTextCtrl@@QAEXXZ  (000C9250)
               1215  4BE   ?DelWordLeft@wxStyledTextCtrl@@QAEXXZ  (000C88B0)
               1216  4BF   ?DelWordRight@wxStyledTextCtrl@@QAEXXZ  (000C88D0)
               1217  4C0   ?DeleteAllChildren@TreeItem@nmui@@QAEXXZ  (000B8320)
               1218  4C1   ?DeleteAllItems@TreeControl@nmui@@QAE_NXZ  (000BBD50)
               1219  4C2   ?DeleteBack@wxStyledTextCtrl@@QAEXXZ  (000C8790)
               1220  4C3   ?DeleteBackNotLine@wxStyledTextCtrl@@QAEXXZ  (000C89F0)
               1221  4C4   ?Detach@NMStaticBoxSizer@nmui@@UAE_NPAVwxWindow@@@Z  (00097F60)
               1222  4C5   ?Dispatch@AppMainLoop@nmui@@UAE_NXZ  (000011C0)
               1223  4C6   ?DoAddPendingEventFromThread@DirectoryWatch@nmui@@UAEXAAVDirectoryWatchEvent@2@@Z  (0000AAB0)
               1224  4C7   ?DoAddPendingEventFromThread@FileResourceManager@nmui@@UAEXAAVDirectoryWatchEvent@2@@Z  (0001ED00)
               1225  4C8   ?DoCollapseAll@TreeControl@nmui@@IAEXPAVTreeItem@2@@Z  (000B49B0)
               1226  4C9   ?DoControlShiftSelect@WaitState@TreeControlStates@nmui@@IAEXPAVTreeItem@3@@Z  (000BD560)
               1227  4CA   ?DoDragOver@wxStyledTextCtrl@@QAE?AW4wxDragResult@@HHW42@@Z  (000C9FB0)
               1228  4CB   ?DoDropText@wxStyledTextCtrl@@QAE_NJJABVwxString@@@Z  (000C9FC0)
               1229  4CC   ?DoEnableAll@TreeControl@nmui@@IAEX_NPAVTreeItem@2@@Z  (000B4A80)
               1230  4CD   ?DoExpandAll@TreeControl@nmui@@IAEXPAVTreeItem@2@@Z  (000B48F0)
               1231  4CE   ?DoGetBestSize@Button@nmui@@MBE?AVwxSize@@XZ  (0003A420)
               1232  4CF   ?DoGetBestSize@CheckBox@nmui@@UBE?AVwxSize@@XZ  (0003C260)
               1233  4D0   ?DoGetBestSize@MenuBar@nmui@@UBE?AVwxSize@@XZ  (00068E90)
               1234  4D1   ?DoGetBestSize@NMBusyBar@nmui@@MBE?AVwxSize@@XZ  (00037F40)
               1235  4D2   ?DoGetBestSize@NMColourLegend@nmui@@UBE?AVwxSize@@XZ  (0003E230)
               1236  4D3   ?DoGetBestSize@NMColourSwatch@nmui@@UBE?AVwxSize@@XZ  (0003EFE0)
               1237  4D4   ?DoGetBestSize@NMColumnWindow@nmui@@UBE?AVwxSize@@XZ  (00042400)
               1238  4D5   ?DoGetBestSize@NMComboBox@nmui@@MBE?AVwxSize@@XZ  (00046C80)
               1239  4D6   ?DoGetBestSize@NMProgressBar@nmui@@MBE?AVwxSize@@XZ  (00037F40)
               1240  4D7   ?DoGetBestSize@NMRadioBox@nmui@@MBE?AVwxSize@@XZ  (0007F5B0)
               1241  4D8   ?DoGetBestSize@NMRollupHeading@nmui@@UBE?AVwxSize@@XZ  (00081820)
               1242  4D9   ?DoGetBestSize@NMSimpleTextCtrl@nmui@@MBE?AVwxSize@@XZ  (0009D960)
               1243  4DA   ?DoGetBestSize@NMSplitter@nmui@@MBE?AVwxSize@@XZ  (00094E80)
               1244  4DB   ?DoGetBestSize@NMStaticBitmap@nmui@@UBE?AVwxSize@@XZ  (00097470)
               1245  4DC   ?DoGetBestSize@NMStaticBox@nmui@@MBE?AVwxSize@@XZ  (00097E90)
               1246  4DD   ?DoGetBestSize@NMStaticText@nmui@@UBE?AVwxSize@@XZ  (00098A90)
               1247  4DE   ?DoGetBestSize@Notebook@nmui@@MBE?AVwxSize@@XZ  (0006D180)
               1248  4DF   ?DoGetBestSize@Panel@nmui@@UBE?AVwxSize@@XZ  (000A5330)
               1249  4E0   ?DoGetBestSize@Slider@nmui@@MBE?AVwxSize@@XZ  (00091490)
               1250  4E1   ?DoGetBestSize@SpinButton@nmui@@UBE?AVwxSize@@XZ  (00053C70)
               1251  4E2   ?DoGetBestSize@TreeControl@nmui@@UBE?AVwxSize@@XZ  (000B27C0)
               1252  4E3   ?DoGetBestSize@wxStyledTextCtrl@@MBE?AVwxSize@@XZ  (000CAA90)
               1253  4E4   ?DoGetSize@NMScrollBar@nmui@@MBEXPAH0@Z  (000877F0)
               1254  4E5   ?DoGetVirtualSize@NMScrollPanel@nmui@@MBE?AVwxSize@@XZ  (00089A90)
               1255  4E6   ?DoOnDropDataObject@NMPalette@nmui@@UAE?AW4wxDragResult@@HHPAVNMUserDataObject@2@W43@@Z  (00072D70)
               1256  4E7   ?DoSetSize@NMScrollBar@nmui@@MAEXHHHHH@Z  (000877B0)
               1257  4E8   ?DoSetSize@NMStaticText@nmui@@UAEXHHHHH@Z  (00098B10)
               1258  4E9   ?DoShiftSelect@WaitState@TreeControlStates@nmui@@IAEXPAVTreeItem@3@@Z  (000BD4A0)
               1259  4EA   ?DoSortChildren@TreeControl@nmui@@IAEXPAVTreeItem@2@ABVTreeItemCompareStrategy@2@_N@Z  (000BA250)
               1260  4EB   ?DocLineFromVisible@wxStyledTextCtrl@@QAEHH@Z  (000C7C30)
               1261  4EC   ?DocumentEnd@wxStyledTextCtrl@@QAEXXZ  (000C8690)
               1262  4ED   ?DocumentEndExtend@wxStyledTextCtrl@@QAEXXZ  (000C86B0)
               1263  4EE   ?DocumentStart@wxStyledTextCtrl@@QAEXXZ  (000C8650)
               1264  4EF   ?DocumentStartExtend@wxStyledTextCtrl@@QAEXXZ  (000C8670)
               1265  4F0   ?DragCopy@TreeEvent@nmui@@QBE_NXZ  (000B1EE0)
               1266  4F1   ?DragReorder@TreeEvent@nmui@@QBE_NXZ  (000B1F00)
               1267  4F2   ?Draw@TreeItem@nmui@@MAEXAAVwxDC@@HHH@Z  (000B6B10)
               1268  4F3   ?DrawTreeItem@NavigatorTreeItem@nmui@@MAEXAAVwxDC@@H@Z  (00034DB0)
               1269  4F4   ?DrawTreeItem@TreeItem@nmui@@MAEXAAVwxDC@@H@Z  (000B6330)
               1270  4F5   ?ERR@MessageBoxLogger@nmui@@2IB  (00111FC0)
               1271  4F6   ?EXPANSION_BOX_HIT_TOLERANCE@TreeControl@nmui@@2HA  (001C761C)
               1272  4F7   ?EditLabel@TreeControl@nmui@@QAEXPAVTreeItem@2@@Z  (000B9330)
               1273  4F8   ?EditToggleOvertype@wxStyledTextCtrl@@QAEXXZ  (000C8750)
               1274  4F9   ?EmptyUndoBuffer@wxStyledTextCtrl@@QAEXXZ  (000C74B0)
               1275  4FA   ?Enable@TreeItem@nmui@@QAEX_N@Z  (000B1780)
               1276  4FB   ?Enable@Window@nmui@@UAE_N_N@Z  (000A4E90)
               1277  4FC   ?EnableAll@TreeControl@nmui@@QAEX_NPAVTreeItem@2@@Z  (000B4B40)
               1278  4FD   ?EndModal@Dialog@nmui@@UAEXH@Z  (0004BA40)
               1279  4FE   ?EndUndoAction@wxStyledTextCtrl@@QAEXXZ  (000C63E0)
               1280  4FF   ?EnsureCaretVisible@wxStyledTextCtrl@@QAEXXZ  (000C73A0)
               1281  500   ?EnsureTrailingPathSeparator@nmui@@YAXAAVwxString@@@Z  (00002480)
               1282  501   ?EnsureVisible@TreeControl@nmui@@QAE_NPAVTreeItem@2@@Z  (000B0FA0)
               1283  502   ?EnsureVisible@wxStyledTextCtrl@@QAEXH@Z  (000C7E00)
               1284  503   ?EnsureVisibleEnforcePolicy@wxStyledTextCtrl@@QAEXH@Z  (000C7E40)
               1285  504   ?EnsureWholeSelectionVisible@TreeControl@nmui@@QAE_NXZ  (000B5030)
               1286  505   ?EnumerateFilesRecursively@nmui@@YAXABVwxString@@0AAV?$Vector@VwxString@@@NMutils@@@Z  (000021F0)
               1287  506   ?Exit@AppMainLoop@nmui@@UAEXH@Z  (00001190)
               1288  507   ?ExitLoop@DialogModalData@nmui@@QAEXXZ  (0004B7D0)
               1289  508   ?Expand@TextControl@nmui@@AAEXAAH_N1HH@Z  (000ACF70)
               1290  509   ?Expand@TreeItem@nmui@@QAEXXZ  (000B1620)
               1291  50A   ?ExpandAll@TreeControl@nmui@@QAEXPAVTreeItem@2@@Z  (000B4990)
               1292  50B   ?ExpandCollapsedAncestors@TreeItem@nmui@@QAEXXZ  (000B1680)
               1293  50C   ?ExpandNotebook_xpm@Icons@nmui@@3PAPBDA  (001C7E20)
               1294  50D   ?ExternalProfilingToggleStub@nmui@@YAXXZ  (00003920)
               1295  50E   ?FindColumn@wxStyledTextCtrl@@QAEHHH@Z  (000C9980)
               1296  50F   ?FindItem@TreeControl@nmui@@QAEPAVTreeItem@2@ABVwxString@@_N1PAV32@@Z  (000B53D0)
               1297  510   ?FindItemByIntUserData@TreeControl@nmui@@QAEPAVTreeItem@2@H@Z  (000B55C0)
               1298  511   ?FindItemByVoidPtrUserData@TreeControl@nmui@@QAEPAVTreeItem@2@PAX@Z  (000B5560)
               1299  512   ?FindText@wxStyledTextCtrl@@QAEHHHABVwxString@@H@Z  (000C7140)
               1300  513   ?FindVisibleItemByIndex@TreeControl@nmui@@QBEPAVTreeItem@2@H@Z  (000B5780)
               1301  514   ?FireActivateEvent@TreeControl@nmui@@QAE_NPAVTreeItem@2@@Z  (000B90E0)
               1302  515   ?FireBeginDragEvent@TreeControl@nmui@@QAE_NABVwxPoint@@_N@Z  (000BB5C0)
               1303  516   ?FireCollapseStateChangeEvent@TreeControl@nmui@@QAE_NPAVTreeItem@2@@Z  (000B9190)
               1304  517   ?FireContextMenuEvent@TreeControl@nmui@@QAE_NPAVTreeItem@2@ABVwxPoint@@@Z  (000B9020)
               1305  518   ?FireDirectoryChangedEvent@DirectoryControl@nmui@@QAEXXZ  (0000A190)
               1306  519   ?FireDirectoryTextChangedEvent@DirectoryControl@nmui@@QAEXXZ  (0000A220)
               1307  51A   ?FireDraggingEvent@TreeControl@nmui@@QAE_NPAVTreeItem@2@ABVwxPoint@@_N@Z  (000BB6A0)
               1308  51B   ?FireDraggingLeavingWindowEvent@TreeControl@nmui@@QAE_NPAVTreeItem@2@ABVwxPoint@@_N@Z  (000BB780)
               1309  51C   ?FireEndDragEvent@TreeControl@nmui@@QAE_NPAVTreeItem@2@ABVwxPoint@@_N2@Z  (000BB860)
               1310  51D   ?FireFilenameChangedEvent@FilenameControl@nmui@@QAEXXZ  (000147B0)
               1311  51E   ?FireFilenameTextChangedEvent@FilenameControl@nmui@@QAEXXZ  (00014840)
               1312  51F   ?FireInPlaceEditEvent@TreeControl@nmui@@QAE_NPAVTreeItem@2@HHPBVwxPoint@@@Z  (000B9240)
               1313  520   ?FireSetTreeItemsEnabledStateEvent@TreeControl@nmui@@QAE_N_N@Z  (000BA440)
               1314  521   ?FloatNotebook_xpm@Icons@nmui@@3PAPBDA  (001C7FF8)
               1315  522   ?ForceAutoComplete@TextControl@nmui@@IAEXXZ  (000B03D0)
               1316  523   ?FormFeed@wxStyledTextCtrl@@QAEXXZ  (000C8810)
               1317  524   ?FormatRange@wxStyledTextCtrl@@QAEH_NHHPAVwxDC@@1VwxRect@@2@Z  (000CB2B0)
               1318  525   ?FromChildAtSameLevel@WindowEvent@nmui@@QBE_NPAVwxWindow@@@Z  (000A5580)
               1319  526   ?GetAllFormats@NMUserDataObject@nmui@@UBEXPAVwxDataFormat@@W4Direction@wxDataObjectBase@@@Z  (0004D9F0)
               1320  527   ?GetAlt@wxStyledTextEvent@@QBE_NXZ  (000CAB90)
               1321  528   ?GetAnchor@wxStyledTextCtrl@@QAEHXZ  (000C5620)
               1322  529   ?GetAssignedUserData@TreeItem@nmui@@QBEPAVTreeItemData@2@XZ  (00028490)
               1323  52A   ?GetAutoCompleteString@AutoCompleteDictionary@nmui@@IAEABVwxString@@H@Z  (00005820)
               1324  52B   ?GetAutoCompleteWildcard@AutoCompleteDictionary@nmui@@IAE_WXZ  (00005220)
               1325  52C   ?GetBackSpaceUnIndents@wxStyledTextCtrl@@QAE_NXZ  (000C7EC0)
               1326  52D   ?GetBorderGeometry@NMStaticBox@nmui@@QBE?AVwxRect@@XZ  (00097E10)
               1327  52E   ?GetBoundingRect@TreeItem@nmui@@QBE?AVwxRect@@XZ  (000B17D0)
               1328  52F   ?GetBounds@WindowEvent@nmui@@QBE?AVwxRect@@XZ  (00009730)
               1329  530   ?GetBoxAreaOrigin@NMStaticBox@nmui@@UBE?AVwxPoint@@XZ  (00097E50)
               1330  531   ?GetBufferedDraw@wxStyledTextCtrl@@QAE_NXZ  (000C5950)
               1331  532   ?GetCaretForeground@wxStyledTextCtrl@@QAE?AVwxColour@@XZ  (000C6FC0)
               1332  533   ?GetCaretLineBack@wxStyledTextCtrl@@QAE?AVwxColour@@XZ  (000C66A0)
               1333  534   ?GetCaretLineVisible@wxStyledTextCtrl@@QAE_NXZ  (000C6660)
               1334  535   ?GetCaretPeriod@wxStyledTextCtrl@@QAEHXZ  (000C62F0)
               1335  536   ?GetCaretWidth@wxStyledTextCtrl@@QAEHXZ  (000C76B0)
               1336  537   ?GetCharAt@wxStyledTextCtrl@@QAEHH@Z  (000C55D0)
               1337  538   ?GetCheckboxRect@TreeItem@nmui@@QBE?AVwxRect@@XZ  (000B1920)
               1338  539   ?GetChild@TreeItem@nmui@@QBEPAV12@H_N@Z  (000B40F0)
               1339  53A   ?GetChildCount@TreeItem@nmui@@QBEI_N@Z  (000B4010)
               1340  53B   ?GetChildren@TreeItem@nmui@@QBEPAV?$Vector@PAVTreeItem@nmui@@@NMutils@@XZ  (0000AB50)
               1341  53C   ?GetClassInfo@Button@nmui@@UBEPAVwxClassInfo@@XZ  (000387F0)
               1342  53D   ?GetClassInfo@CheckBox@nmui@@UBEPAVwxClassInfo@@XZ  (0003BE00)
               1343  53E   ?GetClassInfo@Dialog@nmui@@UBEPAVwxClassInfo@@XZ  (0004B820)
               1344  53F   ?GetClassInfo@DirectoryControl@nmui@@UBEPAVwxClassInfo@@XZ  (00009EF0)
               1345  540   ?GetClassInfo@FilenameControl@nmui@@UBEPAVwxClassInfo@@XZ  (000145B0)
               1346  541   ?GetClassInfo@FullScreenFrame@nmui@@UBEPAVwxClassInfo@@XZ  (0006B320)
               1347  542   ?GetClassInfo@MenuBar@nmui@@UBEPAVwxClassInfo@@XZ  (00068E30)
               1348  543   ?GetClassInfo@NMBusyBar@nmui@@UBEPAVwxClassInfo@@XZ  (00037E00)
               1349  544   ?GetClassInfo@NMColourLegend@nmui@@UBEPAVwxClassInfo@@XZ  (0003DDA0)
               1350  545   ?GetClassInfo@NMColourSwatch@nmui@@UBEPAVwxClassInfo@@XZ  (0003E9E0)
               1351  546   ?GetClassInfo@NMColumnWindow@nmui@@UBEPAVwxClassInfo@@XZ  (00042270)
               1352  547   ?GetClassInfo@NMColumnWindowEvent@nmui@@UBEPAVwxClassInfo@@XZ  (00042820)
               1353  548   ?GetClassInfo@NMComboBox@nmui@@UBEPAVwxClassInfo@@XZ  (00046970)
               1354  549   ?GetClassInfo@NMComboBoxButton@nmui@@UBEPAVwxClassInfo@@XZ  (00045D50)
               1355  54A   ?GetClassInfo@NMComboBoxListCtrl@nmui@@UBEPAVwxClassInfo@@XZ  (00045E10)
               1356  54B   ?GetClassInfo@NMComboBoxTextCtrl@nmui@@UBEPAVwxClassInfo@@XZ  (00045DB0)
               1357  54C   ?GetClassInfo@NMCppTextControl@nmui@@UBEPAVwxClassInfo@@XZ  (0004B490)
               1358  54D   ?GetClassInfo@NMExpFloatSlider@nmui@@UBEPAVwxClassInfo@@XZ  (0004E750)
               1359  54E   ?GetClassInfo@NMFilterCtrl@nmui@@UBEPAVwxClassInfo@@XZ  (000521D0)
               1360  54F   ?GetClassInfo@NMFloatSlider@nmui@@UBEPAVwxClassInfo@@XZ  (00052DC0)
               1361  550   ?GetClassInfo@NMFloatSpinner@nmui@@UBEPAVwxClassInfo@@XZ  (00053C90)
               1362  551   ?GetClassInfo@NMFrameRateControl@nmui@@UBEPAVwxClassInfo@@XZ  (000543C0)
               1363  552   ?GetClassInfo@NMIconBar@nmui@@UBEPAVwxClassInfo@@XZ  (00055280)
               1364  553   ?GetClassInfo@NMIconBarEvent@nmui@@UBEPAVwxClassInfo@@XZ  (000555D0)
               1365  554   ?GetClassInfo@NMIconBarSlots@nmui@@UBEPAVwxClassInfo@@XZ  (00055480)
               1366  555   ?GetClassInfo@NMIntSlider@nmui@@UBEPAVwxClassInfo@@XZ  (00058690)
               1367  556   ?GetClassInfo@NMIntSpinner@nmui@@UBEPAVwxClassInfo@@XZ  (00059370)
               1368  557   ?GetClassInfo@NMListControl@nmui@@UBEPAVwxClassInfo@@XZ  (00059DF0)
               1369  558   ?GetClassInfo@NMListEvent@nmui@@UBEPAVwxClassInfo@@XZ  (0005A550)
               1370  559   ?GetClassInfo@NMProgressBar@nmui@@UBEPAVwxClassInfo@@XZ  (0007DFC0)
               1371  55A   ?GetClassInfo@NMProgressDialog@nmui@@UBEPAVwxClassInfo@@XZ  (0007E980)
               1372  55B   ?GetClassInfo@NMRadioBox@nmui@@UBEPAVwxClassInfo@@XZ  (0007F3E0)
               1373  55C   ?GetClassInfo@NMRollupContainer@nmui@@UBEPAVwxClassInfo@@XZ  (00082EC0)
               1374  55D   ?GetClassInfo@NMRollupHeading@nmui@@UBEPAVwxClassInfo@@XZ  (00080CD0)
               1375  55E   ?GetClassInfo@NMRollupSection@nmui@@UBEPAVwxClassInfo@@XZ  (00082A20)
               1376  55F   ?GetClassInfo@NMRollupSectionEvent@nmui@@UBEPAVwxClassInfo@@XZ  (00083130)
               1377  560   ?GetClassInfo@NMScriptControl@nmui@@UBEPAVwxClassInfo@@XZ  (00086600)
               1378  561   ?GetClassInfo@NMScrollBar@nmui@@UBEPAVwxClassInfo@@XZ  (000876E0)
               1379  562   ?GetClassInfo@NMScrollPanel@nmui@@UBEPAVwxClassInfo@@XZ  (00089890)
               1380  563   ?GetClassInfo@NMScrollWindow@nmui@@UBEPAVwxClassInfo@@XZ  (0008A250)
               1381  564   ?GetClassInfo@NMSimpleGraph@nmui@@UBEPAVwxClassInfo@@XZ  (0008BF00)
               1382  565   ?GetClassInfo@NMSimpleGraphEvent@nmui@@UBEPAVwxClassInfo@@XZ  (0008CEE0)
               1383  566   ?GetClassInfo@NMSimpleMultiOptionDialog@nmui@@UBEPAVwxClassInfo@@XZ  (0008FCD0)
               1384  567   ?GetClassInfo@NMSimpleTextCtrl@nmui@@UBEPAVwxClassInfo@@XZ  (0009D0F0)
               1385  568   ?GetClassInfo@NMSimpleTextCtrlValidator@nmui@@UBEPAVwxClassInfo@@XZ  (0009C2C0)
               1386  569   ?GetClassInfo@NMSplash@nmui@@UBEPAVwxClassInfo@@XZ  (00093270)
               1387  56A   ?GetClassInfo@NMSplitter@nmui@@UBEPAVwxClassInfo@@XZ  (00093940)
               1388  56B   ?GetClassInfo@NMStaticBitmap@nmui@@UBEPAVwxClassInfo@@XZ  (00097370)
               1389  56C   ?GetClassInfo@NMStaticBox@nmui@@UBEPAVwxClassInfo@@XZ  (00097C40)
               1390  56D   ?GetClassInfo@NMStaticBoxSizer@nmui@@UBEPAVwxClassInfo@@XZ  (00097EE0)
               1391  56E   ?GetClassInfo@NMStaticText@nmui@@UBEPAVwxClassInfo@@XZ  (00098600)
               1392  56F   ?GetClassInfo@NMSwitchablePanel@nmui@@UBEPAVwxClassInfo@@XZ  (000992F0)
               1393  570   ?GetClassInfo@NMToolBar@nmui@@UBEPAVwxClassInfo@@XZ  (000A17C0)
               1394  571   ?GetClassInfo@NMToolBarSeparator@nmui@@UBEPAVwxClassInfo@@XZ  (000A1600)
               1395  572   ?GetClassInfo@NMToolEdgePanel@nmui@@UBEPAVwxClassInfo@@XZ  (000A19F0)
               1396  573   ?GetClassInfo@NMToolPanel@nmui@@UBEPAVwxClassInfo@@XZ  (000A1BB0)
               1397  574   ?GetClassInfo@NMToolTitlePanel@nmui@@UBEPAVwxClassInfo@@XZ  (000A18F0)
               1398  575   ?GetClassInfo@NMUIntSlider@nmui@@UBEPAVwxClassInfo@@XZ  (000A3EA0)
               1399  576   ?GetClassInfo@Notebook@nmui@@UBEPAVwxClassInfo@@XZ  (0006B330)
               1400  577   ?GetClassInfo@NotebookEvent@nmui@@UBEPAVwxClassInfo@@XZ  (0006BEA0)
               1401  578   ?GetClassInfo@Panel@nmui@@UBEPAVwxClassInfo@@XZ  (000A50F0)
               1402  579   ?GetClassInfo@PopupMenu@nmui@@UBEPAVwxClassInfo@@XZ  (00079310)
               1403  57A   ?GetClassInfo@RawGLCanvas@nmui@@UBEPAVwxClassInfo@@XZ  (000AB640)
               1404  57B   ?GetClassInfo@Slider@nmui@@UBEPAVwxClassInfo@@XZ  (000910B0)
               1405  57C   ?GetClassInfo@SpinButton@nmui@@UBEPAVwxClassInfo@@XZ  (00092270)
               1406  57D   ?GetClassInfo@TextControl@nmui@@UBEPAVwxClassInfo@@XZ  (000AC730)
               1407  57E   ?GetClassInfo@TreeControl@nmui@@UBEPAVwxClassInfo@@XZ  (000B0D00)
               1408  57F   ?GetClassInfo@TreeEvent@nmui@@UBEPAVwxClassInfo@@XZ  (000B1ED0)
               1409  580   ?GetClassInfo@Window@nmui@@UBEPAVwxClassInfo@@XZ  (000A4CA0)
               1410  581   ?GetClassInfo@WindowEvent@nmui@@UBEPAVwxClassInfo@@XZ  (000A4CB0)
               1411  582   ?GetClassInfo@WindowPannedEvent@nmui@@UBEPAVwxClassInfo@@XZ  (00026550)
               1412  583   ?GetClassInfo@WindowScaledEvent@nmui@@UBEPAVwxClassInfo@@XZ  (00026640)
               1413  584   ?GetClassInfo@wxStyledTextCtrl@@UBEPAVwxClassInfo@@XZ  (000C5440)
               1414  585   ?GetClassInfo@wxStyledTextEvent@@UBEPAVwxClassInfo@@XZ  (000C5450)
               1415  586   ?GetClientAreaOrigin@NMScrollPanel@nmui@@UBE?AVwxPoint@@XZ  (00089960)
               1416  587   ?GetCodePage@wxStyledTextCtrl@@QAEHXZ  (000C6FA0)
               1417  588   ?GetColumn@wxStyledTextCtrl@@QAEHH@Z  (000C6EA0)
               1418  589   ?GetComment@AutoCompleteDictionary@nmui@@IAEABVwxString@@HH@Z  (00005880)
               1419  58A   ?GetConsistentFilenameExtension@nmui@@YA?AVwxString@@ABV2@@Z  (000023A0)
               1420  58B   ?GetControl@wxStyledTextEvent@@QBE_NXZ  (000CAB80)
               1421  58C   ?GetControlCharSymbol@wxStyledTextCtrl@@QAEHXZ  (000C9160)
               1422  58D   ?GetCurLine@wxStyledTextCtrl@@QAE?AVwxString@@PAH@Z  (000CB120)
               1423  58E   ?GetCurLineRaw@wxStyledTextCtrl@@QAE?AVwxCharBuffer@@PAH@Z  (000CA060)
               1424  58F   ?GetCurrentLine@wxStyledTextCtrl@@QAEHXZ  (000C9C40)
               1425  590   ?GetCurrentPos@wxStyledTextCtrl@@QAEHXZ  (000C5600)
               1426  591   ?GetCustomBackgroundColourForChild@NMRollupHeading@nmui@@UBE?AVwxColour@@ABVwxRect@@@Z  (00080FF0)
               1427  592   ?GetCustomBackgroundColourForChild@NMSimpleTextCtrl@nmui@@UBE?AVwxColour@@ABVwxRect@@@Z  (0009DA10)
               1428  593   ?GetCustomBackgroundColourForChild@Window@nmui@@UBE?AVwxColour@@ABVwxRect@@@Z  (000A6000)
               1429  594   ?GetCustomDrawImageList@TreeControl@nmui@@QAEAAV?$vector@VwxImage@@V?$allocator@VwxImage@@@std@@@std@@H@Z  (000B0F60)
               1430  595   ?GetDLLDependencies@nmui@@YAXAAV?$Vector@VwxString@@@NMutils@@_N@Z  (00004DB0)
               1431  596   ?GetDataHere@NMUserDataObject@nmui@@UBE_NABVwxDataFormat@@PAX@Z  (0004DA20)
               1432  597   ?GetDataSize@NMUserDataObject@nmui@@UBEIABVwxDataFormat@@@Z  (0004DA10)
               1433  598   ?GetDefaultItem@Panel@nmui@@UBEPAVwxWindow@@XZ  (000A5190)
               1434  599   ?GetDirectoryFromPathname@nmui@@YA?AVwxString@@ABV2@@Z  (00001E80)
               1435  59A   ?GetDllPathname@nmui@@YA_NPB_WAAVwxString@@@Z  (00001E00)
               1436  59B   ?GetDocPointer@wxStyledTextCtrl@@QAEPAXXZ  (000C8C60)
               1437  59C   ?GetDragAllowMove@wxStyledTextEvent@@QAE_NXZ  (00028560)
               1438  59D   ?GetDragResult@wxStyledTextEvent@@QAE?AW4wxDragResult@@XZ  (00028570)
               1439  59E   ?GetDragText@wxStyledTextEvent@@QAE?AVwxString@@XZ  (00028530)
               1440  59F   ?GetEOLMode@wxStyledTextCtrl@@QAEHXZ  (000C58B0)
               1441  5A0   ?GetEdgeColour@wxStyledTextCtrl@@QAE?AVwxColour@@XZ  (000C8D40)
               1442  5A1   ?GetEdgeColumn@wxStyledTextCtrl@@QAEHXZ  (000C8CC0)
               1443  5A2   ?GetEdgeMode@wxStyledTextCtrl@@QAEHXZ  (000C8D00)
               1444  5A3   ?GetEndAtLastLine@wxStyledTextCtrl@@QAEHXZ  (000C81B0)
               1445  5A4   ?GetEndStyled@wxStyledTextCtrl@@QAEHXZ  (000C5870)
               1446  5A5   ?GetEventHashTable@NoButtonDown@NMColumnWindowStates@nmui@@MBEAAVwxEventHashTable@@XZ  (00045680)
               1447  5A6   ?GetEventHashTable@Panel@nmui@@MBEAAVwxEventHashTable@@XZ  (000A5110)
               1448  5A7   ?GetEventHashTable@wxStyledTextCtrl@@MBEAAVwxEventHashTable@@XZ  (000C5430)
               1449  5A8   ?GetEventTable@NoButtonDown@NMColumnWindowStates@nmui@@MBEPBUwxEventTable@@XZ  (00045670)
               1450  5A9   ?GetEventTable@Panel@nmui@@MBEPBUwxEventTable@@XZ  (000A5100)
               1451  5AA   ?GetEventTable@wxStyledTextCtrl@@MBEPBUwxEventTable@@XZ  (000C5420)
               1452  5AB   ?GetExecutableImageSize@nmui@@YAHXZ  (00003C60)
               1453  5AC   ?GetExpansionBoxHitTestRect@TreeItem@nmui@@QBE?AVwxRect@@XZ  (000B3300)
               1454  5AD   ?GetExpansionBoxRect@TreeItem@nmui@@QBE?AVwxRect@@XZ  (000B1860)
               1455  5AE   ?GetFilenameFromPathname@nmui@@YA?AVwxString@@ABV2@@Z  (00001F90)
               1456  5AF   ?GetFilenameIllegalChars@nmui@@YAPB_WXZ  (00002B00)
               1457  5B0   ?GetFirstChild@TreeItem@nmui@@QBEPAV12@_N@Z  (000B4460)
               1458  5B1   ?GetFirstSelectedItem@TreeControl@nmui@@QBEPAVTreeItem@2@PAV32@@Z  (000B4CD0)
               1459  5B2   ?GetFirstVisibleItem@TreeControl@nmui@@QBEPAVTreeItem@2@XZ  (000B4CA0)
               1460  5B3   ?GetFirstVisibleLine@wxStyledTextCtrl@@QAEHXZ  (000C7200)
               1461  5B4   ?GetFocusItem@TreeControl@nmui@@QBEPAVTreeItem@2@XZ  (000521A0)
               1462  5B5   ?GetFoldExpanded@wxStyledTextCtrl@@QAE_NH@Z  (000C7DB0)
               1463  5B6   ?GetFoldLevel@wxStyledTextCtrl@@QAEHH@Z  (000C7C80)
               1464  5B7   ?GetFoldLevelNow@wxStyledTextEvent@@QBEHXZ  (000284B0)
               1465  5B8   ?GetFoldLevelPrev@wxStyledTextEvent@@QBEHXZ  (00057810)
               1466  5B9   ?GetFoldParent@wxStyledTextCtrl@@QAEHH@Z  (000C7CD0)
               1467  5BA   ?GetFormatCount@NMUserDataObject@nmui@@UBEIW4Direction@wxDataObjectBase@@@Z  (0004D9E0)
               1468  5BB   ?GetHighlightGuide@wxStyledTextCtrl@@QAEHXZ  (000C6F60)
               1469  5BC   ?GetImageIndex@TreeItem@nmui@@QBEHXZ  (000B1540)
               1470  5BD   ?GetImageList@TreeControl@nmui@@QAEPAVwxImageList@@H@Z  (000B0F40)
               1471  5BE   ?GetImageRect@TreeItem@nmui@@QBE?AVwxRect@@XZ  (000B2BD0)
               1472  5BF   ?GetIndent@wxStyledTextCtrl@@QAEHXZ  (000C6DD0)
               1473  5C0   ?GetIndentationGuides@wxStyledTextCtrl@@QAE_NXZ  (000C6F20)
               1474  5C1   ?GetInstructionSetSupported@nmui@@YA_NW4InstructionSet@1@@Z  (00002DA0)
               1475  5C2   ?GetIntUserData@TreeItem@nmui@@QBEHXZ  (000284B0)
               1476  5C3   ?GetIntersectingTreeItems@TreeControl@nmui@@QBEXABVwxRect@@AAV?$Vector@PAVTreeItem@nmui@@@NMutils@@@Z  (000BB080)
               1477  5C4   ?GetInvalidCharacters@NMSimpleTextCtrlValidator@nmui@@QAEAAVwxString@@XZ  (0003C9B0)
               1478  5C5   ?GetInvalidStrings@NMSimpleTextCtrlValidator@nmui@@QAEAAV?$Vector@VwxString@@@NMutils@@XZ  (0000CC30)
               1479  5C6   ?GetItem@TreeEvent@nmui@@QBEPAVTreeItem@2@XZ  (00027820)
               1480  5C7   ?GetItems@TreeEvent@nmui@@QBEABV?$Vector@PAVTreeItem@nmui@@@NMutils@@XZ  (0004D920)
               1481  5C8   ?GetKFactor@NMExpFloatSlider@nmui@@QBEMXZ  (0004E7C0)
               1482  5C9   ?GetKey@wxStyledTextEvent@@QBEHXZ  (00027820)
               1483  5CA   ?GetKeyCode@TreeEvent@nmui@@QBEHXZ  (000B1F50)
               1484  5CB   ?GetKeyEvent@TreeEvent@nmui@@QBEABVwxKeyEvent@@XZ  (000B1F40)
               1485  5CC   ?GetLParam@wxStyledTextEvent@@QBEHXZ  (000284F0)
               1486  5CD   ?GetLabel@NMRollupSection@nmui@@UBE?AVwxString@@XZ  (00082C20)
               1487  5CE   ?GetLabel@NMStaticText@nmui@@UBE?AVwxString@@XZ  (0004E4B0)
               1488  5CF   ?GetLabel@TreeEvent@nmui@@QBEABVwxString@@XZ  (000B1F30)
               1489  5D0   ?GetLabel@TreeItem@nmui@@QBEABVwxString@@XZ  (000B1450)
               1490  5D1   ?GetLabelBoundingRect@TreeItem@nmui@@QBE?AVwxRect@@XZ  (000B19D0)
               1491  5D2   ?GetLabelUnderlineRect@TreeItem@nmui@@QBE?AVwxRect@@XZ  (000B1A00)
               1492  5D3   ?GetLastChild@TreeItem@nmui@@QBEPAV12@_N@Z  (000B4300)
               1493  5D4   ?GetLastChild@wxStyledTextCtrl@@QAEHHH@Z  (000C7CA0)
               1494  5D5   ?GetLastKeydownProcessed@wxStyledTextCtrl@@QAE_NXZ  (0009D420)
               1495  5D6   ?GetLastSelectedItem@TreeControl@nmui@@QBEPAVTreeItem@2@XZ  (000B7DE0)
               1496  5D7   ?GetLastVisibleItem@TreeControl@nmui@@QBEPAVTreeItem@2@PAV32@@Z  (000B4C10)
               1497  5D8   ?GetLayoutCache@wxStyledTextCtrl@@QAEHXZ  (000C80A0)
               1498  5D9   ?GetLength@wxStyledTextCtrl@@QAEHXZ  (000C55B0)
               1499  5DA   ?GetLength@wxStyledTextEvent@@QBEHXZ  (00028480)
               1500  5DB   ?GetLexer@wxStyledTextCtrl@@QAEHXZ  (000C9A10)
               1501  5DC   ?GetLine@wxStyledTextCtrl@@QAE?AVwxString@@H@Z  (000CB3A0)
               1502  5DD   ?GetLine@wxStyledTextEvent@@QBEHXZ  (000284A0)
               1503  5DE   ?GetLineCount@wxStyledTextCtrl@@QAEHXZ  (000C7220)
               1504  5DF   ?GetLineEndPosition@wxStyledTextCtrl@@QAEHH@Z  (000C6F80)
               1505  5E0   ?GetLineIndentPosition@wxStyledTextCtrl@@QAEHH@Z  (000C6E80)
               1506  5E1   ?GetLineIndentation@wxStyledTextCtrl@@QAEHH@Z  (000C6E60)
               1507  5E2   ?GetLineRaw@wxStyledTextCtrl@@QAE?AVwxCharBuffer@@H@Z  (000CA1A0)
               1508  5E3   ?GetLineSelEndPosition@wxStyledTextCtrl@@QAEHH@Z  (000C9650)
               1509  5E4   ?GetLineSelStartPosition@wxStyledTextCtrl@@QAEHH@Z  (000C9630)
               1510  5E5   ?GetLineState@wxStyledTextCtrl@@QAEHH@Z  (000C6620)
               1511  5E6   ?GetLineVisible@wxStyledTextCtrl@@QAE_NH@Z  (000C7D50)
               1512  5E7   ?GetLinesAdded@wxStyledTextEvent@@QBEHXZ  (00028490)
               1513  5E8   ?GetListType@wxStyledTextEvent@@QBEHXZ  (00028500)
               1514  5E9   ?GetMargin@wxStyledTextEvent@@QBEHXZ  (000284C0)
               1515  5EA   ?GetMarginLeft@wxStyledTextCtrl@@QAEHXZ  (000C7260)
               1516  5EB   ?GetMarginMask@wxStyledTextCtrl@@QAEHH@Z  (000C5D90)
               1517  5EC   ?GetMarginRight@wxStyledTextCtrl@@QAEHXZ  (000C72A0)
               1518  5ED   ?GetMarginSensitive@wxStyledTextCtrl@@QAE_NH@Z  (000C5DE0)
               1519  5EE   ?GetMarginType@wxStyledTextCtrl@@QAEHH@Z  (000C5CF0)
               1520  5EF   ?GetMarginWidth@wxStyledTextCtrl@@QAEHH@Z  (000C5D40)
               1521  5F0   ?GetMaxLength@NMSimpleTextCtrlValidator@nmui@@QBEHXZ  (0003C9D0)
               1522  5F1   ?GetMaxLineState@wxStyledTextCtrl@@QAEHXZ  (000C6640)
               1523  5F2   ?GetMessage@wxStyledTextEvent@@QBEHXZ  (000284D0)
               1524  5F3   ?GetModEventMask@wxStyledTextCtrl@@QAEHXZ  (000C9020)
               1525  5F4   ?GetModificationType@wxStyledTextEvent@@QBEHXZ  (0003C9D0)
               1526  5F5   ?GetModifiers@wxStyledTextEvent@@QBEHXZ  (0004D920)
               1527  5F6   ?GetModify@wxStyledTextCtrl@@QAE_NXZ  (000C72C0)
               1528  5F7   ?GetMouseDownCaptures@wxStyledTextCtrl@@QAE_NXZ  (000C90E0)
               1529  5F8   ?GetMouseDwellTime@wxStyledTextCtrl@@QAEHXZ  (000C7F00)
               1530  5F9   ?GetMouseEvent@TreeEvent@nmui@@QBEABVwxMouseEvent@@XZ  (000B1F70)
               1531  5FA   ?GetMultiLineTextExtent@NMStaticText@nmui@@IBEXABVwxString@@PAH111PBVwxFont@@1@Z  (000988A0)
               1532  5FB   ?GetNextItem@TreeControl@nmui@@QBEPAVTreeItem@2@PAV32@@Z  (000B4B60)
               1533  5FC   ?GetNextSibling@TreeItem@nmui@@QBEPAV12@_N@Z  (000B4150)
               1534  5FD   ?GetNextVisibleItem@TreeControl@nmui@@QBEPAVTreeItem@2@PAV32@@Z  (000B4BA0)
               1535  5FE   ?GetNumGDIObjects@nmui@@YAHXZ  (00002D80)
               1536  5FF   ?GetNumPageFaults@nmui@@YAIXZ  (00002D60)
               1537  600   ?GetNumUserGDIObjects@nmui@@YAHXZ  (00002D90)
               1538  601   ?GetNumberOfLogicalCPUCores@nmui@@YAIXZ  (00002E70)
               1539  602   ?GetOvertype@wxStyledTextCtrl@@QAE_NXZ  (000C7670)
               1540  603   ?GetParameter@AutoCompleteDictionary@nmui@@IAEABVwxString@@HH@Z  (00005840)
               1541  604   ?GetParent@TreeItem@nmui@@QBEPAV12@XZ  (000B12C0)
               1542  605   ?GetParentNextSibling@TreeItem@nmui@@QBEPAV12@_N@Z  (000B4190)
               1543  606   ?GetPoint@TreeEvent@nmui@@QBE?AVwxPoint@@XZ  (00042970)
               1544  607   ?GetPosition@wxStyledTextEvent@@QBEHXZ  (0000CC40)
               1545  608   ?GetPositionInLine@TextControl@nmui@@IAEHXZ  (000AD540)
               1546  609   ?GetPreferredFormat@NMUserDataObject@nmui@@UBE?AVwxDataFormat@@W4Direction@wxDataObjectBase@@@Z  (0004D9D0)
               1547  60A   ?GetPreviousSibling@TreeItem@nmui@@QBEPAV12@_N@Z  (000B4110)
               1548  60B   ?GetPreviousVisibleItem@TreeControl@nmui@@QBEPAVTreeItem@2@PAV32@@Z  (000B7D40)
               1549  60C   ?GetPrintColourMode@wxStyledTextCtrl@@QAEHXZ  (000C7120)
               1550  60D   ?GetPrintMagnification@wxStyledTextCtrl@@QAEHXZ  (000C70E0)
               1551  60E   ?GetPrintWrapMode@wxStyledTextCtrl@@QAEHXZ  (000C9350)
               1552  60F   ?GetProcessMemoryUsage@nmui@@YAIXZ  (00002D40)
               1553  610   ?GetReadOnly@wxStyledTextCtrl@@QAE_NXZ  (000C7000)
               1554  611   ?GetRenameValidator@TreeEvent@nmui@@QBEPAVwxValidator@@XZ  (000B1FB0)
               1555  612   ?GetReturnType@AutoCompleteDictionary@nmui@@IAEABVwxString@@HH@Z  (000058C0)
               1556  613   ?GetRoot@TreeControl@nmui@@QBEPAVTreeItem@2@XZ  (0005A240)
               1557  614   ?GetSTCCursor@wxStyledTextCtrl@@QAEHXZ  (000C9120)
               1558  615   ?GetSTCFocus@wxStyledTextCtrl@@QAE_NXZ  (000C9060)
               1559  616   ?GetScrollWidth@wxStyledTextCtrl@@QAEHXZ  (000C80E0)
               1560  617   ?GetSearchFlags@wxStyledTextCtrl@@QAEHXZ  (000C79B0)
               1561  618   ?GetSelectedItem@TreeControl@nmui@@QBEPAVTreeItem@2@XZ  (000B3FC0)
               1562  619   ?GetSelectedItemCount@TreeControl@nmui@@QBEIXZ  (000B26E0)
               1563  61A   ?GetSelectedText@wxStyledTextCtrl@@QAE?AVwxString@@XZ  (000CB490)
               1564  61B   ?GetSelectedTextRaw@wxStyledTextCtrl@@QAE?AVwxCharBuffer@@XZ  (000CA290)
               1565  61C   ?GetSelection@TreeControl@nmui@@QBEABV?$Vector@PAVTreeItem@nmui@@@NMutils@@XZ  (000B0E70)
               1566  61D   ?GetSelection@wxStyledTextCtrl@@QAEXPAH0@Z  (000C9EE0)
               1567  61E   ?GetSelectionEnd@wxStyledTextCtrl@@QAEHXZ  (000C70A0)
               1568  61F   ?GetSelectionInViewOrder@TreeControl@nmui@@QBEXAAV?$Vector@PAVTreeItem@nmui@@@NMutils@@@Z  (000B9F30)
               1569  620   ?GetSelectionMode@wxStyledTextCtrl@@QAEHXZ  (000C9610)
               1570  621   ?GetSelectionStart@wxStyledTextCtrl@@QAEHXZ  (000C7060)
               1571  622   ?GetSelectionWithoutChildren@TreeControl@nmui@@QBE?AV?$Vector@PAVTreeItem@nmui@@@NMutils@@XZ  (000B9FE0)
               1572  623   ?GetShift@wxStyledTextEvent@@QBE_NXZ  (000CAB70)
               1573  624   ?GetStaticBox@NMStaticBoxSizer@nmui@@QAEPAVNMStaticBox@2@XZ  (00057810)
               1574  625   ?GetStatus@wxStyledTextCtrl@@QAEHXZ  (000C90A0)
               1575  626   ?GetStyle@NMSimpleTextCtrlValidator@nmui@@QBEJXZ  (00027D00)
               1576  627   ?GetStyleAt@wxStyledTextCtrl@@QAEHH@Z  (000C5640)
               1577  628   ?GetStyleBits@wxStyledTextCtrl@@QAEHXZ  (000C65D0)
               1578  629   ?GetStyledText@wxStyledTextCtrl@@QAE?AVwxMemoryBuffer@@HH@Z  (000CB010)
               1579  62A   ?GetSwatchRect@TreeItem@nmui@@QBE?AVwxRect@@XZ  (000B1990)
               1580  62B   ?GetTabIndents@wxStyledTextCtrl@@QAE_NXZ  (000C7E80)
               1581  62C   ?GetTabWidth@wxStyledTextCtrl@@QAEHXZ  (000C59B0)
               1582  62D   ?GetTargetEnd@wxStyledTextCtrl@@QAEHXZ  (000C7730)
               1583  62E   ?GetTargetStart@wxStyledTextCtrl@@QAEHXZ  (000C76F0)
               1584  62F   ?GetText@wxStyledTextCtrl@@QAE?AVwxString@@XZ  (000CB6B0)
               1585  630   ?GetText@wxStyledTextEvent@@QBE?AVwxString@@XZ  (00028450)
               1586  631   ?GetTextLength@wxStyledTextCtrl@@QAEHXZ  (000C7630)
               1587  632   ?GetTextRange@wxStyledTextCtrl@@QAE?AVwxString@@HH@Z  (000CB5B0)
               1588  633   ?GetTextRangeRaw@wxStyledTextCtrl@@QAE?AVwxCharBuffer@@HH@Z  (000CA3A0)
               1589  634   ?GetTextRaw@wxStyledTextCtrl@@QAE?AVwxCharBuffer@@XZ  (000CA4C0)
               1590  635   ?GetTextWidth@NMSimpleTextCtrl@nmui@@IBEHABVwxString@@@Z  (0009D2E0)
               1591  636   ?GetTreeControl@TreeItem@nmui@@QBEPAVTreeControl@2@XZ  (00027D00)
               1592  637   ?GetTreeControlColumnIndex@TreeControl@nmui@@QBEHXZ  (0000CA10)
               1593  638   ?GetTwoPhaseDraw@wxStyledTextCtrl@@QAE_NXZ  (000C82F0)
               1594  639   ?GetUndoCollection@wxStyledTextCtrl@@QAE_NXZ  (000C5750)
               1595  63A   ?GetUseAntiAliasing@wxStyledTextCtrl@@QAE_NXZ  (000C9FE0)
               1596  63B   ?GetUseHorizontalScrollBar@wxStyledTextCtrl@@QAE_NXZ  (000C6EE0)
               1597  63C   ?GetUseTabs@wxStyledTextCtrl@@QAE_NXZ  (000C6E10)
               1598  63D   ?GetUseVerticalScrollBar@wxStyledTextCtrl@@QAE_NXZ  (000C8210)
               1599  63E   ?GetValidCharacters@NMSimpleTextCtrlValidator@nmui@@QAEAAVwxString@@XZ  (0003C9A0)
               1600  63F   ?GetValidStrings@NMSimpleTextCtrlValidator@nmui@@QAEAAV?$Vector@VwxString@@@NMutils@@XZ  (0003C990)
               1601  640   ?GetValue@NMExpFloatSlider@nmui@@UAEMXZ  (0004E7D0)
               1602  641   ?GetValue@NMFloatSlider@nmui@@UAEMXZ  (00052E30)
               1603  642   ?GetValue@NMIntSlider@nmui@@UAEHXZ  (000588A0)
               1604  643   ?GetValue@NMProgressDialog@nmui@@QBEIXZ  (0007E9E0)
               1605  644   ?GetValue@NMUIntSlider@nmui@@UAEIXZ  (000A40D0)
               1606  645   ?GetViewEOL@wxStyledTextCtrl@@QAE_NXZ  (000C8C20)
               1607  646   ?GetViewWhiteSpace@wxStyledTextCtrl@@QAEHXZ  (000C5770)
               1608  647   ?GetVoidPtrUserData@TreeItem@nmui@@QBEPAXXZ  (000284A0)
               1609  648   ?GetWParam@wxStyledTextEvent@@QBEHXZ  (000284E0)
               1610  649   ?GetWildcardIndex@AutoCompleteDictionary@nmui@@IAEHH@Z  (00005900)
               1611  64A   ?GetWindow@WindowEvent@nmui@@QBEPAVwxWindow@@XZ  (0000CC30)
               1612  64B   ?GetWordToLeftOfCaret@TextControl@nmui@@IAE?AVwxString@@_N@Z  (000AE1D0)
               1613  64C   ?GetWordUnderCaret@TextControl@nmui@@IAE?AVwxString@@XZ  (000AE070)
               1614  64D   ?GetWrapMode@wxStyledTextCtrl@@QAEHXZ  (000C7FA0)
               1615  64E   ?GetWrapStartIndent@wxStyledTextCtrl@@QAEHXZ  (000C8060)
               1616  64F   ?GetWrapVisualFlags@wxStyledTextCtrl@@QAEHXZ  (000C7FE0)
               1617  650   ?GetWrapVisualFlagsLocation@wxStyledTextCtrl@@QAEHXZ  (000C8020)
               1618  651   ?GetX@wxStyledTextEvent@@QBEHXZ  (00028510)
               1619  652   ?GetXOffset@wxStyledTextCtrl@@QAEHXZ  (000C9290)
               1620  653   ?GetY@wxStyledTextEvent@@QBEHXZ  (00028520)
               1621  654   ?GetZoom@wxStyledTextCtrl@@QAEHXZ  (000C8FA0)
               1622  655   ?GotoLine@wxStyledTextCtrl@@QAEXH@Z  (000C5810)
               1623  656   ?GotoPos@wxStyledTextCtrl@@QAEXH@Z  (000C5830)
               1624  657   ?HOVER_EXPAND_TIMEOUT@TreeControl@nmui@@2HA  (001C7614)
               1625  658   ?HasChildren@TreeItem@nmui@@QBE_N_N@Z  (0000CC10)
               1626  659   ?HasFocus@TreeControl@nmui@@QBE_NXZ  (000B0EE0)
               1627  65A   ?HasSelectedAncestor@TreeItem@nmui@@QBE_NXZ  (000B1370)
               1628  65B   ?HideLines@wxStyledTextCtrl@@QAEXHH@Z  (000C7D20)
               1629  65C   ?HideSelection@wxStyledTextCtrl@@QAEX_N@Z  (000C7310)
               1630  65D   ?Home@wxStyledTextCtrl@@QAEXXZ  (000C85D0)
               1631  65E   ?HomeDisplay@wxStyledTextCtrl@@QAEXXZ  (000C8A10)
               1632  65F   ?HomeDisplayExtend@wxStyledTextCtrl@@QAEXXZ  (000C8A30)
               1633  660   ?HomeExtend@wxStyledTextCtrl@@QAEXXZ  (000C85F0)
               1634  661   ?HomeRectExtend@wxStyledTextCtrl@@QAEXXZ  (000C96F0)
               1635  662   ?HomeWrap@wxStyledTextCtrl@@QAEXXZ  (000C8A90)
               1636  663   ?HomeWrapExtend@wxStyledTextCtrl@@QAEXXZ  (000C8AB0)
               1637  664   ?INCREMENTAL_MATCH_TIMEOUT@TreeControl@nmui@@2HA  (001C7610)
               1638  665   ?INFO@MessageBoxLogger@nmui@@2IB  (00111FB8)
               1639  666   ?InCollapsedAncestor@TreeItem@nmui@@QBE_NXZ  (000B29D0)
               1640  667   ?IndicatorGetForeground@wxStyledTextCtrl@@QAE?AVwxColour@@H@Z  (000C64B0)
               1641  668   ?IndicatorGetStyle@wxStyledTextCtrl@@QAEHH@Z  (000C6430)
               1642  669   ?IndicatorSetForeground@wxStyledTextCtrl@@QAEXHABVwxColour@@@Z  (000C6450)
               1643  66A   ?IndicatorSetStyle@wxStyledTextCtrl@@QAEXHH@Z  (000C6400)
               1644  66B   ?InsertChild@TreeItem@nmui@@QAE_NPAV12@0@Z  (000BC850)
               1645  66C   ?InsertText@wxStyledTextCtrl@@QAEXHABVwxString@@@Z  (000CAF50)
               1646  66D   ?InsertTextRaw@wxStyledTextCtrl@@QAEXHPBD@Z  (000CA030)
               1647  66E   ?IsAbove@TreeItem@nmui@@QBE_NPBV12@@Z  (000B2A90)
               1648  66F   ?IsAnyPartOfPathHidden@nmui@@YA_NABVwxString@@@Z  (00002070)
               1649  670   ?IsCharacterInvalid@NMSimpleTextCtrlValidator@nmui@@QAE_N_W@Z  (0009C5A0)
               1650  671   ?IsCharacterValid@NMSimpleTextCtrlValidator@nmui@@QAE_N_W@Z  (0009C580)
               1651  672   ?IsCollapsed@TreeItem@nmui@@QBE_NXZ  (000B1670)
               1652  673   ?IsDescendantOf@TreeItem@nmui@@QBE_NPAV12@@Z  (000B12D0)
               1653  674   ?IsEnabled@TreeItem@nmui@@QBE_NXZ  (000B17C0)
               1654  675   ?IsEnabled@Window@nmui@@UBE_NXZ  (000095C0)
               1655  676   ?IsExpanded@TreeItem@nmui@@QBE_NXZ  (000B1660)
               1656  677   ?IsFocused@TreeItem@nmui@@QBE_NXZ  (000B12A0)
               1657  678   ?IsModal@Dialog@nmui@@UBE_NXZ  (0004BA30)
               1658  679   ?IsPathHidden@nmui@@YA_NPB_W@Z  (00002060)
               1659  67A   ?IsRootHidden@TreeControl@nmui@@QBE_NXZ  (000B0FD0)
               1660  67B   ?IsSelected@TreeItem@nmui@@QBE_NXZ  (000B1290)
               1661  67C   ?IsSeparator@TreeItem@nmui@@QBE_NXZ  (000B1750)
               1662  67D   ?IsShown@TreeItem@nmui@@QBE_NXZ  (000B3DF0)
               1663  67E   ?IsStaticBox@NMStaticBox@nmui@@UBE_NXZ  (00025890)
               1664  67F   ?IsStringInvalid@NMSimpleTextCtrlValidator@nmui@@IAE_NABVwxString@@@Z  (0009C620)
               1665  680   ?IsStringValid@NMSimpleTextCtrlValidator@nmui@@IAE_NABVwxString@@@Z  (0009C5C0)
               1666  681   ?KillDeamon@DirectoryWatchBase@nmui@@MAEXXZ  (0000AEC0)
               1667  682   ?KillDeamon@FileResourceManager@nmui@@MAEXXZ  (00016920)
               1668  683   ?Layout@NMComboBox@nmui@@UAE_NXZ  (000471B0)
               1669  684   ?Layout@NMPalette@nmui@@UAE_NXZ  (00076FE0)
               1670  685   ?Layout@NMRollupHeading@nmui@@UAE_NXZ  (000821A0)
               1671  686   ?Layout@NMScrollWindow@nmui@@UAE_NXZ  (0008A980)
               1672  687   ?Layout@Panel@nmui@@UAE_NXZ  (000A5360)
               1673  688   ?LeftMouseButtonDown@nmui@@YA_NXZ  (00002B80)
               1674  689   ?LineCopy@wxStyledTextCtrl@@QAEXXZ  (000C8B50)
               1675  68A   ?LineCut@wxStyledTextCtrl@@QAEXXZ  (000C88F0)
               1676  68B   ?LineDelete@wxStyledTextCtrl@@QAEXXZ  (000C8910)
               1677  68C   ?LineDown@wxStyledTextCtrl@@QAEXXZ  (000C8450)
               1678  68D   ?LineDownExtend@wxStyledTextCtrl@@QAEXXZ  (000C8470)
               1679  68E   ?LineDownRectExtend@wxStyledTextCtrl@@QAEXXZ  (000C9670)
               1680  68F   ?LineDuplicate@wxStyledTextCtrl@@QAEXXZ  (000C8950)
               1681  690   ?LineEnd@wxStyledTextCtrl@@QAEXXZ  (000C8610)
               1682  691   ?LineEndDisplay@wxStyledTextCtrl@@QAEXXZ  (000C8A50)
               1683  692   ?LineEndDisplayExtend@wxStyledTextCtrl@@QAEXXZ  (000C8A70)
               1684  693   ?LineEndExtend@wxStyledTextCtrl@@QAEXXZ  (000C8630)
               1685  694   ?LineEndRectExtend@wxStyledTextCtrl@@QAEXXZ  (000C9730)
               1686  695   ?LineEndWrap@wxStyledTextCtrl@@QAEXXZ  (000C8AD0)
               1687  696   ?LineEndWrapExtend@wxStyledTextCtrl@@QAEXXZ  (000C8AF0)
               1688  697   ?LineFromPosition@wxStyledTextCtrl@@QAEHH@Z  (000C7330)
               1689  698   ?LineLength@wxStyledTextCtrl@@QAEHH@Z  (000C8B90)
               1690  699   ?LineScroll@wxStyledTextCtrl@@QAEXHH@Z  (000C7370)
               1691  69A   ?LineScrollDown@wxStyledTextCtrl@@QAEXXZ  (000C89B0)
               1692  69B   ?LineScrollUp@wxStyledTextCtrl@@QAEXXZ  (000C89D0)
               1693  69C   ?LineTranspose@wxStyledTextCtrl@@QAEXXZ  (000C8930)
               1694  69D   ?LineUp@wxStyledTextCtrl@@QAEXXZ  (000C8490)
               1695  69E   ?LineUpExtend@wxStyledTextCtrl@@QAEXXZ  (000C84B0)
               1696  69F   ?LineUpRectExtend@wxStyledTextCtrl@@QAEXXZ  (000C9690)
               1697  6A0   ?LinesJoin@wxStyledTextCtrl@@QAEXXZ  (000C8350)
               1698  6A1   ?LinesOnScreen@wxStyledTextCtrl@@QAEHXZ  (000C8F20)
               1699  6A2   ?LinesSplit@wxStyledTextCtrl@@QAEXH@Z  (000C8370)
               1700  6A3   ?LoadFile@wxStyledTextCtrl@@QAE_NABVwxString@@@Z  (000CBC10)
               1701  6A4   ?LoadFontResource@nmui@@YAHABVwxString@@@Z  (00002FC0)
               1702  6A5   ?LockBestSize_xpm@Icons@nmui@@3PAPBDA  (001C8118)
               1703  6A6   ?Lock_xpm@Icons@nmui@@3PAPBDA  (001C7CB0)
               1704  6A7   ?LowerCase@wxStyledTextCtrl@@QAEXXZ  (000C8970)
               1705  6A8   ?MINIMUM_ITEM_HEIGHT@TreeControl@nmui@@2HA  (001C7628)
               1706  6A9   ?MSWProcessMessage@Dialog@nmui@@MAE_NPAUtagMSG@@@Z  (0004D2A0)
               1707  6AA   ?MSWProcessMessage@PopupPanel@nmui@@MAE_NPAUtagMSG@@@Z  (0007C940)
               1708  6AB   ?MSWShouldPreProcessMessage@NMListControl@nmui@@MAE_NPAUtagMSG@@@Z  (0005AEF0)
               1709  6AC   ?MSWShouldPreProcessMessage@NMScrollPanel@nmui@@MAE_NPAUtagMSG@@@Z  (00089990)
               1710  6AD   ?MSWShouldPreProcessMessage@NMSimpleTextCtrl@nmui@@MAE_NPAUtagMSG@@@Z  (0009EE10)
               1711  6AE   ?MSWShouldPreProcessMessage@TreeControl@nmui@@UAE_NPAUtagMSG@@@Z  (0005AEF0)
               1712  6AF   ?MSWShouldPreProcessMessage@wxStyledTextCtrl@@MAE_NPAUtagMSG@@@Z  (000CBF80)
               1713  6B0   ?MSWWindowProc@Dialog@nmui@@UAEJIIJ@Z  (0004D090)
               1714  6B1   ?MSWWindowProc@NMStaticBox@nmui@@UAEJIIJ@Z  (00097EC0)
               1715  6B2   ?MSWWindowProc@Window@nmui@@MAEJIIJ@Z  (000A5050)
               1716  6B3   ?MakeDirectoryNameConsistent@nmui@@YAXAAV?$basic_string@_WU?$char_traits@_W@std@@V?$allocator@_W@2@@std@@@Z  (00004020)
               1717  6B4   ?MakeDirectoryNameConsistent@nmui@@YAXAAVwxString@@@Z  (00002350)
               1718  6B5   ?MakeFileReadOnly@nmui@@YAXABVwxString@@_N@Z  (00002BF0)
               1719  6B6   ?MakeFilenameConsistent@nmui@@YAXAAV?$basic_string@_WU?$char_traits@_W@std@@V?$allocator@_W@2@@std@@@Z  (000022D0)
               1720  6B7   ?MakeFilenameConsistent@nmui@@YAXAAVwxString@@@Z  (000022A0)
               1721  6B8   ?MakeGUID@nmui@@YA?AVwxString@@XZ  (00003CF0)
               1722  6B9   ?MakeGUID@nmui@@YA_NAAV?$basic_string@DU?$char_traits@D@std@@V?$allocator@D@2@@std@@@Z  (00002F40)
               1723  6BA   ?MarkerAdd@wxStyledTextCtrl@@QAEHHH@Z  (000C5AB0)
               1724  6BB   ?MarkerDefine@wxStyledTextCtrl@@QAEXHHABVwxColour@@0@Z  (000CB250)
               1725  6BC   ?MarkerDefineBitmap@wxStyledTextCtrl@@QAEXHABVwxBitmap@@@Z  (000C5BB0)
               1726  6BD   ?MarkerDelete@wxStyledTextCtrl@@QAEXHH@Z  (000C5AE0)
               1727  6BE   ?MarkerDeleteAll@wxStyledTextCtrl@@QAEXH@Z  (000C5B10)
               1728  6BF   ?MarkerDeleteHandle@wxStyledTextCtrl@@QAEXH@Z  (000C5730)
               1729  6C0   ?MarkerGet@wxStyledTextCtrl@@QAEHH@Z  (000C5B30)
               1730  6C1   ?MarkerLineFromHandle@wxStyledTextCtrl@@QAEHH@Z  (000C5710)
               1731  6C2   ?MarkerNext@wxStyledTextCtrl@@QAEHHH@Z  (000C5B50)
               1732  6C3   ?MarkerPrevious@wxStyledTextCtrl@@QAEHHH@Z  (000C5B80)
               1733  6C4   ?MarkerSetBackground@wxStyledTextCtrl@@QAEXHABVwxColour@@@Z  (000C5A50)
               1734  6C5   ?MarkerSetForeground@wxStyledTextCtrl@@QAEXHABVwxColour@@@Z  (000C59F0)
               1735  6C6   ?MatchItem@TreeControl@nmui@@QAEPAVTreeItem@2@ABVwxString@@PAV32@_N@Z  (000B5240)
               1736  6C7   ?Merge@AutoCompleteDictionary@nmui@@QAE_NAAV12@@Z  (00006B90)
               1737  6C8   ?MoveCaretInsideView@wxStyledTextCtrl@@QAEXXZ  (000C8B70)
               1738  6C9   ?NMLogo_128@Icons@nmui@@3PAPBDA  (001C8D98)
               1739  6CA   ?NMLogo_16@Icons@nmui@@3PAPBDA  (001C83B8)
               1740  6CB   ?NMLogo_32@Icons@nmui@@3PAPBDA  (001C8598)
               1741  6CC   ?NMLogo_64@Icons@nmui@@3PAPBDA  (001C88D0)
               1742  6CD   ?NMMessageBox@nmui@@YAHABVwxString@@0JPAVwxWindow@@HHPA_N@Z  (0006AE10)
               1743  6CE   ?NMUI_EVT_BEST_SIZE_CHANGED@@3HB  (001CA2B8)
               1744  6CF   ?NMUI_EVT_CB_CHANGED@@3HB  (001C9B68)
               1745  6D0   ?NMUI_EVT_CB_EXPANDING@@3HB  (001C9B6C)
               1746  6D1   ?NMUI_EVT_CHECKBOX_CHANGED@@3HB  (001C99F4)
               1747  6D2   ?NMUI_EVT_COLOURCHANGED@@3HB  (001C9A28)
               1748  6D3   ?NMUI_EVT_COLUMNWINDOW_SORT_COLUMN@@3HB  (001C9AC4)
               1749  6D4   ?NMUI_EVT_COMMAND_MENU_BUTTON_SELECTED@@3HB  (001C9DA0)
               1750  6D5   ?NMUI_EVT_DC_DIRECTORY_CHANGED@@3HB  (001C98B0)
               1751  6D6   ?NMUI_EVT_DC_DIRECTORY_TEXT_CHANGED@@3HB  (001C98B4)
               1752  6D7   ?NMUI_EVT_ENSURE_VISIBLE@@3HB  (001CA2B4)
               1753  6D8   ?NMUI_EVT_FC_FILENAME_CHANGED@@3HB  (001C98FC)
               1754  6D9   ?NMUI_EVT_FC_FILENAME_TEXT_CHANGED@@3HB  (001C9900)
               1755  6DA   ?NMUI_EVT_FILTER_CHANGED@@3HB  (001C9C18)
               1756  6DB   ?NMUI_EVT_ICONBAR_ITEM_DOUBLE_CLICKED@@3HB  (001C9CD0)
               1757  6DC   ?NMUI_EVT_ICONBAR_ITEM_SELECTED@@3HB  (001C9CCC)
               1758  6DD   ?NMUI_EVT_LC_BEGIN_DRAG@@3HB  (001C9D74)
               1759  6DE   ?NMUI_EVT_LC_CHECKBOX_CLICKED@@3HB  (001C9D64)
               1760  6DF   ?NMUI_EVT_LC_CHECKBOX_STATE_CHANGED@@3HB  (001C9D60)
               1761  6E0   ?NMUI_EVT_LC_CHECKBOX_STATE_CHANGING@@3HB  (001C9D6C)
               1762  6E1   ?NMUI_EVT_LC_DRAGGING@@3HB  (001C9D78)
               1763  6E2   ?NMUI_EVT_LC_DRAGGING_LEAVING_WINDOW@@3HB  (001C9D7C)
               1764  6E3   ?NMUI_EVT_LC_END_DRAG@@3HB  (001C9D80)
               1765  6E4   ?NMUI_EVT_LC_END_DRAG_SELECT@@3HB  (001C9D84)
               1766  6E5   ?NMUI_EVT_LC_ITEM_ACTIVATED@@3HB  (001C9D48)
               1767  6E6   ?NMUI_EVT_LC_ITEM_CONTEXT_MENU@@3HB  (001C9D54)
               1768  6E7   ?NMUI_EVT_LC_ITEM_DESELECTED@@3HB  (001C9D40)
               1769  6E8   ?NMUI_EVT_LC_ITEM_DOUBLE_CLICKED@@3HB  (001C9D50)
               1770  6E9   ?NMUI_EVT_LC_ITEM_LEFT_CLICKED@@3HB  (001C9D4C)
               1771  6EA   ?NMUI_EVT_LC_ITEM_SELECTED@@3HB  (001C9D3C)
               1772  6EB   ?NMUI_EVT_LC_KEY_DOWN@@3HB  (001C9D5C)
               1773  6EC   ?NMUI_EVT_LC_RADIOBUTTON_CLICKED@@3HB  (001C9D70)
               1774  6ED   ?NMUI_EVT_LC_SELECTION_CHANGED@@3HB  (001C9D44)
               1775  6EE   ?NMUI_EVT_LC_SHOW_IN_PLACE_EDITOR@@3HB  (001C9D58)
               1776  6EF   ?NMUI_EVT_LC_SWATCH_CLICKED@@3HB  (001C9D68)
               1777  6F0   ?NMUI_EVT_MENUITEM_MOUSE_ENTER@@3HB  (001C9E50)
               1778  6F1   ?NMUI_EVT_MENUITEM_MOUSE_LEAVE@@3HB  (001C9E58)
               1779  6F2   ?NMUI_EVT_MENUITEM_MOUSE_TIMER@@3HB  (001C9E54)
               1780  6F3   ?NMUI_EVT_NBK_CLOSING_WINDOW@@3HB  (001C9E00)
               1781  6F4   ?NMUI_EVT_NBK_COLLAPSE_STATE_CHANGE@@3HB  (001C9E08)
               1782  6F5   ?NMUI_EVT_NBK_DRAGGING_FINISHED@@3HB  (001C9E04)
               1783  6F6   ?NMUI_EVT_NBK_HIDE_STATE_CHANGE@@3HB  (001C9DFC)
               1784  6F7   ?NMUI_EVT_NBK_LBUTTONDOWN@@3HB  (001C9DF0)
               1785  6F8   ?NMUI_EVT_NBK_LBUTTONUP@@3HB  (001C9DEC)
               1786  6F9   ?NMUI_EVT_NBK_RBUTTONDOWN@@3HB  (001C9DF8)
               1787  6FA   ?NMUI_EVT_NBK_RBUTTONUP@@3HB  (001C9DF4)
               1788  6FB   ?NMUI_EVT_NBK_TAB_ABOUT_TO_BE_ADDED@@3HB  (001C9E14)
               1789  6FC   ?NMUI_EVT_NBK_TAB_ABOUT_TO_BE_FLOATED@@3HB  (001C9E24)
               1790  6FD   ?NMUI_EVT_NBK_TAB_ABOUT_TO_BE_REMOVED@@3HB  (001C9E18)
               1791  6FE   ?NMUI_EVT_NBK_TAB_ABOUT_TO_BE_UNFLOATED@@3HB  (001C9E28)
               1792  6FF   ?NMUI_EVT_NBK_TAB_ADDED@@3HB  (001C9E0C)
               1793  700   ?NMUI_EVT_NBK_TAB_CHOICE_CHANGE@@3HB  (001C9E2C)
               1794  701   ?NMUI_EVT_NBK_TAB_FLOATED@@3HB  (001C9E1C)
               1795  702   ?NMUI_EVT_NBK_TAB_REMOVED@@3HB  (001C9E10)
               1796  703   ?NMUI_EVT_NBK_TAB_UNFLOATED@@3HB  (001C9E20)
               1797  704   ?NMUI_EVT_NMPOPUP_PANEL_DISMISSED@@3HB  (001C9E5C)
               1798  705   ?NMUI_EVT_POPUP_DISMISSED@@3HB  (001C9E48)
               1799  706   ?NMUI_EVT_POPUP_OPENED@@3HB  (001C9E4C)
               1800  707   ?NMUI_EVT_ROLLUPHEADING_BEGINDRAG@@3HB  (001C9EC4)
               1801  708   ?NMUI_EVT_ROLLUPHEADING_CONTEXT_MENU@@3HB  (001C9EC8)
               1802  709   ?NMUI_EVT_ROLLUPHEADING_EXPANDCOLLAPSE@@3HB  (001C9EC0)
               1803  70A   ?NMUI_EVT_ROLLUPSECTION_BEGINDRAG@@3HB  (001C9F34)
               1804  70B   ?NMUI_EVT_ROLLUPSECTION_EXPANDCOLLAPSE@@3HB  (001C9F2C)
               1805  70C   ?NMUI_EVT_ROLLUPSECTION_REORDERED@@3HB  (001C9F30)
               1806  70D   ?NMUI_EVT_SIMPLEGRAPH_FRAMEMARKER_CANCELLED@@3HB  (001CA010)
               1807  70E   ?NMUI_EVT_SIMPLEGRAPH_FRAMEMARKER_CHANGED@@3HB  (001CA00C)
               1808  70F   ?NMUI_EVT_SIMPLEGRAPH_FRAMEMARKER_CHANGING@@3HB  (001CA008)
               1809  710   ?NMUI_EVT_SIMPLEGRAPH_RULER_CHANGED@@3HB  (001CA014)
               1810  711   ?NMUI_EVT_SIMPLEGRAPH_VALUEMARKER_CANCELLED@@3HB  (001CA004)
               1811  712   ?NMUI_EVT_SIMPLEGRAPH_VALUEMARKER_CHANGED@@3HB  (001CA000)
               1812  713   ?NMUI_EVT_SIMPLEGRAPH_VALUEMARKER_CHANGING@@3HB  (001C9FFC)
               1813  714   ?NMUI_EVT_SPIN_BEGIN_DRAG@@3HB  (001CA060)
               1814  715   ?NMUI_EVT_SPIN_CANCELLED@@3HB  (001CA074)
               1815  716   ?NMUI_EVT_SPIN_COMPLETE@@3HB  (001CA070)
               1816  717   ?NMUI_EVT_SPIN_DECREMENT@@3HB  (001CA06C)
               1817  718   ?NMUI_EVT_SPIN_END_DRAG@@3HB  (001CA064)
               1818  719   ?NMUI_EVT_SPIN_INCREMENT@@3HB  (001CA068)
               1819  71A   ?NMUI_EVT_SPLITTER_COLLAPSE_STATE_CHANGED@@3HB  (001CA0B0)
               1820  71B   ?NMUI_EVT_SPLITTER_SASH_POS_CHANGED@@3HB  (001CA0AC)
               1821  71C   ?NMUI_EVT_SPLITTER_SPLIT_MODE_CHANGED@@3HB  (001CA0B4)
               1822  71D   ?NMUI_EVT_SYNTAX_CHECK_EVENT@@3HB  (001C9F60)
               1823  71E   ?NMUI_EVT_TREE_BEGIN_DRAG@@3HB  (001CA354)
               1824  71F   ?NMUI_EVT_TREE_BEGIN_LABEL_EDIT@@3HB  (001CA368)
               1825  720   ?NMUI_EVT_TREE_CHECKBOX_CLICKED@@3HB  (001CA384)
               1826  721   ?NMUI_EVT_TREE_CHECKBOX_STATE_CHANGED@@3HB  (001CA380)
               1827  722   ?NMUI_EVT_TREE_CHECKBOX_STATE_CHANGING@@3HB  (001CA37C)
               1828  723   ?NMUI_EVT_TREE_COLOUR_SWATCH_CHANGED@@3HB  (001CA388)
               1829  724   ?NMUI_EVT_TREE_DRAGGING@@3HB  (001CA358)
               1830  725   ?NMUI_EVT_TREE_DRAGGING_LEAVING_WINDOW@@3HB  (001CA35C)
               1831  726   ?NMUI_EVT_TREE_END_DRAG@@3HB  (001CA360)
               1832  727   ?NMUI_EVT_TREE_END_LABEL_EDIT@@3HB  (001CA36C)
               1833  728   ?NMUI_EVT_TREE_ITEM_ACTIVATED@@3HB  (001CA348)
               1834  729   ?NMUI_EVT_TREE_ITEM_CLICKED@@3HB  (001CA374)
               1835  72A   ?NMUI_EVT_TREE_ITEM_COLLAPSE_STATE_CHANGE@@3HB  (001CA38C)
               1836  72B   ?NMUI_EVT_TREE_ITEM_CONTEXT_MENU@@3HB  (001CA34C)
               1837  72C   ?NMUI_EVT_TREE_ITEM_DESELECTED@@3HB  (001CA340)
               1838  72D   ?NMUI_EVT_TREE_ITEM_DOUBLE_CLICKED@@3HB  (001CA378)
               1839  72E   ?NMUI_EVT_TREE_ITEM_SELECTED@@3HB  (001CA33C)
               1840  72F   ?NMUI_EVT_TREE_KEY_DOWN@@3HB  (001CA370)
               1841  730   ?NMUI_EVT_TREE_SEL_CHANGED@@3HB  (001CA344)
               1842  731   ?NMUI_EVT_TREE_SET_ENABLED_STATES@@3HB  (001CA364)
               1843  732   ?NMUI_EVT_TREE_SHOW_IN_PLACE_EDITOR@@3HB  (001CA350)
               1844  733   ?NMUI_GUI_WINDOW_PANNED@@3HB  (001C995C)
               1845  734   ?NMUI_GUI_WINDOW_SCALED@@3HB  (001C9960)
               1846  735   ?NewLine@wxStyledTextCtrl@@QAEXXZ  (000C87F0)
               1847  736   ?NotifyChange@wxStyledTextCtrl@@IAEXXZ  (000CC050)
               1848  737   ?NotifyChanges@ResourceChangeContext@nmui@@QAE_NXZ  (0001ED70)
               1849  738   ?NotifyObservers@AutoCompleteDictionary@nmui@@IAEXXZ  (000057D0)
               1850  739   ?NotifyParent@wxStyledTextCtrl@@IAEXPAUSCNotification@@@Z  (000CC1B0)
               1851  73A   ?OnActivate@GuiController@nmui@@QAEXAAVwxActivateEvent@@@Z  (00020EF0)
               1852  73B   ?OnActivate@GuiState@nmui@@UAEXAAVwxActivateEvent@@@Z  (00037DF0)
               1853  73C   ?OnActivate@NMSplash@nmui@@IAEXAAVwxActivateEvent@@@Z  (00037DF0)
               1854  73D   ?OnActivate@NMSplitter@nmui@@IAEXAAVwxActivateEvent@@@Z  (00094540)
               1855  73E   ?OnApply@Dialog@nmui@@IAEXAAVwxCommandEvent@@@Z  (0004BC60)
               1856  73F   ?OnAutosizeColumns@NoButtonDown@NMColumnWindowStates@nmui@@QAEXAAVwxCommandEvent@@@Z  (000459F0)
               1857  740   ?OnBestSizeChanged@Panel@nmui@@IAEXAAVwxCommandEvent@@@Z  (000A52F0)
               1858  741   ?OnButtonClicked@DirectoryControl@nmui@@IAEXAAVwxCommandEvent@@@Z  (0000A4F0)
               1859  742   ?OnButtonClicked@FilenameControl@nmui@@IAEXAAVwxCommandEvent@@@Z  (00015350)
               1860  743   ?OnCancel@Dialog@nmui@@IAEXAAVwxCommandEvent@@@Z  (0004BC90)
               1861  744   ?OnCancel@NMProgressDialog@nmui@@IAEXAAVwxCommandEvent@@@Z  (0007EA00)
               1862  745   ?OnChar@Button@nmui@@IAEXAAVwxKeyEvent@@@Z  (00039090)
               1863  746   ?OnChar@GuiController@nmui@@QAEXAAVwxKeyEvent@@@Z  (00020D60)
               1864  747   ?OnChar@GuiState@nmui@@UAE_NAAVwxKeyEvent@@@Z  (000075A0)
               1865  748   ?OnChar@HoverState@NMListControlStates@nmui@@UAE_NAAVwxKeyEvent@@@Z  (00063EC0)
               1866  749   ?OnChar@NMSimpleTextCtrlValidator@nmui@@IAEXAAVwxKeyEvent@@@Z  (0009C680)
               1867  74A   ?OnChar@NMTextRenameCtrl@nmui@@QAEXAAVwxKeyEvent@@@Z  (0009E190)
               1868  74B   ?OnChar@Slider@nmui@@IAEXAAVwxKeyEvent@@@Z  (00091780)
               1869  74C   ?OnChar@WaitState@TreeControlStates@nmui@@UAE_NAAVwxKeyEvent@@@Z  (000BDE80)
               1870  74D   ?OnChar@wxStyledTextCtrl@@IAEXAAVwxKeyEvent@@@Z  (000CA980)
               1871  74E   ?OnChildFocus@Panel@nmui@@UAEXAAVwxChildFocusEvent@@@Z  (000A5250)
               1872  74F   ?OnChildKillFocus@DirectoryControl@nmui@@IAEXAAVwxChildFocusEvent@@@Z  (0000A4D0)
               1873  750   ?OnChildKillFocus@FilenameControl@nmui@@IAEXAAVwxChildFocusEvent@@@Z  (000149E0)
               1874  751   ?OnClose@NMProgressDialog@nmui@@IAEXAAVwxCloseEvent@@@Z  (0007EA30)
               1875  752   ?OnCloseWindow@Dialog@nmui@@IAEXAAVwxCloseEvent@@@Z  (0004D360)
               1876  753   ?OnCloseWindow@NMSplash@nmui@@IAEXAAVwxCloseEvent@@@Z  (00093330)
               1877  754   ?OnContextMenu@NMRollupSection@nmui@@UAEXAAVwxMouseEvent@@@Z  (00037DF0)
               1878  755   ?OnContextMenu@wxStyledTextCtrl@@IAEXAAVwxContextMenuEvent@@@Z  (000CA8A0)
               1879  756   ?OnData@NMMultipleDropTarget@nmui@@UAE?AW4wxDragResult@@HHW43@@Z  (0004DAF0)
               1880  757   ?OnData@NMUserDataDropTarget@nmui@@UAE?AW4wxDragResult@@HHW43@@Z  (0004DD60)
               1881  758   ?OnDeferredSize@NMSplitter@nmui@@IAEXAAVwxCommandEvent@@@Z  (000963D0)
               1882  759   ?OnDismiss@PopupMenu@nmui@@MAEXXZ  (00079AB0)
               1883  75A   ?OnEnter@DirectoryControl@nmui@@IAEXAAVwxCommandEvent@@@Z  (0000A4A0)
               1884  75B   ?OnEnter@FilenameControl@nmui@@IAEXAAVwxCommandEvent@@@Z  (000151A0)
               1885  75C   ?OnEntry@DragColumnState@NMColumnWindowStates@nmui@@UAEXPAX@Z  (00045B50)
               1886  75D   ?OnEntry@DragFrameMarkerState@NMSimpleGraphStates@nmui@@UAEXPAX@Z  (0008F040)
               1887  75E   ?OnEntry@DragSelectState@NMListControlStates@nmui@@UAEXPAX@Z  (000649C0)
               1888  75F   ?OnEntry@DragState@NMListControlStates@nmui@@UAEXPAX@Z  (00064340)
               1889  760   ?OnEntry@DragState@TreeControlStates@nmui@@UAEXPAX@Z  (000BE090)
               1890  761   ?OnEntry@DragValueMarkerState@NMSimpleGraphStates@nmui@@UAEXPAX@Z  (0008F2F0)
               1891  762   ?OnEntry@FSMState@nmui@@UAEXPAX@Z  (00037DF0)
               1892  763   ?OnEntry@HoverState@NMListControlStates@nmui@@UAEXPAX@Z  (00063400)
               1893  764   ?OnEntry@MouseDragDownState@nmui@@UAEXPAX@Z  (000480A0)
               1894  765   ?OnEntry@MouseDragUpState@nmui@@UAEXPAX@Z  (00046510)
               1895  766   ?OnEntry@ScrollDownState@nmui@@UAEXPAX@Z  (00048250)
               1896  767   ?OnEntry@ScrollPageDownState@nmui@@UAEXPAX@Z  (00048340)
               1897  768   ?OnEntry@ScrollPageUpState@nmui@@UAEXPAX@Z  (00047100)
               1898  769   ?OnEntry@ScrollUpState@nmui@@UAEXPAX@Z  (000466E0)
               1899  76A   ?OnEntry@ThumbDragState@nmui@@UAEXPAX@Z  (00047E20)
               1900  76B   ?OnEntry@WaitState@TreeControlStates@nmui@@UAEXPAX@Z  (000BD490)
               1901  76C   ?OnEraseBackground@Button@nmui@@IAEXAAVwxEraseEvent@@@Z  (00037DF0)
               1902  76D   ?OnEraseBackground@NMRadioBox@nmui@@IAEXAAVwxEraseEvent@@@Z  (00037DF0)
               1903  76E   ?OnEraseBackground@NMSplitter@nmui@@IAEXAAVwxEraseEvent@@@Z  (00037DF0)
               1904  76F   ?OnEraseBackground@NMStaticBitmap@nmui@@IAEXAAVwxEraseEvent@@@Z  (00037DF0)
               1905  770   ?OnEraseBackground@RawGLCanvas@nmui@@IAEXAAVwxEraseEvent@@@Z  (00037DF0)
               1906  771   ?OnEraseBackground@Slider@nmui@@IAEXAAVwxEraseEvent@@@Z  (00037DF0)
               1907  772   ?OnEraseBackground@SpinButton@nmui@@IAEXAAVwxEraseEvent@@@Z  (00037DF0)
               1908  773   ?OnEraseBackground@wxStyledTextCtrl@@IAEXAAVwxEraseEvent@@@Z  (00037DF0)
               1909  774   ?OnEvent@GuiController@nmui@@QAE_NAAVwxEvent@@@Z  (00020620)
               1910  775   ?OnExit@AppMainLoop@nmui@@UAEXXZ  (000011A0)
               1911  776   ?OnExit@DragColumnState@NMColumnWindowStates@nmui@@UAEXXZ  (00045BD0)
               1912  777   ?OnExit@DragFrameMarkerState@NMSimpleGraphStates@nmui@@UAEXXZ  (0008F080)
               1913  778   ?OnExit@DragSelectState@NMListControlStates@nmui@@UAEXXZ  (00064E10)
               1914  779   ?OnExit@DragState@NMListControlStates@nmui@@UAEXXZ  (00064360)
               1915  77A   ?OnExit@DragState@TreeControlStates@nmui@@UAEXXZ  (000BE0D0)
               1916  77B   ?OnExit@DragValueMarkerState@NMSimpleGraphStates@nmui@@UAEXXZ  (0008F080)
               1917  77C   ?OnExit@FSMState@nmui@@UAEXXZ  (0000A8C0)
               1918  77D   ?OnExit@MouseDragDownState@nmui@@UAEXXZ  (00046620)
               1919  77E   ?OnExit@MouseDragUpState@nmui@@UAEXXZ  (00046620)
               1920  77F   ?OnExit@ScrollDownState@nmui@@UAEXXZ  (00046620)
               1921  780   ?OnExit@ScrollPageDownState@nmui@@UAEXXZ  (00046620)
               1922  781   ?OnExit@ScrollPageUpState@nmui@@UAEXXZ  (00046620)
               1923  782   ?OnExit@ScrollUpState@nmui@@UAEXXZ  (00046620)
               1924  783   ?OnExit@ThumbDragState@nmui@@UAEXXZ  (00046450)
               1925  784   ?OnFocus@Panel@nmui@@QAEXAAVwxFocusEvent@@@Z  (000A5280)
               1926  785   ?OnFocusChanged@Button@nmui@@IAEXAAVwxFocusEvent@@@Z  (00037F70)
               1927  786   ?OnFocusChanged@CheckBox@nmui@@IAEXAAVwxFocusEvent@@@Z  (00037F70)
               1928  787   ?OnFocusChanged@NMRadioBox@nmui@@IAEXAAVwxFocusEvent@@@Z  (00037F70)
               1929  788   ?OnFocusChanged@Slider@nmui@@IAEXAAVwxFocusEvent@@@Z  (00037F70)
               1930  789   ?OnGainFocus@wxStyledTextCtrl@@IAEXAAVwxFocusEvent@@@Z  (000CAA20)
               1931  78A   ?OnIdle@GuiController@nmui@@QAEXAAVwxIdleEvent@@@Z  (000207E0)
               1932  78B   ?OnIdle@GuiState@nmui@@UAEXAAVwxIdleEvent@@@Z  (00037DF0)
               1933  78C   ?OnIdle@wxStyledTextCtrl@@IAEXAAVwxIdleEvent@@@Z  (000CAA80)
               1934  78D   ?OnInternalIdle@NMRollupHeading@nmui@@EAEXXZ  (000812E0)
               1935  78E   ?OnInvalidCharacter@NMSimpleTextCtrlValidator@nmui@@UAEX_W@Z  (0009C970)
               1936  78F   ?OnKeyDown@DragState@NMListControlStates@nmui@@UAE_NAAVwxKeyEvent@@@Z  (00064830)
               1937  790   ?OnKeyDown@DragState@TreeControlStates@nmui@@UAE_NAAVwxKeyEvent@@@Z  (000BE610)
               1938  791   ?OnKeyDown@GuiController@nmui@@QAEXAAVwxKeyEvent@@@Z  (00020C80)
               1939  792   ?OnKeyDown@GuiState@nmui@@UAE_NAAVwxKeyEvent@@@Z  (000075A0)
               1940  793   ?OnKeyDown@HoverState@NMListControlStates@nmui@@UAE_NAAVwxKeyEvent@@@Z  (00063A80)
               1941  794   ?OnKeyDown@HoverState@nmui@@UAE_NAAVwxKeyEvent@@@Z  (0004A9A0)
               1942  795   ?OnKeyDown@NMMenuBarFocusHelper@nmui@@MAE_NAAVwxKeyEvent@@@Z  (00069180)
               1943  796   ?OnKeyDown@NMRadioBox@nmui@@IAEXAAVwxKeyEvent@@@Z  (00080020)
               1944  797   ?OnKeyDown@NMTextRenameCtrl@nmui@@QAEXAAVwxKeyEvent@@@Z  (0009E120)
               1945  798   ?OnKeyDown@WaitState@TreeControlStates@nmui@@UAE_NAAVwxKeyEvent@@@Z  (000BEE30)
               1946  799   ?OnKeyDown@wxStyledTextCtrl@@IAEXAAVwxKeyEvent@@@Z  (000CBE30)
               1947  79A   ?OnKeyUp@DragState@TreeControlStates@nmui@@UAE_NAAVwxKeyEvent@@@Z  (000BE6B0)
               1948  79B   ?OnKeyUp@GuiController@nmui@@QAEXAAVwxKeyEvent@@@Z  (00020CF0)
               1949  79C   ?OnKeyUp@GuiState@nmui@@UAE_NAAVwxKeyEvent@@@Z  (000075A0)
               1950  79D   ?OnKeyUp@NMMenuBarFocusHelper@nmui@@MAE_NAAVwxKeyEvent@@@Z  (00069210)
               1951  79E   ?OnKillFocus@GuiController@nmui@@QAEXAAVwxFocusEvent@@@Z  (00020E90)
               1952  79F   ?OnKillFocus@GuiState@nmui@@UAEXAAVwxFocusEvent@@@Z  (00037DF0)
               1953  7A0   ?OnKillFocus@HoverState@NMListControlStates@nmui@@UAEXAAVwxFocusEvent@@@Z  (00063FE0)
               1954  7A1   ?OnKillFocus@NMSplitter@nmui@@IAEXAAVwxFocusEvent@@@Z  (00094540)
               1955  7A2   ?OnKillFocus@NMTextRenameCtrl@nmui@@QAEXAAVwxFocusEvent@@@Z  (0009E2A0)
               1956  7A3   ?OnKillFocus@WaitState@TreeControlStates@nmui@@UAEXAAVwxFocusEvent@@@Z  (000BDF60)
               1957  7A4   ?OnLeftButtonDoubleClick@GuiState@nmui@@UAE_NAAVwxMouseEvent@@@Z  (000075A0)
               1958  7A5   ?OnLeftButtonDoubleClick@HoverState@NMListControlStates@nmui@@UAE_NAAVwxMouseEvent@@@Z  (00063740)
               1959  7A6   ?OnLeftButtonDoubleClick@HoverState@nmui@@UAE_NAAVwxMouseEvent@@@Z  (00047D90)
               1960  7A7   ?OnLeftButtonDoubleClick@NoButtonDown@NMColumnWindowStates@nmui@@UAE_NAAVwxMouseEvent@@@Z  (000457C0)
               1961  7A8   ?OnLeftButtonDoubleClick@WaitState@TreeControlStates@nmui@@UAE_NAAVwxMouseEvent@@@Z  (000BD8D0)
               1962  7A9   ?OnLeftButtonDown@GuiState@nmui@@UAE_NAAVwxMouseEvent@@@Z  (000075A0)
               1963  7AA   ?OnLeftButtonDown@HoverState@NMListControlStates@nmui@@UAE_NAAVwxMouseEvent@@@Z  (000635B0)
               1964  7AB   ?OnLeftButtonDown@HoverState@NMSimpleGraphStates@nmui@@UAE_NAAVwxMouseEvent@@@Z  (0008FAE0)
               1965  7AC   ?OnLeftButtonDown@HoverState@nmui@@UAE_NAAVwxMouseEvent@@@Z  (000485E0)
               1966  7AD   ?OnLeftButtonDown@NMMenuBarFocusHelper@nmui@@MAE_NAAVwxMouseEvent@@@Z  (00069280)
               1967  7AE   ?OnLeftButtonDown@NoButtonDown@NMColumnWindowStates@nmui@@UAE_NAAVwxMouseEvent@@@Z  (00045720)
               1968  7AF   ?OnLeftButtonDown@WaitState@TreeControlStates@nmui@@UAE_NAAVwxMouseEvent@@@Z  (000BF4B0)
               1969  7B0   ?OnLeftButtonUp@DragColumnState@NMColumnWindowStates@nmui@@UAE_NAAVwxMouseEvent@@@Z  (00026530)
               1970  7B1   ?OnLeftButtonUp@DragFrameMarkerState@NMSimpleGraphStates@nmui@@UAE_NAAVwxMouseEvent@@@Z  (0008F870)
               1971  7B2   ?OnLeftButtonUp@DragSelectState@NMListControlStates@nmui@@UAE_NAAVwxMouseEvent@@@Z  (00064B80)
               1972  7B3   ?OnLeftButtonUp@DragState@NMListControlStates@nmui@@UAE_NAAVwxMouseEvent@@@Z  (000643E0)
               1973  7B4   ?OnLeftButtonUp@DragState@TreeControlStates@nmui@@UAE_NAAVwxMouseEvent@@@Z  (000BE190)
               1974  7B5   ?OnLeftButtonUp@DragValueMarkerState@NMSimpleGraphStates@nmui@@UAE_NAAVwxMouseEvent@@@Z  (0008F9A0)
               1975  7B6   ?OnLeftButtonUp@GuiState@nmui@@UAE_NAAVwxMouseEvent@@@Z  (000075A0)
               1976  7B7   ?OnLeftButtonUp@HoverState@NMListControlStates@nmui@@UAE_NAAVwxMouseEvent@@@Z  (00065040)
               1977  7B8   ?OnLeftButtonUp@HoverState@NMSimpleGraphStates@nmui@@UAE_NAAVwxMouseEvent@@@Z  (0008F520)
               1978  7B9   ?OnLeftButtonUp@HoverState@nmui@@UAE_NAAVwxMouseEvent@@@Z  (0004AAE0)
               1979  7BA   ?OnLeftButtonUp@MouseDragDownState@nmui@@UAE_NAAVwxMouseEvent@@@Z  (00026530)
               1980  7BB   ?OnLeftButtonUp@MouseDragUpState@nmui@@UAE_NAAVwxMouseEvent@@@Z  (00026530)
               1981  7BC   ?OnLeftButtonUp@ScrollDownState@nmui@@UAE_NAAVwxMouseEvent@@@Z  (00026530)
               1982  7BD   ?OnLeftButtonUp@ScrollPageDownState@nmui@@UAE_NAAVwxMouseEvent@@@Z  (00026530)
               1983  7BE   ?OnLeftButtonUp@ScrollPageUpState@nmui@@UAE_NAAVwxMouseEvent@@@Z  (00026530)
               1984  7BF   ?OnLeftButtonUp@ScrollUpState@nmui@@UAE_NAAVwxMouseEvent@@@Z  (00026530)
               1985  7C0   ?OnLeftButtonUp@ThumbDragState@nmui@@UAE_NAAVwxMouseEvent@@@Z  (00026530)
               1986  7C1   ?OnLeftButtonUp@WaitState@TreeControlStates@nmui@@UAE_NAAVwxMouseEvent@@@Z  (000BD6F0)
               1987  7C2   ?OnListBox@wxStyledTextCtrl@@IAEXAAVwxCommandEvent@@@Z  (000CAA70)
               1988  7C3   ?OnLoseFocus@wxStyledTextCtrl@@IAEXAAVwxFocusEvent@@@Z  (000CAA00)
               1989  7C4   ?OnMaxLengthExceeded@NMSimpleTextCtrlValidator@nmui@@UAEXXZ  (0009C900)
               1990  7C5   ?OnMenu@wxStyledTextCtrl@@IAEXAAVwxCommandEvent@@@Z  (000CAA50)
               1991  7C6   ?OnMessage@GuiState@nmui@@UAEXHPAX@Z  (00099C40)
               1992  7C7   ?OnMiddleButtonDoubleClick@GuiState@nmui@@UAE_NAAVwxMouseEvent@@@Z  (000075A0)
               1993  7C8   ?OnMiddleButtonDown@GuiState@nmui@@UAE_NAAVwxMouseEvent@@@Z  (000075A0)
               1994  7C9   ?OnMiddleButtonDown@HoverState@nmui@@UAE_NAAVwxMouseEvent@@@Z  (0004AB30)
               1995  7CA   ?OnMiddleButtonDown@NMMenuBarFocusHelper@nmui@@MAE_NAAVwxMouseEvent@@@Z  (00069280)
               1996  7CB   ?OnMiddleButtonUp@GuiState@nmui@@UAE_NAAVwxMouseEvent@@@Z  (000075A0)
               1997  7CC   ?OnMouse@GuiController@nmui@@QAEXAAVwxMouseEvent@@@Z  (000209E0)
               1998  7CD   ?OnMouseCaptureChanged@NMSplitter@nmui@@IAEXAAVwxMouseCaptureChangedEvent@@@Z  (00094540)
               1999  7CE   ?OnMouseEnter@GuiState@nmui@@UAEXAAVwxMouseEvent@@@Z  (00037DF0)
               2000  7CF   ?OnMouseEvent@Button@nmui@@IAEXAAVwxMouseEvent@@@Z  (00039D60)
               2001  7D0   ?OnMouseEvent@NMMenuBarFocusHelper@nmui@@IAE_NAAVwxMouseEvent@@@Z  (00069280)
               2002  7D1   ?OnMouseEvent@NMRadioBox@nmui@@IAEXAAVwxMouseEvent@@@Z  (0007F960)
               2003  7D2   ?OnMouseEvent@NMSplitter@nmui@@IAEXAAVwxMouseEvent@@@Z  (00096880)
               2004  7D3   ?OnMouseEvent@Slider@nmui@@IAEXAAVwxMouseEvent@@@Z  (000914B0)
               2005  7D4   ?OnMouseLeave@DragState@NMListControlStates@nmui@@UAEXAAVwxMouseEvent@@@Z  (00064720)
               2006  7D5   ?OnMouseLeave@DragState@TreeControlStates@nmui@@UAEXAAVwxMouseEvent@@@Z  (000BE290)
               2007  7D6   ?OnMouseLeave@GuiState@nmui@@UAEXAAVwxMouseEvent@@@Z  (00037DF0)
               2008  7D7   ?OnMouseLeftDown@wxStyledTextCtrl@@IAEXAAVwxMouseEvent@@@Z  (000CA700)
               2009  7D8   ?OnMouseLeftUp@wxStyledTextCtrl@@IAEXAAVwxMouseEvent@@@Z  (000CA7C0)
               2010  7D9   ?OnMouseMiddleUp@wxStyledTextCtrl@@IAEXAAVwxMouseEvent@@@Z  (000CA860)
               2011  7DA   ?OnMouseMove@DragColumnState@NMColumnWindowStates@nmui@@UAE_NAAVwxMouseEvent@@@Z  (00045C70)
               2012  7DB   ?OnMouseMove@DragFrameMarkerState@NMSimpleGraphStates@nmui@@UAE_NAAVwxMouseEvent@@@Z  (0008F7D0)
               2013  7DC   ?OnMouseMove@DragSelectState@NMListControlStates@nmui@@UAE_NAAVwxMouseEvent@@@Z  (00064CD0)
               2014  7DD   ?OnMouseMove@DragState@NMListControlStates@nmui@@UAE_NAAVwxMouseEvent@@@Z  (00064620)
               2015  7DE   ?OnMouseMove@DragState@TreeControlStates@nmui@@UAE_NAAVwxMouseEvent@@@Z  (000BEA80)
               2016  7DF   ?OnMouseMove@DragValueMarkerState@NMSimpleGraphStates@nmui@@UAE_NAAVwxMouseEvent@@@Z  (0008F8F0)
               2017  7E0   ?OnMouseMove@GuiState@nmui@@UAE_NAAVwxMouseEvent@@@Z  (000075A0)
               2018  7E1   ?OnMouseMove@HoverState@NMListControlStates@nmui@@UAE_NAAVwxMouseEvent@@@Z  (00064070)
               2019  7E2   ?OnMouseMove@HoverState@NMSimpleGraphStates@nmui@@UAE_NAAVwxMouseEvent@@@Z  (0008FA30)
               2020  7E3   ?OnMouseMove@HoverState@nmui@@UAE_NAAVwxMouseEvent@@@Z  (00047BE0)
               2021  7E4   ?OnMouseMove@MouseDragDownState@nmui@@UAE_NAAVwxMouseEvent@@@Z  (00048100)
               2022  7E5   ?OnMouseMove@MouseDragUpState@nmui@@UAE_NAAVwxMouseEvent@@@Z  (00047FC0)
               2023  7E6   ?OnMouseMove@NoButtonDown@NMColumnWindowStates@nmui@@UAE_NAAVwxMouseEvent@@@Z  (00045A30)
               2024  7E7   ?OnMouseMove@ThumbDragState@nmui@@UAE_NAAVwxMouseEvent@@@Z  (00047E70)
               2025  7E8   ?OnMouseMove@WaitState@TreeControlStates@nmui@@UAE_NAAVwxMouseEvent@@@Z  (000BDC40)
               2026  7E9   ?OnMouseMove@wxStyledTextCtrl@@IAEXAAVwxMouseEvent@@@Z  (000CA780)
               2027  7EA   ?OnMouseRightUp@wxStyledTextCtrl@@IAEXAAVwxMouseEvent@@@Z  (000CA820)
               2028  7EB   ?OnMouseWheel@GuiState@nmui@@UAE_NAAVwxMouseEvent@@@Z  (000075A0)
               2029  7EC   ?OnMouseWheel@HoverState@nmui@@UAE_NAAVwxMouseEvent@@@Z  (00047D30)
               2030  7ED   ?OnMouseWheel@TreeState@TreeControlStates@nmui@@UAE_NAAVwxMouseEvent@@@Z  (000BD390)
               2031  7EE   ?OnMouseWheel@wxStyledTextCtrl@@IAEXAAVwxMouseEvent@@@Z  (000CA930)
               2032  7EF   ?OnNavigationKey@Button@nmui@@IAEXAAVwxNavigationKeyEvent@@@Z  (0003A090)
               2033  7F0   ?OnNavigationKey@GuiController@nmui@@QAEXAAVwxNavigationKeyEvent@@@Z  (00020DD0)
               2034  7F1   ?OnNavigationKey@GuiState@nmui@@UAE_NAAVwxNavigationKeyEvent@@@Z  (000075A0)
               2035  7F2   ?OnNavigationKey@HoverState@NMListControlStates@nmui@@UAE_NAAVwxNavigationKeyEvent@@@Z  (00064E50)
               2036  7F3   ?OnNavigationKey@Panel@nmui@@QAEXAAVwxNavigationKeyEvent@@@Z  (000A51B0)
               2037  7F4   ?OnNavigationKey@WaitState@TreeControlStates@nmui@@UAE_NAAVwxNavigationKeyEvent@@@Z  (000BEC40)
               2038  7F5   ?OnOK@Dialog@nmui@@IAEXAAVwxCommandEvent@@@Z  (0004BC10)
               2039  7F6   ?OnOK@NMSimpleMultiOptionDialog@nmui@@IAEXAAVwxCommandEvent@@@Z  (00090490)
               2040  7F7   ?OnPaint@Button@nmui@@IAEXAAVwxPaintEvent@@@Z  (000396D0)
               2041  7F8   ?OnPaint@DragState@TreeControlStates@nmui@@UAEXAAVwxDC@@@Z  (000BE700)
               2042  7F9   ?OnPaint@GuiController@nmui@@QAEXAAVwxDC@@@Z  (00020F50)
               2043  7FA   ?OnPaint@GuiState@nmui@@UAEXAAVwxDC@@@Z  (00037DF0)
               2044  7FB   ?OnPaint@NMRadioBox@nmui@@IAEXAAVwxPaintEvent@@@Z  (0007FA60)
               2045  7FC   ?OnPaint@NMSplitter@nmui@@IAEXAAVwxPaintEvent@@@Z  (00096260)
               2046  7FD   ?OnPaint@NMStaticBitmap@nmui@@IAEXAAVwxPaintEvent@@@Z  (00097620)
               2047  7FE   ?OnPaint@NMStaticBox@nmui@@IAEXAAVwxPaintEvent@@@Z  (000980E0)
               2048  7FF   ?OnPaint@NMToolBar@nmui@@QAEXAAVwxPaintEvent@@@Z  (000A17D0)
               2049  800   ?OnPaint@Panel@nmui@@IAEXAAVwxPaintEvent@@@Z  (000A60A0)
               2050  801   ?OnPaint@RawGLCanvas@nmui@@IAEXAAVwxPaintEvent@@@Z  (000ABC40)
               2051  802   ?OnPaint@Slider@nmui@@IAEXAAVwxPaintEvent@@@Z  (00091AA0)
               2052  803   ?OnPaint@SpinButton@nmui@@IAEXAAVwxPaintEvent@@@Z  (00092300)
               2053  804   ?OnPaint@wxStyledTextCtrl@@IAEXAAVwxPaintEvent@@@Z  (000CA5B0)
               2054  805   ?OnRightButtonDoubleClick@GuiState@nmui@@UAE_NAAVwxMouseEvent@@@Z  (000075A0)
               2055  806   ?OnRightButtonDown@DragState@NMListControlStates@nmui@@UAE_NAAVwxMouseEvent@@@Z  (000644F0)
               2056  807   ?OnRightButtonDown@DragState@TreeControlStates@nmui@@UAE_NAAVwxMouseEvent@@@Z  (00022410)
               2057  808   ?OnRightButtonDown@GuiState@nmui@@UAE_NAAVwxMouseEvent@@@Z  (000075A0)
               2058  809   ?OnRightButtonDown@HoverState@NMListControlStates@nmui@@UAE_NAAVwxMouseEvent@@@Z  (000638F0)
               2059  80A   ?OnRightButtonDown@HoverState@nmui@@UAE_NAAVwxMouseEvent@@@Z  (0004AB30)
               2060  80B   ?OnRightButtonDown@NMMenuBarFocusHelper@nmui@@MAE_NAAVwxMouseEvent@@@Z  (00069280)
               2061  80C   ?OnRightButtonDown@NoButtonDown@NMColumnWindowStates@nmui@@UAE_NAAVwxMouseEvent@@@Z  (00045810)
               2062  80D   ?OnRightButtonDown@WaitState@TreeControlStates@nmui@@UAE_NAAVwxMouseEvent@@@Z  (000BDAF0)
               2063  80E   ?OnRightButtonUp@DragFrameMarkerState@NMSimpleGraphStates@nmui@@UAE_NAAVwxMouseEvent@@@Z  (0008F8B0)
               2064  80F   ?OnRightButtonUp@DragState@TreeControlStates@nmui@@UAE_NAAVwxMouseEvent@@@Z  (000BE230)
               2065  810   ?OnRightButtonUp@DragValueMarkerState@NMSimpleGraphStates@nmui@@UAE_NAAVwxMouseEvent@@@Z  (0008F9F0)
               2066  811   ?OnRightButtonUp@GuiState@nmui@@UAE_NAAVwxMouseEvent@@@Z  (000075A0)
               2067  812   ?OnRightButtonUp@HoverState@NMListControlStates@nmui@@UAE_NAAVwxMouseEvent@@@Z  (00063A00)
               2068  813   ?OnRightButtonUp@HoverState@NMSimpleGraphStates@nmui@@UAE_NAAVwxMouseEvent@@@Z  (0008F630)
               2069  814   ?OnRightButtonUp@NoButtonDown@NMColumnWindowStates@nmui@@UAE_NAAVwxMouseEvent@@@Z  (00022410)
               2070  815   ?OnRightButtonUp@WaitState@TreeControlStates@nmui@@UAE_NAAVwxMouseEvent@@@Z  (000BDBE0)
               2071  816   ?OnScroll@wxStyledTextCtrl@@IAEXAAVwxScrollEvent@@@Z  (000CBDA0)
               2072  817   ?OnScrollWin@wxStyledTextCtrl@@IAEXAAVwxScrollWinEvent@@@Z  (000CA660)
               2073  818   ?OnSetCursor@NMSplitter@nmui@@IAEXAAVwxSetCursorEvent@@@Z  (00095620)
               2074  819   ?OnSetFocus@GuiController@nmui@@QAEXAAVwxFocusEvent@@@Z  (00020E30)
               2075  81A   ?OnSetFocus@GuiState@nmui@@UAEXAAVwxFocusEvent@@@Z  (00037DF0)
               2076  81B   ?OnSetFocus@HoverState@NMListControlStates@nmui@@UAEXAAVwxFocusEvent@@@Z  (00063F90)
               2077  81C   ?OnSetFocus@WaitState@TreeControlStates@nmui@@UAEXAAVwxFocusEvent@@@Z  (000BDF40)
               2078  81D   ?OnShow@RawGLCanvas@nmui@@IAEXAAVwxShowEvent@@@Z  (000AB7C0)
               2079  81E   ?OnSize@Button@nmui@@IAEXAAVwxSizeEvent@@@Z  (000986F0)
               2080  81F   ?OnSize@NMSplitter@nmui@@IAEXAAVwxSizeEvent@@@Z  (00094400)
               2081  820   ?OnSize@NMStaticBitmap@nmui@@IAEXAAVwxSizeEvent@@@Z  (000986F0)
               2082  821   ?OnSize@Panel@nmui@@IAEXAAVwxSizeEvent@@@Z  (000A52C0)
               2083  822   ?OnSize@RawGLCanvas@nmui@@IAEXAAVwxSizeEvent@@@Z  (000AB760)
               2084  823   ?OnSize@Slider@nmui@@IAEXAAVwxSizeEvent@@@Z  (00091760)
               2085  824   ?OnSize@wxStyledTextCtrl@@IAEXAAVwxSizeEvent@@@Z  (000CA6C0)
               2086  825   ?OnStackFrame@StackLogger@nmui@@UAEXABVwxStackFrame@@@Z  (000037A0)
               2087  826   ?OnSysColourChanged@wxStyledTextCtrl@@IAEXAAVwxSysColourChangedEvent@@@Z  (000CAA40)
               2088  827   ?OnTimeOutClose@NMSplash@nmui@@IAEXAAVwxTimerEvent@@@Z  (00093300)
               2089  828   ?OnTimeOutMayCloseNow@NMSplash@nmui@@IAEXAAVwxTimerEvent@@@Z  (00093320)
               2090  829   ?OnTimer@DragState@TreeControlStates@nmui@@UAEXAAVwxTimerEvent@@@Z  (000BE490)
               2091  82A   ?OnTimer@FSMState@nmui@@UAEXAAVwxTimerEvent@@@Z  (00037DF0)
               2092  82B   ?OnTimer@FiniteStateMachine@nmui@@QAEXAAVwxTimerEvent@@@Z  (00021670)
               2093  82C   ?OnTimer@HoverState@NMListControlStates@nmui@@UAEXAAVwxTimerEvent@@@Z  (00064B10)
               2094  82D   ?OnTimer@MouseDragDownState@nmui@@UAEXAAVwxTimerEvent@@@Z  (00048200)
               2095  82E   ?OnTimer@MouseDragUpState@nmui@@UAEXAAVwxTimerEvent@@@Z  (00046550)
               2096  82F   ?OnTimer@ScrollDownState@nmui@@UAEXAAVwxTimerEvent@@@Z  (000482B0)
               2097  830   ?OnTimer@ScrollPageDownState@nmui@@UAEXAAVwxTimerEvent@@@Z  (00048370)
               2098  831   ?OnTimer@ScrollPageUpState@nmui@@UAEXAAVwxTimerEvent@@@Z  (00047160)
               2099  832   ?OnTimer@ScrollUpState@nmui@@UAEXAAVwxTimerEvent@@@Z  (00046720)
               2100  833   ?OnTimer@WaitState@TreeControlStates@nmui@@UAEXAAVwxTimerEvent@@@Z  (000BEA20)
               2101  834   ?OnValidationFailed@NMSimpleTextCtrlValidator@nmui@@UAEXABVwxString@@0@Z  (0009C3E0)
               2102  835   ?OutputDebugStringW@nmui@@YAXABVwxString@@@Z  (00002280)
               2103  836   ?P@win32Semaphore@nmui@@UAEXXZ  (000346A0)
               2104  837   ?P@win32Semaphore@nmui@@UAE_NH@Z  (000346B0)
               2105  838   ?PageDown@wxStyledTextCtrl@@QAEXXZ  (000C8710)
               2106  839   ?PageDownExtend@wxStyledTextCtrl@@QAEXXZ  (000C8730)
               2107  83A   ?PageDownRectExtend@wxStyledTextCtrl@@QAEXXZ  (000C9770)
               2108  83B   ?PageUp@wxStyledTextCtrl@@QAEXXZ  (000C86D0)
               2109  83C   ?PageUpExtend@wxStyledTextCtrl@@QAEXXZ  (000C86F0)
               2110  83D   ?PageUpRectExtend@wxStyledTextCtrl@@QAEXXZ  (000C9750)
               2111  83E   ?ParaDown@wxStyledTextCtrl@@QAEXXZ  (000C9470)
               2112  83F   ?ParaDownExtend@wxStyledTextCtrl@@QAEXXZ  (000C9490)
               2113  840   ?ParaUp@wxStyledTextCtrl@@QAEXXZ  (000C94B0)
               2114  841   ?ParaUpExtend@wxStyledTextCtrl@@QAEXXZ  (000C94D0)
               2115  842   ?Paste@wxStyledTextCtrl@@QAEXXZ  (000C7530)
               2116  843   ?Pending@AppMainLoop@nmui@@UBE_NXZ  (000011B0)
               2117  844   ?PixelsToPointsMeasurement@nmui@@YAHH@Z  (00002FE0)
               2118  845   ?PointFromPosition@wxStyledTextCtrl@@QAE?AVwxPoint@@H@Z  (000C9F30)
               2119  846   ?PositionAfter@wxStyledTextCtrl@@QAEHH@Z  (000C9510)
               2120  847   ?PositionBefore@wxStyledTextCtrl@@QAEHH@Z  (000C94F0)
               2121  848   ?PositionFromLine@wxStyledTextCtrl@@QAEHH@Z  (000C7350)
               2122  849   ?PositionFromPoint@wxStyledTextCtrl@@QAEHVwxPoint@@@Z  (000C57B0)
               2123  84A   ?PositionFromPointClose@wxStyledTextCtrl@@QAEHHH@Z  (000C57E0)
               2124  84B   ?PostRenderCallback@EATRenderCallback@nmui@@UAEXPAX@Z  (00037DF0)
               2125  84C   ?PreProcessMessage@AppMainLoop@nmui@@UAE_NPAUtagMSG@@@Z  (000011D0)
               2126  84D   ?PreRenderCallback@EATRenderCallback@nmui@@UAEXPAX@Z  (00037DF0)
               2127  84E   ?PrepareDC@NMScrollPanel@nmui@@UAEXAAVwxDC@@@Z  (0008AE80)
               2128  84F   ?ProcessEvent@wxEventDisabler@nmui@@MAE_NAAVwxEvent@@@Z  (000041C0)
               2129  850   ?ProcessLeftDown@NMComboBoxListCtrl@nmui@@MAE_NAAVwxMouseEvent@@@Z  (0004A950)
               2130  851   ?ProcessMessage@AppMainLoop@nmui@@UAEXPAUtagMSG@@@Z  (000011E0)
               2131  852   ?Raise@Dialog@nmui@@UAEXXZ  (0004B8B0)
               2132  853   ?Realize@NMToolBar@nmui@@QAEXXZ  (000A18C0)
               2133  854   ?RecalcSizes@NMStaticBoxSizer@nmui@@UAEXXZ  (00097F80)
               2134  855   ?RecursiveRemoveDirectory@nmui@@YAXABVwxString@@_N@Z  (00003A60)
               2135  856   ?Redo@wxStyledTextCtrl@@QAEXXZ  (000C5670)
               2136  857   ?ReenableOtherWindows@NMProgressDialog@nmui@@IAEXXZ  (0007F020)
               2137  858   ?RegisterImage@wxStyledTextCtrl@@QAEXHABVwxBitmap@@@Z  (000C6C40)
               2138  859   ?ReleaseDocument@wxStyledTextCtrl@@QAEXPAX@Z  (000C9000)
               2139  85A   ?Remove@TreeItem@nmui@@QAEXXZ  (000BCB00)
               2140  85B   ?RemoveAllChildren@TreeItem@nmui@@QAEXXZ  (000BC9A0)
               2141  85C   ?RemoveAndDestroy@TreeItem@nmui@@QAEXXZ  (000BCB20)
               2142  85D   ?RemoveChild@NMScrollWindow@nmui@@MAEXPAVwxWindowBase@@@Z  (0008AD90)
               2143  85E   ?RemoveChild@NMSplitter@nmui@@UAEXPAVwxWindowBase@@@Z  (00093EF0)
               2144  85F   ?RemoveChild@NMSwitchablePanel@nmui@@MAEXPAVwxWindowBase@@@Z  (00099840)
               2145  860   ?RemoveChild@Panel@nmui@@UAEXPAVwxWindowBase@@@Z  (000A51E0)
               2146  861   ?RemoveChild@TreeItem@nmui@@QAE_NPAV12@@Z  (000BC8E0)
               2147  862   ?RemoveEntry@AutoCompleteDictionary@nmui@@QAE_NABVwxString@@@Z  (000061A0)
               2148  863   ?RemoveIllegalCharsFromFilename@nmui@@YAXAAVwxString@@@Z  (00002B10)
               2149  864   ?RemoveInvalidString@NMSimpleTextCtrlValidator@nmui@@QAEXABVwxString@@@Z  (0009CEF0)
               2150  865   ?RemoveObserver@AutoCompleteDictionary@nmui@@IAEXPAVAutoCompleteDictionaryObserver@2@@Z  (00005DC0)
               2151  866   ?RemoveTreeItem@TreeControl@nmui@@IAE_NPAVTreeItem@2@@Z  (000BC420)
               2152  867   ?RemoveValidString@NMSimpleTextCtrlValidator@nmui@@QAEXABVwxString@@@Z  (0009CED0)
               2153  868   ?Reorder@TreeItem@nmui@@QAEXPAV12@@Z  (000BBA30)
               2154  869   ?Reparent@TreeItem@nmui@@QAE_NPAV12@0@Z  (000BBB30)
               2155  86A   ?ReplaceSelection@wxStyledTextCtrl@@QAEXABVwxString@@@Z  (000C73C0)
               2156  86B   ?ReplaceTarget@wxStyledTextCtrl@@QAEHABVwxString@@@Z  (000C7750)
               2157  86C   ?ReplaceTargetRE@wxStyledTextCtrl@@QAEHABVwxString@@@Z  (000C7810)
               2158  86D   ?RightMouseButtonDown@nmui@@YA_NXZ  (00002BA0)
               2159  86E   ?Run@AppMainLoop@nmui@@UAEHXZ  (00001560)
               2160  86F   ?Run@FileResourceManager@nmui@@UAEXABVwxString@@@Z  (00016860)
               2161  870   ?RunLoop@DialogModalData@nmui@@QAEXXZ  (0004B7C0)
               2162  871   ?STDOUT@MessageBoxLogger@nmui@@2IB  (00111FC8)
               2163  872   ?SaveFile@wxStyledTextCtrl@@QAE_NABVwxString@@@Z  (000CBB10)
               2164  873   ?ScrollToColumn@wxStyledTextCtrl@@QAEXH@Z  (000C9FA0)
               2165  874   ?ScrollToLine@wxStyledTextCtrl@@QAEXH@Z  (000C9F90)
               2166  875   ?SearchAnchor@wxStyledTextCtrl@@QAEXXZ  (000C8DE0)
               2167  876   ?SearchInTarget@wxStyledTextCtrl@@QAEHABVwxString@@@Z  (000C78D0)
               2168  877   ?SearchNext@wxStyledTextCtrl@@QAEHHABVwxString@@@Z  (000C8E00)
               2169  878   ?SearchPrev@wxStyledTextCtrl@@QAEHHABVwxString@@@Z  (000C8E90)
               2170  879   ?Select@TreeControl@nmui@@QAE_NPAVTreeItem@2@_N@Z  (000BBE60)
               2171  87A   ?Select@TreeItem@nmui@@IAEX_N@Z  (000B1710)
               2172  87B   ?SelectAll@wxStyledTextCtrl@@QAEXXZ  (000C56B0)
               2173  87C   ?SelectExclusively@TreeControl@nmui@@QAE_NPAVTreeItem@2@@Z  (000BBF80)
               2174  87D   ?SelectRange@TreeControl@nmui@@QAE_NPAVTreeItem@2@0_N@Z  (000BC070)
               2175  87E   ?SelectionIsRectangle@wxStyledTextCtrl@@QAE_NXZ  (000C8F60)
               2176  87F   ?SendMsg@wxStyledTextCtrl@@QAEJHJJ@Z  (000C54D0)
               2177  880   ?SetAllFolds@TextControl@nmui@@AAEX_N@Z  (000ADEE0)
               2178  881   ?SetAnchor@wxStyledTextCtrl@@QAEXH@Z  (000C5850)
               2179  882   ?SetBackSpaceUnIndents@wxStyledTextCtrl@@QAEX_N@Z  (000C7EA0)
               2180  883   ?SetBounds@WindowEvent@nmui@@QAEXABVwxRect@@@Z  (00009750)
               2181  884   ?SetBufferedDraw@wxStyledTextCtrl@@QAEX_N@Z  (000C5970)
               2182  885   ?SetCaretForeground@wxStyledTextCtrl@@QAEXABVwxColour@@@Z  (000C61B0)
               2183  886   ?SetCaretLineBack@wxStyledTextCtrl@@QAEXABVwxColour@@@Z  (000C66E0)
               2184  887   ?SetCaretLineVisible@wxStyledTextCtrl@@QAEX_N@Z  (000C6680)
               2185  888   ?SetCaretPeriod@wxStyledTextCtrl@@QAEXH@Z  (000C6310)
               2186  889   ?SetCaretWidth@wxStyledTextCtrl@@QAEXH@Z  (000C7690)
               2187  88A   ?SetCharsDefault@wxStyledTextCtrl@@QAEXXZ  (000C9920)
               2188  88B   ?SetCodePage@wxStyledTextCtrl@@QAEXH@Z  (000C59D0)
               2189  88C   ?SetControlCharSymbol@wxStyledTextCtrl@@QAEXH@Z  (000C9140)
               2190  88D   ?SetCurrentPos@wxStyledTextCtrl@@QAEXH@Z  (000C7020)
               2191  88E   ?SetCursorPos@nmui@@YAXHH@Z  (00002BC0)
               2192  88F   ?SetCustomDrawImageList@TreeControl@nmui@@QAEXAAV?$vector@VwxImage@@V?$allocator@VwxImage@@@std@@@std@@H@Z  (000BA340)
               2193  890   ?SetCustomErrorMessage@NMSimpleTextCtrlValidator@nmui@@QAEXABVwxString@@@Z  (0003C960)
               2194  891   ?SetData@NMUserDataObject@nmui@@UAE_NABVwxDataFormat@@IPBX@Z  (0004DA30)
               2195  892   ?SetDefaultItem@Panel@nmui@@UAEPAVwxWindow@@PAV3@@Z  (000A5150)
               2196  893   ?SetDocPointer@wxStyledTextCtrl@@QAEXPAX@Z  (000C8C80)
               2197  894   ?SetDragAllowMove@wxStyledTextEvent@@QAEX_N@Z  (00028430)
               2198  895   ?SetDragCopy@TreeEvent@nmui@@QAEX_N@Z  (000B1EF0)
               2199  896   ?SetDragReorder@TreeEvent@nmui@@QAEX_N@Z  (000B1F10)
               2200  897   ?SetDragResult@wxStyledTextEvent@@QAEXW4wxDragResult@@@Z  (00028440)
               2201  898   ?SetDragText@wxStyledTextEvent@@QAEXABVwxString@@@Z  (00028420)
               2202  899   ?SetEOLMode@wxStyledTextCtrl@@QAEXH@Z  (000C58D0)
               2203  89A   ?SetEdgeColour@wxStyledTextCtrl@@QAEXABVwxColour@@@Z  (000C8D80)
               2204  89B   ?SetEdgeColumn@wxStyledTextCtrl@@QAEXH@Z  (000C8CE0)
               2205  89C   ?SetEdgeMode@wxStyledTextCtrl@@QAEXH@Z  (000C8D20)
               2206  89D   ?SetEndAtLastLine@wxStyledTextCtrl@@QAEX_N@Z  (000C8190)
               2207  89E   ?SetFocus@NMIconBar@nmui@@UAEXXZ  (000552D0)
               2208  89F   ?SetFocus@NMListControl@nmui@@UAEXXZ  (0005A3C0)
               2209  8A0   ?SetFocus@Panel@nmui@@UAEXXZ  (000A5210)
               2210  8A1   ?SetFocus@TreeControl@nmui@@UAEXXZ  (0005A3C0)
               2211  8A2   ?SetFocusIgnoringChildren@Panel@nmui@@UAEXXZ  (000A5240)
               2212  8A3   ?SetFocusItem@TreeControl@nmui@@QAEXPAVTreeItem@2@@Z  (000B2730)
               2213  8A4   ?SetFoldExpanded@wxStyledTextCtrl@@QAEXH_N@Z  (000C7D80)
               2214  8A5   ?SetFoldFlags@wxStyledTextCtrl@@QAEXH@Z  (000C7E20)
               2215  8A6   ?SetFoldLevel@wxStyledTextCtrl@@QAEXHH@Z  (000C7C50)
               2216  8A7   ?SetFoldLevelNow@wxStyledTextEvent@@QAEXH@Z  (000B1410)
               2217  8A8   ?SetFoldLevelPrev@wxStyledTextEvent@@QAEXH@Z  (000283A0)
               2218  8A9   ?SetFoldMarginColour@wxStyledTextCtrl@@QAEX_NABVwxColour@@@Z  (000C8390)
               2219  8AA   ?SetFoldMarginHiColour@wxStyledTextCtrl@@QAEX_NABVwxColour@@@Z  (000C83F0)
               2220  8AB   ?SetHScrollBar@wxStyledTextCtrl@@QAEXPAVwxScrollBar@@@Z  (000C5510)
               2221  8AC   ?SetHighlightFocusedItems@TreeControl@nmui@@QAEX_N@Z  (000B2780)
               2222  8AD   ?SetHighlightGuide@wxStyledTextCtrl@@QAEXH@Z  (000C6F40)
               2223  8AE   ?SetHotspotActiveBackground@wxStyledTextCtrl@@QAEX_NABVwxColour@@@Z  (000C93D0)
               2224  8AF   ?SetHotspotActiveForeground@wxStyledTextCtrl@@QAEX_NABVwxColour@@@Z  (000C9370)
               2225  8B0   ?SetHotspotActiveUnderline@wxStyledTextCtrl@@QAEX_N@Z  (000C9430)
               2226  8B1   ?SetHotspotSingleLine@wxStyledTextCtrl@@QAEX_N@Z  (000C9450)
               2227  8B2   ?SetIcon@NMRollupHeading@nmui@@QAEXABVwxBitmap@@@Z  (00080DB0)
               2228  8B3   ?SetIcon@NMRollupSection@nmui@@QAEXABVwxBitmap@@@Z  (00082C50)
               2229  8B4   ?SetImageIndex@TreeItem@nmui@@QAEXH@Z  (000B5830)
               2230  8B5   ?SetImageList@TreeControl@nmui@@QAEXPAVwxImageList@@H@Z  (000B8EA0)
               2231  8B6   ?SetIndent@wxStyledTextCtrl@@QAEXH@Z  (000C6DB0)
               2232  8B7   ?SetIndentationGuides@wxStyledTextCtrl@@QAEX_N@Z  (000C6F00)
               2233  8B8   ?SetIntUserData@TreeItem@nmui@@QAEXH@Z  (000B1410)
               2234  8B9   ?SetInvalidCharacters@NMSimpleTextCtrlValidator@nmui@@QAEXABVwxString@@@Z  (0009C2E0)
               2235  8BA   ?SetInvalidStrings@NMSimpleTextCtrlValidator@nmui@@QAEXABV?$Vector@VwxString@@@NMutils@@@Z  (0009CEE0)
               2236  8BB   ?SetIsSeparator@TreeItem@nmui@@QAEX_N@Z  (000B1760)
               2237  8BC   ?SetItem@TreeEvent@nmui@@QAEXPAVTreeItem@2@@Z  (00083230)
               2238  8BD   ?SetItems@TreeEvent@nmui@@QAEXABV?$Vector@PAVTreeItem@nmui@@@NMutils@@@Z  (000B9970)
               2239  8BE   ?SetKFactor@NMExpFloatSlider@nmui@@QAEXM@Z  (0004EDB0)
               2240  8BF   ?SetKey@wxStyledTextEvent@@QAEXH@Z  (00083230)
               2241  8C0   ?SetKeyEvent@TreeEvent@nmui@@QAEXABVwxKeyEvent@@@Z  (000B1F60)
               2242  8C1   ?SetKeyWords@wxStyledTextCtrl@@QAEXHABVwxString@@@Z  (000C9B20)
               2243  8C2   ?SetLParam@wxStyledTextEvent@@QAEXH@Z  (000283E0)
               2244  8C3   ?SetLabel@NMRollupHeading@nmui@@UAEXABVwxString@@@Z  (00080D80)
               2245  8C4   ?SetLabel@NMRollupSection@nmui@@UAEXABVwxString@@@Z  (00082C10)
               2246  8C5   ?SetLabel@NMStaticText@nmui@@UAEXABVwxString@@@Z  (000986C0)
               2247  8C6   ?SetLabel@TreeEvent@nmui@@QAEXABVwxString@@@Z  (000B1F20)
               2248  8C7   ?SetLabel@TreeItem@nmui@@QAEXABVwxString@@@Z  (000B8430)
               2249  8C8   ?SetLastKeydownProcessed@wxStyledTextCtrl@@QAEX_N@Z  (00028260)
               2250  8C9   ?SetLayoutCache@wxStyledTextCtrl@@QAEXH@Z  (000C8080)
               2251  8CA   ?SetLength@wxStyledTextEvent@@QAEXH@Z  (00072790)
               2252  8CB   ?SetLexer@wxStyledTextCtrl@@QAEXH@Z  (000C99F0)
               2253  8CC   ?SetLexerLanguage@wxStyledTextCtrl@@QAEXABVwxString@@@Z  (000C9BB0)
               2254  8CD   ?SetLine@wxStyledTextEvent@@QAEXH@Z  (00028390)
               2255  8CE   ?SetLineIndentation@wxStyledTextCtrl@@QAEXHH@Z  (000C6E30)
               2256  8CF   ?SetLineState@wxStyledTextCtrl@@QAEXHH@Z  (000C65F0)
               2257  8D0   ?SetLinesAdded@wxStyledTextEvent@@QAEXH@Z  (00028380)
               2258  8D1   ?SetListType@wxStyledTextEvent@@QAEXH@Z  (000283F0)
               2259  8D2   ?SetMargin@wxStyledTextEvent@@QAEXH@Z  (000283B0)
               2260  8D3   ?SetMarginLeft@wxStyledTextCtrl@@QAEXH@Z  (000C7240)
               2261  8D4   ?SetMarginMask@wxStyledTextCtrl@@QAEXHH@Z  (000C5D60)
               2262  8D5   ?SetMarginRight@wxStyledTextCtrl@@QAEXH@Z  (000C7280)
               2263  8D6   ?SetMarginSensitive@wxStyledTextCtrl@@QAEXH_N@Z  (000C5DB0)
               2264  8D7   ?SetMarginType@wxStyledTextCtrl@@QAEXHH@Z  (000C5CC0)
               2265  8D8   ?SetMarginWidth@wxStyledTextCtrl@@QAEXHH@Z  (000C5D10)
               2266  8D9   ?SetMargins@wxStyledTextCtrl@@QAEXHH@Z  (000C9EA0)
               2267  8DA   ?SetMaxLength@NMSimpleTextCtrlValidator@nmui@@QAEXH@Z  (0003C9C0)
               2268  8DB   ?SetMessage@wxStyledTextEvent@@QAEXH@Z  (000283C0)
               2269  8DC   ?SetModEventMask@wxStyledTextCtrl@@QAEXH@Z  (000C8CA0)
               2270  8DD   ?SetModificationType@wxStyledTextEvent@@QAEXH@Z  (0003C9C0)
               2271  8DE   ?SetModifiers@wxStyledTextEvent@@QAEXH@Z  (00028360)
               2272  8DF   ?SetMouseDownCaptures@wxStyledTextCtrl@@QAEX_N@Z  (000C90C0)
               2273  8E0   ?SetMouseDwellTime@wxStyledTextCtrl@@QAEXH@Z  (000C7EE0)
               2274  8E1   ?SetMouseEvent@TreeEvent@nmui@@QAEXABVwxMouseEvent@@@Z  (000B1F80)
               2275  8E2   ?SetOvertype@wxStyledTextCtrl@@QAEX_N@Z  (000C7650)
               2276  8E3   ?SetPoint@TreeEvent@nmui@@QAEXABVwxPoint@@@Z  (00042990)
               2277  8E4   ?SetPosition@wxStyledTextEvent@@QAEXH@Z  (00028350)
               2278  8E5   ?SetPrintColourMode@wxStyledTextCtrl@@QAEXH@Z  (000C7100)
               2279  8E6   ?SetPrintMagnification@wxStyledTextCtrl@@QAEXH@Z  (000C70C0)
               2280  8E7   ?SetPrintWrapMode@wxStyledTextCtrl@@QAEXH@Z  (000C9330)
               2281  8E8   ?SetProperty@wxStyledTextCtrl@@QAEXABVwxString@@0@Z  (000C9A60)
               2282  8E9   ?SetReadOnly@wxStyledTextCtrl@@QAEX_N@Z  (000C7450)
               2283  8EA   ?SetRenameValidator@TreeEvent@nmui@@QAEXPAVwxValidator@@@Z  (000B1F90)
               2284  8EB   ?SetRoot@TreeControl@nmui@@QAE_NPAVTreeItem@2@@Z  (000BC2B0)
               2285  8EC   ?SetSTCCursor@wxStyledTextCtrl@@QAEXH@Z  (000C9100)
               2286  8ED   ?SetSTCFocus@wxStyledTextCtrl@@QAEX_N@Z  (000C9040)
               2287  8EE   ?SetSavePoint@wxStyledTextCtrl@@QAEXXZ  (000C56D0)
               2288  8EF   ?SetScrollWidth@wxStyledTextCtrl@@QAEXH@Z  (000C80C0)
               2289  8F0   ?SetScrollbar@TextControl@nmui@@MAEXHHHH_N@Z  (000ADA60)
               2290  8F1   ?SetSearchFlags@wxStyledTextCtrl@@QAEXH@Z  (000C7990)
               2291  8F2   ?SetSelBackground@wxStyledTextCtrl@@QAEX_NABVwxColour@@@Z  (000C6150)
               2292  8F3   ?SetSelForeground@wxStyledTextCtrl@@QAEX_NABVwxColour@@@Z  (000C60F0)
               2293  8F4   ?SetSelection@TreeControl@nmui@@QAEXABV?$Vector@PAVTreeItem@nmui@@@NMutils@@@Z  (000BC1A0)
               2294  8F5   ?SetSelection@wxStyledTextCtrl@@QAEXHH@Z  (000C72E0)
               2295  8F6   ?SetSelectionEnd@wxStyledTextCtrl@@QAEXH@Z  (000C7080)
               2296  8F7   ?SetSelectionMode@wxStyledTextCtrl@@QAEXH@Z  (000C95F0)
               2297  8F8   ?SetSelectionStart@wxStyledTextCtrl@@QAEXH@Z  (000C7040)
               2298  8F9   ?SetStatus@wxStyledTextCtrl@@QAEXH@Z  (000C9080)
               2299  8FA   ?SetStyle@NMSimpleTextCtrlValidator@nmui@@QAEXJ@Z  (0003C980)
               2300  8FB   ?SetStyleBits@wxStyledTextCtrl@@QAEXH@Z  (000C65B0)
               2301  8FC   ?SetStyleBytes@wxStyledTextCtrl@@QAEXHPAD@Z  (000C6290)
               2302  8FD   ?SetStyling@wxStyledTextCtrl@@QAEXHH@Z  (000C5920)
               2303  8FE   ?SetTabIndents@wxStyledTextCtrl@@QAEX_N@Z  (000C7E60)
               2304  8FF   ?SetTabWidth@wxStyledTextCtrl@@QAEXH@Z  (000C5990)
               2305  900   ?SetTargetEnd@wxStyledTextCtrl@@QAEXH@Z  (000C7710)
               2306  901   ?SetTargetStart@wxStyledTextCtrl@@QAEXH@Z  (000C76D0)
               2307  902   ?SetText@wxStyledTextCtrl@@QAEXABVwxString@@@Z  (000C7570)
               2308  903   ?SetText@wxStyledTextEvent@@QAEXABVwxString@@@Z  (00028370)
               2309  904   ?SetTextRaw@wxStyledTextCtrl@@QAEXPBD@Z  (000CA4A0)
               2310  905   ?SetTipWindowText@NMSimpleTextCtrlValidator@nmui@@QAEXABVwxString@@@Z  (0003C970)
               2311  906   ?SetTmpDefaultItem@Panel@nmui@@UAEXPAVwxWindow@@@Z  (000A5170)
               2312  907   ?SetToolTip@DirectoryControl@nmui@@UAEXABVwxString@@@Z  (000145D0)
               2313  908   ?SetToolTip@FilenameControl@nmui@@UAEXABVwxString@@@Z  (000145D0)
               2314  909   ?SetToolTip@NMFloatSlider@nmui@@UAEXABVwxString@@@Z  (00053170)
               2315  90A   ?SetTreeControl@TreeItem@nmui@@IAEXPAVTreeControl@2@@Z  (0003C980)
               2316  90B   ?SetTreeControlColumnIndex@TreeControl@nmui@@QAEXH@Z  (000B26F0)
               2317  90C   ?SetTwoPhaseDraw@wxStyledTextCtrl@@QAEX_N@Z  (000C8310)
               2318  90D   ?SetUndoCollection@wxStyledTextCtrl@@QAEX_N@Z  (000C5690)
               2319  90E   ?SetUseAntiAliasing@wxStyledTextCtrl@@QAEX_N@Z  (000C9FD0)
               2320  90F   ?SetUseHorizontalScrollBar@wxStyledTextCtrl@@QAEX_N@Z  (000C6EC0)
               2321  910   ?SetUseTabs@wxStyledTextCtrl@@QAEX_N@Z  (000C6DF0)
               2322  911   ?SetUseVerticalScrollBar@wxStyledTextCtrl@@QAEX_N@Z  (000C81F0)
               2323  912   ?SetVScrollBar@wxStyledTextCtrl@@QAEXPAVwxScrollBar@@@Z  (000C54E0)
               2324  913   ?SetValidCharacters@NMSimpleTextCtrlValidator@nmui@@QAEXABVwxString@@@Z  (0009C2D0)
               2325  914   ?SetValidStrings@NMSimpleTextCtrlValidator@nmui@@QAEXABV?$Vector@VwxString@@@NMutils@@@Z  (0009D060)
               2326  915   ?SetValue@NMExpFloatSlider@nmui@@UAEXM@Z  (0004EDE0)
               2327  916   ?SetValue@NMFloatSlider@nmui@@UAEXM@Z  (000533C0)
               2328  917   ?SetValue@NMIntSlider@nmui@@UAEXH@Z  (00058B20)
               2329  918   ?SetValue@NMUIntSlider@nmui@@UAEXI@Z  (000A43B0)
               2330  919   ?SetViewEOL@wxStyledTextCtrl@@QAEX_N@Z  (000C8C40)
               2331  91A   ?SetViewWhiteSpace@wxStyledTextCtrl@@QAEXH@Z  (000C5790)
               2332  91B   ?SetVisiblePolicy@wxStyledTextCtrl@@QAEXHH@Z  (000C9200)
               2333  91C   ?SetVoidPtrUserData@TreeItem@nmui@@QAEXPAX@Z  (00028390)
               2334  91D   ?SetWParam@wxStyledTextEvent@@QAEXH@Z  (000283D0)
               2335  91E   ?SetWhitespaceBackground@wxStyledTextCtrl@@QAEX_NABVwxColour@@@Z  (000C6550)
               2336  91F   ?SetWhitespaceChars@wxStyledTextCtrl@@QAEXABVwxString@@@Z  (000C9890)
               2337  920   ?SetWhitespaceForeground@wxStyledTextCtrl@@QAEX_NABVwxColour@@@Z  (000C64F0)
               2338  921   ?SetWindow@WindowEvent@nmui@@QAEXPAVwxWindow@@@Z  (00009720)
               2339  922   ?SetWordChars@wxStyledTextCtrl@@QAEXABVwxString@@@Z  (000C6330)
               2340  923   ?SetWrapMode@wxStyledTextCtrl@@QAEXH@Z  (000C7F80)
               2341  924   ?SetWrapStartIndent@wxStyledTextCtrl@@QAEXH@Z  (000C8040)
               2342  925   ?SetWrapVisualFlags@wxStyledTextCtrl@@QAEXH@Z  (000C7FC0)
               2343  926   ?SetWrapVisualFlagsLocation@wxStyledTextCtrl@@QAEXH@Z  (000C8000)
               2344  927   ?SetX@wxStyledTextEvent@@QAEXH@Z  (00028400)
               2345  928   ?SetXCaretPolicy@wxStyledTextCtrl@@QAEXHH@Z  (000C92D0)
               2346  929   ?SetXOffset@wxStyledTextCtrl@@QAEXH@Z  (000C9270)
               2347  92A   ?SetY@wxStyledTextEvent@@QAEXH@Z  (00028410)
               2348  92B   ?SetYCaretPolicy@wxStyledTextCtrl@@QAEXHH@Z  (000C9300)
               2349  92C   ?SetZoom@wxStyledTextCtrl@@QAEXH@Z  (000C8F80)
               2350  92D   ?Show@Dialog@nmui@@UAE_N_N@Z  (0004B830)
               2351  92E   ?Show@NMProgressDialog@nmui@@UAE_N_N@Z  (0007F360)
               2352  92F   ?ShowCursor@nmui@@YAX_N@Z  (00002BE0)
               2353  930   ?ShowLines@wxStyledTextCtrl@@QAEXHH@Z  (000C7CF0)
               2354  931   ?ShowModal@Dialog@nmui@@UAEHXZ  (0004C450)
               2355  932   ?ShowModal@NMSimpleMultiOptionDialog@nmui@@UAEHXZ  (0008FDB0)
               2356  933   ?ShowTipWindow@NMSimpleTextCtrlValidator@nmui@@UAEXABVwxString@@@Z  (0009C7F0)
               2357  934   ?SortChildren@TreeControl@nmui@@QAE_NPAVTreeItem@2@ABVTreeItemCompareStrategy@2@_N@Z  (000BB0A0)
               2358  935   ?SortItemRange@TreeControl@nmui@@QAE_NABVTreeItemCompareStrategy@2@PAVTreeItem@2@1@Z  (000BA140)
               2359  936   ?SplitHorizontal_xpm@Icons@nmui@@3PAPBDA  (001C7F38)
               2360  937   ?SplitVertical_xpm@Icons@nmui@@3PAPBDA  (001C7F98)
               2361  938   ?StartAutoComplete@TextControl@nmui@@IAEX_W@Z  (000B0180)
               2362  939   ?StartCallTip@TextControl@nmui@@IAEX_W@Z  (000AE2F0)
               2363  93A   ?StartRecord@wxStyledTextCtrl@@QAEXXZ  (000C99B0)
               2364  93B   ?StartStyling@wxStyledTextCtrl@@QAEXHH@Z  (000C58F0)
               2365  93C   ?StopRecord@wxStyledTextCtrl@@QAEXXZ  (000C99D0)
               2366  93D   ?StutteredPageDown@wxStyledTextCtrl@@QAEXXZ  (000C97D0)
               2367  93E   ?StutteredPageDownExtend@wxStyledTextCtrl@@QAEXXZ  (000C97F0)
               2368  93F   ?StutteredPageUp@wxStyledTextCtrl@@QAEXXZ  (000C9790)
               2369  940   ?StutteredPageUpExtend@wxStyledTextCtrl@@QAEXXZ  (000C97B0)
               2370  941   ?StyleClearAll@wxStyledTextCtrl@@QAEXXZ  (000C5E10)
               2371  942   ?StyleResetDefault@wxStyledTextCtrl@@QAEXXZ  (000C6040)
               2372  943   ?StyleSetBackground@wxStyledTextCtrl@@QAEXHABVwxColour@@@Z  (000C5E90)
               2373  944   ?StyleSetBold@wxStyledTextCtrl@@QAEXH_N@Z  (000C5EF0)
               2374  945   ?StyleSetCase@wxStyledTextCtrl@@QAEXHH@Z  (000C6090)
               2375  946   ?StyleSetChangeable@wxStyledTextCtrl@@QAEXH_N@Z  (000C6740)
               2376  947   ?StyleSetCharacterSet@wxStyledTextCtrl@@QAEXHH@Z  (000C9C80)
               2377  948   ?StyleSetEOLFilled@wxStyledTextCtrl@@QAEXH_N@Z  (000C6010)
               2378  949   ?StyleSetFaceName@wxStyledTextCtrl@@QAEXHABVwxString@@@Z  (000C5F80)
               2379  94A   ?StyleSetFont@wxStyledTextCtrl@@QAEXHAAVwxFont@@@Z  (000CC570)
               2380  94B   ?StyleSetFontAttr@wxStyledTextCtrl@@QAEXHHABVwxString@@_N11W4wxFontEncoding@@@Z  (000CBA60)
               2381  94C   ?StyleSetFontEncoding@wxStyledTextCtrl@@QAEXHW4wxFontEncoding@@@Z  (000C9E50)
               2382  94D   ?StyleSetForeground@wxStyledTextCtrl@@QAEXHABVwxColour@@@Z  (000C5E30)
               2383  94E   ?StyleSetHotSpot@wxStyledTextCtrl@@QAEXH_N@Z  (000C60C0)
               2384  94F   ?StyleSetItalic@wxStyledTextCtrl@@QAEXH_N@Z  (000C5F20)
               2385  950   ?StyleSetSize@wxStyledTextCtrl@@QAEXHH@Z  (000C5F50)
               2386  951   ?StyleSetSpec@wxStyledTextCtrl@@QAEXHABVwxString@@@Z  (000CB7B0)
               2387  952   ?StyleSetUnderline@wxStyledTextCtrl@@QAEXH_N@Z  (000C6060)
               2388  953   ?StyleSetVisible@wxStyledTextCtrl@@QAEXH_N@Z  (000C62C0)
               2389  954   ?SwapDirectionHorizontal_xpm@Icons@nmui@@3PAPBDA  (001C7E78)
               2390  955   ?SwapDirectionVertical_xpm@Icons@nmui@@3PAPBDA  (001C7ED8)
               2391  956   ?SwapHorizontal_xpm@Icons@nmui@@3PAPBDA  (001C7BE0)
               2392  957   ?SwapVertical_xpm@Icons@nmui@@3PAPBDA  (001C7C48)
               2393  958   ?TINTING_BLEND_FACTOR@TreeControl@nmui@@2MA  (001C762C)
               2394  959   ?Tab@wxStyledTextCtrl@@QAEXXZ  (000C87B0)
               2395  95A   ?TargetFromSelection@wxStyledTextCtrl@@QAEXXZ  (000C8330)
               2396  95B   ?TextHeight@wxStyledTextCtrl@@QAEHH@Z  (000C81D0)
               2397  95C   ?TextWidth@wxStyledTextCtrl@@QAEHHABVwxString@@@Z  (000C8100)
               2398  95D   ?ToggleExpansion@TreeItem@nmui@@QAEXXZ  (000B2AE0)
               2399  95E   ?ToggleFold@wxStyledTextCtrl@@QAEXH@Z  (000C7DE0)
               2400  95F   ?ToggleSelection@TreeControl@nmui@@QAE_NPAVTreeItem@2@@Z  (000BC170)
               2401  960   ?TransferFromWindow@NMSimpleTextCtrlValidator@nmui@@UAE_NXZ  (0009C540)
               2402  961   ?TransferToWindow@NMSimpleTextCtrlValidator@nmui@@UAE_NXZ  (0009C500)
               2403  962   ?TrimLeadingPathSeparator@nmui@@YAXAAVwxString@@@Z  (000025C0)
               2404  963   ?TrimTrailingPathSeparator@nmui@@YAXAAVwxString@@@Z  (00002600)
               2405  964   ?TryValidator@GuiController@nmui@@UAE_NAAVwxEvent@@@Z  (000205B0)
               2406  965   ?Undo@wxStyledTextCtrl@@QAEXXZ  (000C74D0)
               2407  966   ?UnsplitHorizontal_xpm@Icons@nmui@@3PAPBDA  (001C8058)
               2408  967   ?UnsplitVertical_xpm@Icons@nmui@@3PAPBDA  (001C80B8)
               2409  968   ?Update@NMProgressDialog@nmui@@EAEXXZ  (0007E970)
               2410  969   ?Update@NMProgressDialog@nmui@@QAE_NHABVwxString@@@Z  (0007F160)
               2411  96A   ?UpperCase@wxStyledTextCtrl@@QAEXXZ  (000C8990)
               2412  96B   ?UsePopUp@wxStyledTextCtrl@@QAEX_N@Z  (000C8F40)
               2413  96C   ?UserListShow@wxStyledTextCtrl@@QAEXHABVwxString@@@Z  (000C6B30)
               2414  96D   ?V@win32Semaphore@nmui@@UAEXXZ  (000346D0)
               2415  96E   ?VCHome@wxStyledTextCtrl@@QAEXXZ  (000C8830)
               2416  96F   ?VCHomeExtend@wxStyledTextCtrl@@QAEXXZ  (000C8850)
               2417  970   ?VCHomeRectExtend@wxStyledTextCtrl@@QAEXXZ  (000C9710)
               2418  971   ?VCHomeWrap@wxStyledTextCtrl@@QAEXXZ  (000C8B10)
               2419  972   ?VCHomeWrapExtend@wxStyledTextCtrl@@QAEXXZ  (000C8B30)
               2420  973   ?Validate@NMSimpleTextCtrlValidator@nmui@@UAE_NPAVwxWindow@@@Z  (0009C310)
               2421  974   ?ValidateTextBoxString@NMSimpleTextCtrlValidator@nmui@@UAE_NABVwxString@@AAV3@@Z  (0009CAE0)
               2422  975   ?VisibleFromDocLine@wxStyledTextCtrl@@QAEHH@Z  (000C7C10)
               2423  976   ?WARN@MessageBoxLogger@nmui@@2IB  (00111FBC)
               2424  977   ?WordEndPosition@wxStyledTextCtrl@@QAEHH_N@Z  (000C7F50)
               2425  978   ?WordLeft@wxStyledTextCtrl@@QAEXXZ  (000C8550)
               2426  979   ?WordLeftEnd@wxStyledTextCtrl@@QAEXXZ  (000C9810)
               2427  97A   ?WordLeftEndExtend@wxStyledTextCtrl@@QAEXXZ  (000C9830)
               2428  97B   ?WordLeftExtend@wxStyledTextCtrl@@QAEXXZ  (000C8570)
               2429  97C   ?WordPartLeft@wxStyledTextCtrl@@QAEXXZ  (000C9180)
               2430  97D   ?WordPartLeftExtend@wxStyledTextCtrl@@QAEXXZ  (000C91A0)
               2431  97E   ?WordPartRight@wxStyledTextCtrl@@QAEXXZ  (000C91C0)
               2432  97F   ?WordPartRightExtend@wxStyledTextCtrl@@QAEXXZ  (000C91E0)
               2433  980   ?WordRight@wxStyledTextCtrl@@QAEXXZ  (000C8590)
               2434  981   ?WordRightEnd@wxStyledTextCtrl@@QAEXXZ  (000C9850)
               2435  982   ?WordRightEndExtend@wxStyledTextCtrl@@QAEXXZ  (000C9870)
               2436  983   ?WordRightExtend@wxStyledTextCtrl@@QAEXXZ  (000C85B0)
               2437  984   ?WordStartPosition@wxStyledTextCtrl@@QAEHH_N@Z  (000C7F20)
               2438  985   ?ZoomIn@wxStyledTextCtrl@@QAEXXZ  (000C8870)
               2439  986   ?ZoomOut@wxStyledTextCtrl@@QAEXXZ  (000C8890)
               2440  987   ?abandonDragging@NMSplitter@nmui@@IAEXXZ  (000944E0)
               2441  988   ?abortPaintCall@NMFastBufferedDC@nmui@@QAEXXZ  (0004FB90)
               2442  989   ?acceptVisitor@GuiNode@nmui@@QAE_NAAVGuiNodeVisitor@2@@Z  (00023D00)
               2443  98A   ?acceptVisitorReverse@GuiNode@nmui@@QAE_NAAVGuiNodeVisitor@2@@Z  (00023DE0)
               2444  98B   ?acquireResource@FileResourceManager@nmui@@QAEIABVwxString@@W4ResourceTypeId@2@PAVResourceChangeContext@2@@Z  (0001FF00)
               2445  98C   ?activateCategories@TaskList@nmui@@QAEXABV?$vector@VwxString@@V?$allocator@VwxString@@@std@@@std@@_N@Z  (0009A9F0)
               2446  98D   ?activateCategory@TaskList@nmui@@QAE_NPB_W_N@Z  (0009A930)
               2447  98E   ?add@Menu@nmui@@QAEPAVMenuItem@2@HABVwxString@@_N101@Z  (00068060)
               2448  98F   ?add@Menu@nmui@@QAEXPAV12@@Z  (00068110)
               2449  990   ?add@NMRollupContainer@nmui@@UAE_NPAVNMRollupSection@2@@Z  (00085C60)
               2450  991   ?add@Notebook@nmui@@UAE_NPAVwxWindow@@VwxString@@0_N2222ABVwxPoint@@ABVwxSize@@2@Z  (000722B0)
               2451  992   ?addApplyButton@PanelBuilder@nmui@@QAEPAVButton@2@ABVwxString@@HHVwxSize@@ABVNMStyle@2@@Z  (000A9BA0)
               2452  993   ?addAutoCompleteStyle@TextControl@nmui@@QAEXH@Z  (000AEF30)
               2453  994   ?addBoolItem@NMSimpleMultiOptionDialog@nmui@@QAEXABVwxString@@0_N@Z  (00090B00)
               2454  995   ?addBusyBar@PanelBuilder@nmui@@QAEPAVNMBusyBar@2@HHVwxSize@@ABVNMStyle@2@@Z  (000A8150)
               2455  996   ?addButton@NMToolBar@nmui@@QAEPAVButton@2@HABVwxBitmap@@ABVwxString@@ABVNMStyle@2@@Z  (000A2AC0)
               2456  997   ?addButton@NMToolBar@nmui@@QAEPAVButton@2@HABVwxImage@@ABVwxString@@ABVNMStyle@2@@Z  (000A2BE0)
               2457  998   ?addButton@NMToolBar@nmui@@QAEPAVButton@2@HABVwxString@@_N0ABVNMStyle@2@@Z  (000A2900)
               2458  999   ?addButton@NMToolPanel@nmui@@QAEPAVButton@2@HABVwxBitmap@@ABVwxString@@@Z  (000A3560)
               2459  99A   ?addButton@NMToolPanel@nmui@@QAEPAVButton@2@HABVwxString@@@Z  (000A35A0)
               2460  99B   ?addButton@PanelBuilder@nmui@@QAEPAVButton@2@ABVwxBitmap@@ABVwxString@@HHVwxSize@@ABVNMStyle@2@@Z  (000A6C50)
               2461  99C   ?addButton@PanelBuilder@nmui@@QAEPAVButton@2@ABVwxImage@@ABVwxString@@HHVwxSize@@ABVNMStyle@2@@Z  (000A6D70)
               2462  99D   ?addButton@PanelBuilder@nmui@@QAEPAVButton@2@ABVwxString@@0HHVwxSize@@ABVNMStyle@2@@Z  (000A6B30)
               2463  99E   ?addCancelButton@PanelBuilder@nmui@@QAEPAVButton@2@ABVwxString@@HHVwxSize@@ABVNMStyle@2@@Z  (000A9600)
               2464  99F   ?addChannel@NMSimpleGraph@nmui@@QAEXVwxColour@@VwxString@@H@Z  (0008EDC0)
               2465  9A0   ?addCheckBox@PanelBuilder@nmui@@QAEPAVCheckBox@2@ABVwxString@@HHVwxSize@@ABVNMStyle@2@@Z  (000A74F0)
               2466  9A1   ?addCheckButton@NMToolBar@nmui@@QAEPAVButton@2@HABVwxBitmap@@0ABVwxString@@ABVNMStyle@2@@Z  (000A3160)
               2467  9A2   ?addCheckButton@NMToolBar@nmui@@QAEPAVButton@2@HABVwxBitmap@@ABVwxString@@ABVNMStyle@2@@Z  (000A2F40)
               2468  9A3   ?addCheckButton@NMToolBar@nmui@@QAEPAVButton@2@HABVwxImage@@ABVwxString@@ABVNMStyle@2@@Z  (000A3050)
               2469  9A4   ?addCheckButton@NMToolPanel@nmui@@QAEPAVButton@2@HABVwxBitmap@@ABVwxString@@@Z  (000A3660)
               2470  9A5   ?addCheckButton@PanelBuilder@nmui@@QAEPAVButton@2@ABVwxBitmap@@0ABVwxString@@HHVwxSize@@ABVNMStyle@2@@Z  (000A70F0)
               2471  9A6   ?addCheckButton@PanelBuilder@nmui@@QAEPAVButton@2@ABVwxBitmap@@ABVwxString@@HHVwxSize@@ABVNMStyle@2@@Z  (000A6E90)
               2472  9A7   ?addCheckButton@PanelBuilder@nmui@@QAEPAVButton@2@ABVwxImage@@ABVwxString@@HHVwxSize@@ABVNMStyle@2@@Z  (000A6FC0)
               2473  9A8   ?addChecked@Menu@nmui@@QAEPAVMenuItem@2@HABVwxString@@_N01@Z  (00068B50)
               2474  9A9   ?addCheckedMenuItem@NavigatorTree@nmui@@QAEPAVMenuItem@2@HABVwxString@@_N@Z  (00037980)
               2475  9AA   ?addCheckedNoAutoToggle@Menu@nmui@@QAEPAVMenuItem@2@HABVwxString@@_N01@Z  (00068C00)
               2476  9AB   ?addChild@FileResourceManager@nmui@@AAEPAVItemInfo@2@PAV32@ABVwxString@@W4ResourceTypeId@2@PAVCustomResourceData@2@@Z  (0001C490)
               2477  9AC   ?addChild@GuiNode@nmui@@QAE_NPAV12@@Z  (00024840)
               2478  9AD   ?addColourLegend@PanelBuilder@nmui@@QAEPAVNMColourLegend@2@HHVwxSize@@ABVNMStyle@2@@Z  (000A8720)
               2479  9AE   ?addColourSwatch@PanelBuilder@nmui@@QAEPAVNMColourSwatch@2@HHVwxSize@@ABVNMStyle@2@@Z  (000A8850)
               2480  9AF   ?addColumn@NMColumnWindow@nmui@@UAEXIABVwxString@@_N@Z  (000454C0)
               2481  9B0   ?addColumn@NMListControl@nmui@@UAEXIABVwxString@@_N@Z  (00061D80)
               2482  9B1   ?addColumn@TreeControl@nmui@@UAEXIABVwxString@@_N@Z  (000BD0C0)
               2483  9B2   ?addComboBox@PanelBuilder@nmui@@QAEPAVNMComboBox@2@HHVwxSize@@ABVNMStyle@2@@Z  (000A78B0)
               2484  9B3   ?addConcurrentState@StateManager@nmui@@QAEXPAVBaseState@2@@Z  (00012130)
               2485  9B4   ?addControl@NMToolBar@nmui@@QAEXPAVwxWindow@@ABVwxString@@HH@Z  (000A1860)
               2486  9B5   ?addControl@NMToolPanel@nmui@@QAEXPAVwxWindow@@@Z  (000A1C30)
               2487  9B6   ?addDataObject@NMMultipleDropTarget@nmui@@QAEXPAVwxDataObject@@@Z  (0004E300)
               2488  9B7   ?addDirectory@DirectoryWatchTreeView@nmui@@QAE_NABVwxString@@_N0I@Z  (000107F0)
               2489  9B8   ?addDirectory@FileResourceManager@nmui@@QAEIABVwxString@@_N@Z  (0001FCD0)
               2490  9B9   ?addDirectoryControl@PanelBuilder@nmui@@QAEPAVDirectoryControl@2@HHVwxSize@@ABVNMStyle@2@@Z  (000A7B90)
               2491  9BA   ?addDirectoryItem@NMSimpleMultiOptionDialog@nmui@@QAEXABVwxString@@00@Z  (00090BB0)
               2492  9BB   ?addExpFloatSlider@PanelBuilder@nmui@@QAEPAVNMExpFloatSlider@2@MMMMMHHVwxSize@@ABVNMStyle@2@@Z  (000A8EC0)
               2493  9BC   ?addFilenameControl@PanelBuilder@nmui@@QAEPAVFilenameControl@2@HHVwxSize@@ABVNMStyle@2@@Z  (000A79E0)
               2494  9BD   ?addFilenameItem@NMSimpleMultiOptionDialog@nmui@@QAEXABVwxString@@0000@Z  (00090C60)
               2495  9BE   ?addFilterCtrl@PanelBuilder@nmui@@QAEPAVNMFilterCtrl@2@VwxImage@@0HHVwxSize@@ABVNMStyle@2@@Z  (000A7F70)
               2496  9BF   ?addFixedButton@PanelBuilder@nmui@@QAEPAVButton@2@ABVwxString@@0HHABVNMStyle@2@@Z  (000A9E50)
               2497  9C0   ?addFloatSlider@PanelBuilder@nmui@@QAEPAVNMFloatSlider@2@MMMHHVwxSize@@ABVNMStyle@2@@Z  (000A8D70)
               2498  9C1   ?addFloatSpinner@PanelBuilder@nmui@@QAEPAVNMFloatSpinner@2@MMABVwxString@@HHVwxSize@@ABVNMStyle@2@@Z  (000A9020)
               2499  9C2   ?addFrameNumber@NMSimpleGraph@nmui@@QAEXH@Z  (0008BFB0)
               2500  9C3   ?addHSpacer@PanelBuilder@nmui@@QAEPAVwxSizerItem@@H@Z  (000A6670)
               2501  9C4   ?addIconBar@PanelBuilder@nmui@@QAEPAVNMIconBar@2@HHVwxSize@@ABVNMStyle@2@@Z  (000A9280)
               2502  9C5   ?addIntSlider@PanelBuilder@nmui@@QAEPAVNMIntSlider@2@HHHHHVwxSize@@ABVNMStyle@2@@Z  (000A8AD0)
               2503  9C6   ?addIntSpinner@PanelBuilder@nmui@@QAEPAVNMIntSpinner@2@HHABVwxString@@HHVwxSize@@ABVNMStyle@2@@Z  (000A8C20)
               2504  9C7   ?addLargeButton@NMToolBar@nmui@@QAEPAVButton@2@HABVwxBitmap@@ABVwxString@@ABVNMStyle@2@@Z  (000A2D00)
               2505  9C8   ?addLargeButton@NMToolBar@nmui@@QAEPAVButton@2@HABVwxImage@@ABVwxString@@ABVNMStyle@2@@Z  (000A2E20)
               2506  9C9   ?addLegend@NMColourLegend@nmui@@QAEXVwxColour@@VwxString@@@Z  (0003E880)
               2507  9CA   ?addListControl@PanelBuilder@nmui@@QAEPAVNMListControl@2@HHVwxSize@@ABVNMStyle@2@H@Z  (000A9F80)
               2508  9CB   ?addLowerFilterString@nmui@@YAXABVwxString@@PAVwxArrayString@@@Z  (000524D0)
               2509  9CC   ?addMacroReplacement@NMMacroReplacementTool@nmui@@QAEXABVwxString@@0_N1@Z  (00065D90)
               2510  9CD   ?addMarkerLine@NMSimpleGraph@nmui@@QAEXXZ  (0008C010)
               2511  9CE   ?addMenuBar@PanelBuilder@nmui@@QAEPAVMenuBar@2@HHVwxSize@@ABVNMStyle@2@@Z  (000A84C0)
               2512  9CF   ?addMenuItem@Menu@nmui@@QAEPAVMenuItem@2@PAV32@_N@Z  (00067B40)
               2513  9D0   ?addMenuItem@NavigatorTree@nmui@@QAEPAVMenuItem@2@HABVwxString@@@Z  (00037960)
               2514  9D1   ?addNoButton@PanelBuilder@nmui@@QAEPAVButton@2@ABVwxString@@HHVwxSize@@ABVNMStyle@2@@Z  (000A9960)
               2515  9D2   ?addNoToAllButton@PanelBuilder@nmui@@QAEPAVButton@2@ABVwxString@@HHVwxSize@@ABVNMStyle@2@@Z  (000A9A80)
               2516  9D3   ?addNodes@NMPalette@nmui@@UAEXXZ  (0000A8C0)
               2517  9D4   ?addOKButton@PanelBuilder@nmui@@QAEPAVButton@2@ABVwxString@@HHVwxSize@@ABVNMStyle@2@@Z  (000A94E0)
               2518  9D5   ?addOKCancelButtons@PanelBuilder@nmui@@QAEXPAPAVButton@2@0@Z  (000AB050)
               2519  9D6   ?addObserver@TaskList@nmui@@QAEXPAVTaskListObserver@2@@Z  (0009B2C0)
               2520  9D7   ?addOptionalArgument@LuaArgumentProcessor@nmui@@QAEXV?$basic_string@_WU?$char_traits@_W@std@@V?$allocator@_W@2@@std@@@Z  (00033B30)
               2521  9D8   ?addPaletteItem@NMPalette@nmui@@QAEPAVNMPaletteItem@2@ABVwxString@@0PAVwxImage@@I0PAXIVwxIcon@@@Z  (00077120)
               2522  9D9   ?addPaletteItem@NMPalette@nmui@@QAE_NPAVNMPaletteItem@2@@Z  (000770F0)
               2523  9DA   ?addPanel@PanelBuilder@nmui@@QAEPAVPanel@2@HHVwxSize@@ABVNMStyle@2@@Z  (000A7E30)
               2524  9DB   ?addProgressBar@PanelBuilder@nmui@@QAEPAVNMProgressBar@2@IHHVwxSize@@ABVNMStyle@2@@Z  (000A85E0)
               2525  9DC   ?addRadioBox@PanelBuilder@nmui@@QAEPAVNMRadioBox@2@HHVwxSize@@ABVNMStyle@2@@Z  (000A7770)
               2526  9DD   ?addRadioItem@Menu@nmui@@QAEPAVMenuItem@2@HABVwxString@@_N01@Z  (00068CB0)
               2527  9DE   ?addRadioItem@NMRadioBox@nmui@@QAEXHABVwxString@@@Z  (00080AD0)
               2528  9DF   ?addRedrawClient@AppMainLoop@nmui@@QAEXPAVAppMainLoopRedrawClient@2@@Z  (00001D10)
               2529  9E0   ?addRequiredArgument@LuaArgumentProcessor@nmui@@QAEXV?$basic_string@_WU?$char_traits@_W@std@@V?$allocator@_W@2@@std@@@Z  (00033A80)
               2530  9E1   ?addResourceObserver@FileResourceManager@nmui@@UAEXPAVFilteredResourceObserver@2@@Z  (00019410)
               2531  9E2   ?addResourceObserver@FileResourceManager@nmui@@UAEXPAVFilteredResourceObserver@2@ABV?$hashmap_dense_dynamic@I_N@nmtl@@@Z  (00020050)
               2532  9E3   ?addResourceObserver@FileResourceManager@nmui@@UAEXPAVResourceObserver@2@@Z  (0001FFD0)
               2533  9E4   ?addResources@FilteredResourceObserver@nmui@@IAEXABV?$hashmap_dense_dynamic@I_N@nmtl@@@Z  (00019AC0)
               2534  9E5   ?addResourcesInPath@FileResourceManager@nmui@@AAEPAVItemInfo@2@IABVwxString@@W4ResourceOwner@2@W4ResourceTypeId@2@PAVCustomResourceData@2@PAVResourceChangeContext@2@@Z  (0001F5B0)
               2535  9E6   ?addResourcesInPath@FileResourceManager@nmui@@AAEPAVItemInfo@2@PAV32@ABVwxString@@W4ResourceOwner@2@W4ResourceTypeId@2@PAVCustomResourceData@2@PAVResourceChangeContext@2@@Z  (0001E180)
               2536  9E7   ?addRollupHeading@PanelBuilder@nmui@@QAEPAVNMRollupHeading@2@ABVwxString@@HHVwxSize@@ABVNMStyle@2@@Z  (000A7630)
               2537  9E8   ?addRoot@FileResourceManager@nmui@@AAEPAVItemInfo@2@IABVwxString@@_N@Z  (0001C580)
               2538  9E9   ?addScriptControl@PanelBuilder@nmui@@QAEPAVNMScriptControl@2@HHVwxSize@@J@Z  (000A73B0)
               2539  9EA   ?addScrollBarButton@NMScrollWindow@nmui@@QAEXHABVwxBitmap@@ABVwxString@@W4ScrollBarToolLocation@12@@Z  (0008B400)
               2540  9EB   ?addSeparator@Menu@nmui@@QAEPAVMenuItem@2@XZ  (000682E0)
               2541  9EC   ?addSeparator@NMToolBar@nmui@@QAEXXZ  (000A20B0)
               2542  9ED   ?addSeparator@NMToolPanel@nmui@@QAEXXZ  (000A2270)
               2543  9EE   ?addSeparator@NavigatorTree@nmui@@QAEPAVMenuItem@2@XZ  (00035010)
               2544  9EF   ?addSeparator@PanelBuilder@nmui@@QAEPAVNMToolBarSeparator@2@XZ  (000A9170)
               2545  9F0   ?addSizer@PanelBuilder@nmui@@QAEPAVwxSizer@@PAV3@HH@Z  (000AA150)
               2546  9F1   ?addSlider@PanelBuilder@nmui@@QAEPAVSlider@2@HHVwxSize@@ABVNMStyle@2@@Z  (000A7CF0)
               2547  9F2   ?addSpacer@PanelBuilder@nmui@@QAEPAVwxSizerItem@@H@Z  (000A6640)
               2548  9F3   ?addSpinButton@PanelBuilder@nmui@@QAEPAVSpinButton@2@HHVwxSize@@ABVNMStyle@2@@Z  (000A8990)
               2549  9F4   ?addStandardNotebookItemsToContextMenu@Notebook@nmui@@QAEXAAVMenu@2@VwxPoint@@@Z  (0006E2F0)
               2550  9F5   ?addState@GuiNodeStateMachine@nmui@@QAEXHPAVGuiNodeState@2@@Z  (000247A0)
               2551  9F6   ?addStaticText@PanelBuilder@nmui@@QAEPAVNMStaticText@2@ABVwxString@@HHVwxSize@@ABVNMStyle@2@H@Z  (000A69F0)
               2552  9F7   ?addStretchSpacer@PanelBuilder@nmui@@QAEPAVwxSizerItem@@H@Z  (000A6710)
               2553  9F8   ?addString@NMComboBox@nmui@@QAE_NABVwxString@@PAXHHW4EntryType@StringData@2@@Z  (0004B060)
               2554  9F9   ?addStrings@NMComboBox@nmui@@QAEXABV?$vector@VwxString@@V?$allocator@VwxString@@@std@@@std@@@Z  (0004B220)
               2555  9FA   ?addSubMenu@Menu@nmui@@QAEPAVMenuItem@2@ABV12@ABVwxString@@@Z  (00068390)
               2556  9FB   ?addSubMenuByRef@Menu@nmui@@QAEPAVMenuItem@2@PAV12@ABVwxString@@_N@Z  (00068420)
               2557  9FC   ?addSubstate@BaseState@nmui@@IAEXPAV12@@Z  (00012030)
               2558  9FD   ?addTask@FileResourceManager@nmui@@AAEXPAUResourceTask@2@@Z  (0001C7B0)
               2559  9FE   ?addTask@TaskList@nmui@@QAE_NPAVTaskListItemBase@2@@Z  (0009B1A0)
               2560  9FF   ?addTextBox@PanelBuilder@nmui@@QAEPAVNMSimpleTextCtrl@2@HHVwxSize@@ABVNMStyle@2@ABVwxValidator@@@Z  (000A7230)
               2561  A00   ?addTextItem@NMSimpleMultiOptionDialog@nmui@@QAEXABVwxString@@00ABVNMSimpleTextCtrlValidator@2@@Z  (00090A10)
               2562  A01   ?addTextItem@NMSimpleMultiOptionDialog@nmui@@QAEXABVwxString@@00I@Z  (00090910)
               2563  A02   ?addTimerClient@AppMainLoop@nmui@@QAEXPAVAppMainLoopTimerClient@2@@Z  (00001CA0)
               2564  A03   ?addTitle@Menu@nmui@@QAEPAVMenuItem@2@ABVwxString@@@Z  (00068250)
               2565  A04   ?addTitlePanel@GUIServices@nmui@@QAEPAVNMToolTitlePanel@2@PAVwxWindow@@ABVwxString@@PAVwxBitmap@@_N@Z  (0002DFC0)
               2566  A05   ?addToHeading@NMRollupSection@nmui@@UAE_NPAVwxWindow@@@Z  (00082B50)
               2567  A06   ?addToHistory@FileHistory@nmui@@UAEXABVwxString@@@Z  (00050680)
               2568  A07   ?addToWatchedPath@DirectoryWatchTreeView@nmui@@AAEXPAUWatchedPathUserData@12@ABVwxString@@AAV?$set@PAVTreeItem@nmui@@U?$less@PAVTreeItem@nmui@@@std@@V?$allocator@PAVTreeItem@nmui@@@4@@std@@@Z  (0000F190)
               2569  A08   ?addToolTitlePanel@PanelBuilder@nmui@@QAEPAVNMToolTitlePanel@2@ABVwxString@@HHVwxSize@@ABVNMStyle@2@@Z  (000A93B0)
               2570  A09   ?addTreeControl@PanelBuilder@nmui@@QAEPAVTreeControl@2@HHVwxSize@@ABVNMStyle@2@@Z  (000A9EA0)
               2571  A0A   ?addUpdateAction@DirectoryWatchTreeView@nmui@@AAEXW4ActionType@UpdateAction@12@PAUWatchedPathUserData@12@ABVwxString@@@Z  (0000F410)
               2572  A0B   ?addUpdateAction@FileResourceManager@nmui@@AAEXPAUUpdateAction@2@@Z  (0001B500)
               2573  A0C   ?addUsingData@Notebook@nmui@@UAE_NPAVwxWindow@@AAUNotebookWindowData@2@0@Z  (0006B410)
               2574  A0D   ?addVSpacer@PanelBuilder@nmui@@QAEPAVwxSizerItem@@H@Z  (000A66C0)
               2575  A0E   ?addValueToChannel@NMSimpleGraph@nmui@@QAE_NIM@Z  (0008DCA0)
               2576  A0F   ?addWatchPath@FileResourceManager@nmui@@AAEXIABVwxString@@@Z  (0001C950)
               2577  A10   ?addWildcard@FilenameControl@nmui@@QAEXABVwxString@@0@Z  (000161D0)
               2578  A11   ?addWildcards@FilenameControl@nmui@@QAEXABV?$vector@VwxString@@V?$allocator@VwxString@@@std@@@std@@ABVwxString@@@Z  (00016260)
               2579  A12   ?addWindow@NMRollupHeading@nmui@@UAEXPAVwxWindow@@@Z  (00081E60)
               2580  A13   ?addWindow@NMSwitchablePanel@nmui@@QAEXPAVwxWindow@@0_NHH@Z  (000998D0)
               2581  A14   ?addWindow@NMSwitchablePanel@nmui@@QAEXPAVwxWindow@@_NHH@Z  (000999D0)
               2582  A15   ?addWindow@PanelBuilder@nmui@@QAEPAVwxWindow@@PAV3@HH@Z  (000A8290)
               2583  A16   ?addWindowToSizer@PanelBuilder@nmui@@IAEXPAVwxWindow@@HHH@Z  (000A68A0)
               2584  A17   ?addWindowWithBorder@PanelBuilder@nmui@@QAEPAVwxWindow@@PAV3@HH@Z  (000A8340)
               2585  A18   ?addWindows@NMToolPanel@nmui@@QAEXPAVwxWindow@@0M@Z  (000A2280)
               2586  A19   ?addYesButton@PanelBuilder@nmui@@QAEPAVButton@2@ABVwxString@@HHVwxSize@@ABVNMStyle@2@@Z  (000A9720)
               2587  A1A   ?addYesNoCancelButtons@PanelBuilder@nmui@@QAEXPAPAVButton@2@00@Z  (000AB190)
               2588  A1B   ?addYesToAllButton@PanelBuilder@nmui@@QAEPAVButton@2@ABVwxString@@HHVwxSize@@ABVNMStyle@2@@Z  (000A9840)
               2589  A1C   ?adjustLuminescence@GUIServices@nmui@@QAE?AVwxColour@@ABV3@M@Z  (0002F5A0)
               2590  A1D   ?adjustSaturation@GUIServices@nmui@@QAE?AVwxColour@@ABV3@M@Z  (0002F6C0)
               2591  A1E   ?adjustSaturationAndLuminescence@GUIServices@nmui@@QAE?AVwxColour@@ABV3@MM@Z  (0002F7E0)
               2592  A1F   ?allocateExtraDataBuffer@NMSimpleGraph@nmui@@IAEXXZ  (0008BF60)
               2593  A20   ?alphaBlend@GUIServices@nmui@@QAE?AVwxColour@@V3@0M@Z  (0002D500)
               2594  A21   ?alwaysTryToFocusChildren@Panel@nmui@@QBE_NXZ  (00009830)
               2595  A22   ?append@NMSimpleTextCtrl@nmui@@QAEXABVwxString@@@Z  (0009E620)
               2596  A23   ?appendItem@NMIconBar@nmui@@QAEPAVNMIconBarItem_@2@ABVwxString@@ABVwxBitmap@@PAX@Z  (000576D0)
               2597  A24   ?appendItem@NMIconBarSlots@nmui@@QAEPAVNMIconBarItem_@2@ABVwxString@@ABVwxBitmap@@PAX@Z  (000575A0)
               2598  A25   ?appendItem@NMListControl@nmui@@QAEPAVNMListItem_@2@ABVwxString@@_N@Z  (00062EB0)
               2599  A26   ?apply@CheckBox@nmui@@IAEXXZ  (0003BFF0)
               2600  A27   ?apply@DirectoryControl@nmui@@IAEXXZ  (0000A350)
               2601  A28   ?apply@FilenameControl@nmui@@IAEXXZ  (000149C0)
               2602  A29   ?apply@NMFloatSlider@nmui@@IAEXXZ  (00052E50)
               2603  A2A   ?apply@NMFloatSpinner@nmui@@IAEXXZ  (00053EC0)
               2604  A2B   ?apply@NMIntSlider@nmui@@IAEXXZ  (00058700)
               2605  A2C   ?apply@NMIntSpinner@nmui@@IAEXXZ  (000594E0)
               2606  A2D   ?apply@NMUIntSlider@nmui@@IAEXXZ  (000A3F10)
               2607  A2E   ?applySyntaxHighlighting@TextControl@nmui@@UAEXXZ  (000AC830)
               2608  A2F   ?areDescendentsOf@FileResourceManager@nmui@@QBE_NABV?$hashmap_dense_dynamic@I_N@nmtl@@0@Z  (00018A90)
               2609  A30   ?arrowDown@Icons@nmui@@3PAPBDA  (001C784C)
               2610  A31   ?arrowDownDisabled@Icons@nmui@@3PAPBDA  (001C7908)
               2611  A32   ?arrowLeft@Icons@nmui@@3PAPBDA  (001C786C)
               2612  A33   ?arrowLeftDisabled@Icons@nmui@@3PAPBDA  (001C7924)
               2613  A34   ?arrowRight@Icons@nmui@@3PAPBDA  (001C78C0)
               2614  A35   ?arrowRightDisabled@Icons@nmui@@3PAPBDA  (001C794C)
               2615  A36   ?arrowUp@Icons@nmui@@3PAPBDA  (001C782C)
               2616  A37   ?arrowUpDisabled@Icons@nmui@@3PAPBDA  (001C78EC)
               2617  A38   ?assertIfInvalid@Menu@nmui@@AAEXPAVMenuItem@2@_N@Z  (00066950)
               2618  A39   ?assignColumnImageList@NMColumnWindow@nmui@@UAEXIPAVwxImageList@@@Z  (00044490)
               2619  A3A   ?assignItemUserData@NMListControl@nmui@@QAEXPAVNMListItem_@2@PAVNMListItemUserData@2@@Z  (0005A320)
               2620  A3B   ?assignRenderer@NMListControl@nmui@@QAEXPAVCellRenderer@2@@Z  (0005B580)
               2621  A3C   ?assignUserData@NMListItem_@nmui@@QAEXPAVNMListItemUserData@2@@Z  (00027CE0)
               2622  A3D   ?autoIndent@TextControl@nmui@@QAEX_N@Z  (000AD2B0)
               2623  A3E   ?begin@NMListControl@nmui@@QBE?AV?$_Vector_const_iterator@PAVNMListItem_@nmui@@V?$allocator@PAVNMListItem_@nmui@@@std@@@std@@XZ  (0005D3C0)
               2624  A3F   ?beginDragScrolling@NMComboBoxListCtrl@nmui@@IAEXXZ  (000475B0)
               2625  A40   ?beginFlexGridSizer@PanelBuilder@nmui@@QAEPAVwxFlexGridSizer@@HHHHHH@Z  (000AA560)
               2626  A41   ?beginGridSizer@PanelBuilder@nmui@@QAEPAVwxGridSizer@@HHHH@Z  (000AA490)
               2627  A42   ?beginHSizer@PanelBuilder@nmui@@QAEPAVwxBoxSizer@@HH@Z  (000AA2A0)
               2628  A43   ?beginHSplitter@PanelBuilder@nmui@@QAEPAVNMSplitter@2@HHVwxSize@@ABVNMStyle@2@M@Z  (000AB500)
               2629  A44   ?beginHSplitterAbsolute@PanelBuilder@nmui@@QAEPAVNMSplitter@2@HHVwxSize@@ABVNMStyle@2@H@Z  (000AB530)
               2630  A45   ?beginHSplitterLocked@PanelBuilder@nmui@@QAEPAVNMSplitter@2@HHVwxSize@@ABVNMStyle@2@H@Z  (000AB560)
               2631  A46   ?beginNotebook@PanelBuilder@nmui@@QAEPAVNotebook@2@HHVwxSize@@ABVNMStyle@2@@Z  (000AAA90)
               2632  A47   ?beginNotebookPage@PanelBuilder@nmui@@QAEPAVPanel@2@ABVwxString@@ABVNMStyle@2@@Z  (000AABD0)
               2633  A48   ?beginPanel@PanelBuilder@nmui@@QAEPAVPanel@2@HHVwxSize@@ABVNMStyle@2@@Z  (000AA620)
               2634  A49   ?beginPanel@PanelBuilder@nmui@@QAEPAVPanel@2@PAV32@HH@Z  (000AA750)
               2635  A4A   ?beginRollupHeading@PanelBuilder@nmui@@QAEPAVNMRollupHeading@2@ABVwxString@@HHVwxSize@@ABVNMStyle@2@@Z  (000AAE50)
               2636  A4B   ?beginScrollWindow@PanelBuilder@nmui@@QAEPAVNMScrollWindow@2@HHVwxSize@@ABVNMStyle@2@@Z  (000AA7C0)
               2637  A4C   ?beginScrollWindow@PanelBuilder@nmui@@QAEPAVNMScrollWindow@2@PAV32@HHVwxSize@@ABVNMStyle@2@@Z  (000AA8F0)
               2638  A4D   ?beginSplitter@PanelBuilder@nmui@@IAEPAVNMSplitter@2@HHVwxSize@@ABVNMStyle@2@HHM@Z  (000AB330)
               2639  A4E   ?beginSplitter@PanelBuilder@nmui@@QAEPAVNMSplitter@2@PAV32@HH@Z  (000AAFA0)
               2640  A4F   ?beginStaticHSizer@PanelBuilder@nmui@@QAEPAVNMStaticBox@2@ABVwxString@@HH@Z  (000AA470)
               2641  A50   ?beginStaticVSizer@PanelBuilder@nmui@@QAEPAVNMStaticBox@2@ABVwxString@@HH@Z  (000AA450)
               2642  A51   ?beginSwitchablePanel@PanelBuilder@nmui@@QAEPAVNMSwitchablePanel@2@HHVwxSize@@ABVNMStyle@2@@Z  (000AAD00)
               2643  A52   ?beginToolbar@PanelBuilder@nmui@@QAEPAVPanel@2@HHVwxSize@@ABVNMStyle@2@@Z  (000AA960)
               2644  A53   ?beginVSizer@PanelBuilder@nmui@@QAEPAVwxBoxSizer@@HH@Z  (000AA210)
               2645  A54   ?beginVSplitter@PanelBuilder@nmui@@QAEPAVNMSplitter@2@HHVwxSize@@ABVNMStyle@2@M@Z  (000AB450)
               2646  A55   ?beginVSplitterAbsolute@PanelBuilder@nmui@@QAEPAVNMSplitter@2@HHVwxSize@@ABVNMStyle@2@H@Z  (000AB480)
               2647  A56   ?beginVSplitterLocked@PanelBuilder@nmui@@QAEPAVNMSplitter@2@HHVwxSize@@ABVNMStyle@2@H@Z  (000AB4B0)
               2648  A57   ?blendImages@GUIServices@nmui@@QAEXPAVwxImage@@ABV3@ABVwxPoint@@@Z  (0002E100)
               2649  A58   ?blit@NMFastBufferedDC@nmui@@QAEXXZ  (0004FED0)
               2650  A59   ?boundsDirty@NMColumnWindow@nmui@@MBE_NXZ  (0000C680)
               2651  A5A   ?bringToFront@Notebook@nmui@@UAE_NPAVwxWindow@@@Z  (0006B560)
               2652  A5B   ?buildControl@NMFrameRateControl@nmui@@IAEXXZ  (00054AA0)
               2653  A5C   ?buildVcproj@nmui@@YA_NVwxString@@0_N0AAV2@@Z  (00004770)
               2654  A5D   ?buildWildcardsString@FilenameControl@nmui@@IAEXAAVwxString@@@Z  (00014DD0)
               2655  A5E   ?bulkAddResourcesInPath@FileResourceManager@nmui@@AAEHPAVItemInfo@2@ABV?$vector@UResourceDetails@nmui@@@nmtl@@PAVResourceChangeContext@2@@Z  (0001E3E0)
               2656  A5F   ?calcAbsoluteOrigin@GuiNode@nmui@@QBE?AVNMPoint2D@NMutils@@XZ  (00022F30)
               2657  A60   ?calcAbsoluteScale@GuiNode@nmui@@QBE?AVNMPoint2D@NMutils@@XZ  (000225F0)
               2658  A61   ?calcAbsoluteTransform@GuiNode@nmui@@QBEXAAVNMPoint2D@NMutils@@0@Z  (00022670)
               2659  A62   ?calcHighlightIndex@NMComboBoxListCtrl@nmui@@IAEHABVwxPoint@@@Z  (000472A0)
               2660  A63   ?calcMaxLabel@NMPalette@nmui@@AAEXXZ  (00073EB0)
               2661  A64   ?calcRects@NMRollupHeading@nmui@@ABEXABVwxRect@@PAV3@111@Z  (00081880)
               2662  A65   ?calculateDerivedColours@GUIServices@nmui@@IAEXXZ  (0002FEB0)
               2663  A66   ?calculateItemHeight@PopupMenu@nmui@@MAEXXZ  (00079440)
               2664  A67   ?calculateSize@PopupMenu@nmui@@MAE?AVwxSize@@XZ  (0007B2A0)
               2665  A68   ?callTipsEnabled@TextControl@nmui@@QAE_NXZ  (000AD260)
               2666  A69   ?canClose@NMSplash@nmui@@QBE_NXZ  (00093260)
               2667  A6A   ?canHideGroup@NavigatorGroup@nmui@@UAE_NXZ  (00025890)
               2668  A6B   ?canItemDropOntoItem@NavigatorItemType@nmui@@UAE_NPAVNavigatorTreeItem@2@PAVTreeItem@2@@Z  (000B0F80)
               2669  A6C   ?canItemRename@NavigatorItemType@nmui@@UAE_NPAVNavigatorTreeItem@2@@Z  (000075A0)
               2670  A6D   ?canReorderSection@NMRollupContainer@nmui@@MAE_NPAVNMRollupSection@2@I@Z  (00034AB0)
               2671  A6E   ?canSendToNotebook@Notebook@nmui@@QBE_NPAV12@@Z  (0006C290)
               2672  A6F   ?captureState@GuiNodeState@nmui@@QAE_NHPAX@Z  (00024770)
               2673  A70   ?captureState@GuiNodeStateMachine@nmui@@QAE_NHPAX@Z  (000243A0)
               2674  A71   ?captureState@GuiNodeStateManager@nmui@@QAEXPAVGuiNodeState@2@PAX@Z  (00023F70)
               2675  A72   ?cellIsHighlighted@NMListControl@nmui@@QAE_NPAVNMListItem_@2@H@Z  (0005E8F0)
               2676  A73   ?cellIsHighlighted@NMListItem_@nmui@@QAE_NH@Z  (0005E0C0)
               2677  A74   ?changeColourScheme@GUIServices@nmui@@QAEXPAVwxWindow@@@Z  (000310F0)
               2678  A75   ?changeMacrosToReplacements@NMMacroReplacementTool@nmui@@QBEXAAVwxString@@H@Z  (000658B0)
               2679  A76   ?changeReplacementsToMacros@NMMacroReplacementTool@nmui@@QBEXAAVwxString@@@Z  (00065960)
               2680  A77   ?changeSashValueByPixelOffset@NMSplitter@nmui@@IAEXH@Z  (00095380)
               2681  A78   ?check@Menu@nmui@@QAEXH_N@Z  (00068DA0)
               2682  A79   ?check@MenuItem@nmui@@QAEX_N@Z  (00068B30)
               2683  A7A   ?checkAllItems@NMCheckListDialog@nmui@@IAEX_N@Z  (0003C9F0)
               2684  A7B   ?checkForNMStyle@GuiNodeWindowBase@nmui@@QBE_NI@Z  (00025B10)
               2685  A7C   ?checkLockToBestSizeStillValid@NMSplitter@nmui@@IAEXXZ  (00096710)
               2686  A7D   ?checkSyntax@NMScriptControl@nmui@@QAEHPAVwxString@@J@Z  (00087250)
               2687  A7E   ?checkSyntax@NMScriptControl@nmui@@QAEHPAVwxString@@JPAVLuaProcessor@2@@Z  (00086EA0)
               2688  A7F   ?checkUserDataId@NMUserDataObject@nmui@@QBE_NABVwxString@@@Z  (0004DCA0)
               2689  A80   ?chooseItem@NMListControl@nmui@@QAEXPAVNMListItem_@2@H_N@Z  (0005E4F0)
               2690  A81   ?clampSashValuesToLimits@NMSplitter@nmui@@IBEMXZ  (000950F0)
               2691  A82   ?clampValue@Slider@nmui@@QAENN@Z  (00091120)
               2692  A83   ?cleanupPath@nmui@@YA?AVwxString@@ABV2@@Z  (00002640)
               2693  A84   ?clear@Menu@nmui@@QAEXXZ  (00066F20)
               2694  A85   ?clear@NMComboBox@nmui@@QAEXXZ  (0004A690)
               2695  A86   ?clear@NMFastBufferedDC@nmui@@QAEX_N@Z  (0004FBC0)
               2696  A87   ?clear@NMFileLocator@nmui@@QAEXXZ  (000516C0)
               2697  A88   ?clear@NMSimpleTextCtrl@nmui@@QAEXXZ  (000A1180)
               2698  A89   ?clearAllAttributes@NMListControl@nmui@@QAEXXZ  (0005E360)
               2699  A8A   ?clearAllHighlights@NMRollupSection@nmui@@IAEXXZ  (00083550)
               2700  A8B   ?clearBetweenSectionHighlight@NMRollupSection@nmui@@IAEXXZ  (00082DD0)
               2701  A8C   ?clearCellColour@NMColumnItemAttr@nmui@@QAEXXZ  (0000C500)
               2702  A8D   ?clearChildren@GuiNode@nmui@@QAEXXZ  (000239A0)
               2703  A8E   ?clearDragOver@TreeControl@nmui@@QAE_NXZ  (000B2750)
               2704  A8F   ?clearHighlightedItems@DragSelectState@NMListControlStates@nmui@@IAEXXZ  (00064AC0)
               2705  A90   ?clearHighlightedItems@NMListControl@nmui@@QAEXH@Z  (0005F250)
               2706  A91   ?clearHighlights@NMRollupContainer@nmui@@IAEXXZ  (00084420)
               2707  A92   ?clearHighlightsBetweenSections@NMRollupContainer@nmui@@IAEXXZ  (000844E0)
               2708  A93   ?clearMacroReplacements@NMMacroReplacementTool@nmui@@QAEXXZ  (00065BA0)
               2709  A94   ?clearNMStyleFlag@Window@nmui@@QAEXI@Z  (000A5980)
               2710  A95   ?clearPalette@NMPalette@nmui@@QAEXXZ  (00076850)
               2711  A96   ?clearPostedMessages@StateManager@nmui@@IAEXXZ  (00012070)
               2712  A97   ?clearRadioItems@NMRadioBox@nmui@@QAEXXZ  (00080840)
               2713  A98   ?clearSelectedItems@NMPalette@nmui@@QAEXXZ  (000766D0)
               2714  A99   ?clearSelection@NMListControl@nmui@@QAEXXZ  (0005E3F0)
               2715  A9A   ?clearSelection@NMSimpleTextCtrl@nmui@@QAEXXZ  (0009E9B0)
               2716  A9B   ?clearTextBackgroundColour@NMColumnItemAttr@nmui@@QAEXXZ  (0000C460)
               2717  A9C   ?clearTextColour@NMColumnItemAttr@nmui@@QAEXXZ  (0000C3C0)
               2718  A9D   ?clearTextOverlay@NMProgressBar@nmui@@QAEXXZ  (0007E0C0)
               2719  A9E   ?clearWatchedRoots@FilteredResourceObserver@nmui@@IAEXXZ  (000197A0)
               2720  A9F   ?clientToLogical@NMScrollPanel@nmui@@QBE?AVwxPoint@@V3@@Z  (00089BF0)
               2721  AA0   ?collapseDropDownList@NMComboBox@nmui@@IAEX_N@Z  (0004A5A0)
               2722  AA1   ?columnExpands@PanelBuilder@nmui@@QAEXHH@Z  (000A65A0)
               2723  AA2   ?columnHitTest@NMColumnWindow@nmui@@UBEHABVwxPoint@@PAH@Z  (00044300)
               2724  AA3   ?commentSelection@TextControl@nmui@@QAEXXZ  (000AD6C0)
               2725  AA4   ?commitRenameEdit@NMTextRenameCtrlOwner@nmui@@QAEXXZ  (0009E0E0)
               2726  AA5   ?compare@NMListItemCompareStrategyAlphabetical@nmui@@UBE_NPAVNMListItem_@2@0@Z  (0005BC50)
               2727  AA6   ?compare@NMListItemCompareStrategyInteger@nmui@@UBE_NPAVNMListItem_@2@0@Z  (0005BCB0)
               2728  AA7   ?compare@NMListItemCompareStrategySpatial@nmui@@UBE_NPAVNMListItem_@2@0@Z  (0005BC00)
               2729  AA8   ?compare@TreeItemCompareAlphabetically@nmui@@UBE_NPBVTreeItem@2@0@Z  (000B24F0)
               2730  AA9   ?compare@TreeItemCompareSpatially@nmui@@UBE_NPBVTreeItem@2@0@Z  (000B0CC0)
               2731  AAA   ?compareIdentifier@NMDnDData@nmui@@QBE_NVwxString@@@Z  (0004DBF0)
               2732  AAB   ?computeBounds@MenuBar@nmui@@IAEXPAVwxDC@@@Z  (000698F0)
               2733  AAC   ?computeBounds@NMColumnWindow@nmui@@MAEXAAVwxDC@@@Z  (00043A20)
               2734  AAD   ?computeBounds@TreeItem@nmui@@MAEXAAH0AAVwxDC@@@Z  (000B5C10)
               2735  AAE   ?concatPaths@nmui@@YA?AVwxString@@ABV2@0@Z  (00002710)
               2736  AAF   ?connectToEvents@Button@nmui@@IAEXXZ  (0003A210)
               2737  AB0   ?connectToEvents@GuiController@nmui@@QAE_NJ@Z  (00020F80)
               2738  AB1   ?connectToEvents@NMStaticBitmap@nmui@@IAEXXZ  (00097920)
               2739  AB2   ?connectToEvents@wxEventInterceptor@nmui@@QAE_NJ@Z  (000BFCF0)
               2740  AB3   ?constructCursorFromXPM@nmui@@YA_NPAPBDAAVwxCursor@@@Z  (00007390)
               2741  AB4   ?constructInitialTree@StateManager@nmui@@AAEXAAV?$list@PAVBaseState@nmui@@V?$allocator@PAVBaseState@nmui@@@std@@@std@@@Z  (00013180)
               2742  AB5   ?constructTree@StateManager@nmui@@AAEXPBVBaseState@2@0AAV?$list@PAVBaseState@nmui@@V?$allocator@PAVBaseState@nmui@@@std@@@std@@@Z  (00012E90)
               2743  AB6   ?contains@nmui@@YA_NABVwxArrayString@@ABVwxString@@@Z  (00052660)
               2744  AB7   ?containsWindow@Notebook@nmui@@UBE_NPAVwxWindow@@@Z  (0006E7B0)
               2745  AB8   ?controlShiftSelect@NMListControl@nmui@@QAEXPAVNMListItem_@2@@Z  (00062BB0)
               2746  AB9   ?convertColour@GUIServices@nmui@@QAEXABVwxColour@@QAM@Z  (0002CCE0)
               2747  ABA   ?convertColour@GUIServices@nmui@@QAEXQBMAAVwxColour@@@Z  (0002CC40)
               2748  ABB   ?convertGuiToScreen@GuiNodeTransform@nmui@@QBE?AVwxPoint@@ABVNMPoint2D@NMutils@@@Z  (00022CD0)
               2749  ABC   ?convertGuiToScreenFloat@GuiNodeTransform@nmui@@QBE?AVNMPoint2D@NMutils@@ABV34@@Z  (00022D80)
               2750  ABD   ?convertHueToRGB@GUIServices@nmui@@IAEMMMM@Z  (0002C2C0)
               2751  ABE   ?convertScreenToGui@GuiNodeTransform@nmui@@QBE?AVNMPoint2D@NMutils@@ABVwxPoint@@@Z  (00022C90)
               2752  ABF   ?convertScreenToGuiFloat@GuiNodeTransform@nmui@@QBE?AVNMPoint2D@NMutils@@ABV34@@Z  (00022D30)
               2753  AC0   ?copy@NotebookWindowData@nmui@@QAEXPBU12@@Z  (0006B340)
               2754  AC1   ?copyCursor@Cursors@nmui@@3PAPBDA  (001C12D8)
               2755  AC2   ?copyTextToClipboard@NMListControl@nmui@@QAEXHPAVNMListItem_@2@0@Z  (0005CE50)
               2756  AC3   ?copyTextToClipboard@TreeControl@nmui@@QAEXHABV?$Vector@PAVTreeItem@nmui@@@NMutils@@@Z  (000B78D0)
               2757  AC4   ?copyToClipboard@NMSimpleTextCtrl@nmui@@QAEXHH@Z  (0009DBE0)
               2758  AC5   ?copyXcomponents@GuiNodeTransform@nmui@@QAEXABV12@@Z  (00022980)
               2759  AC6   ?copyYcomponents@GuiNodeTransform@nmui@@QAEXABV12@@Z  (000229B0)
               2760  AC7   ?countFilesInActions@FileResourceManager@nmui@@AAEIXZ  (0001B440)
               2761  AC8   ?create@TaskListDialog@nmui@@QAE_NPB_WVwxSize@@@Z  (0009BD60)
               2762  AC9   ?createContextForBitmap@RawGLCanvas@nmui@@UAEXAAVwxDIB@@H@Z  (000ABFA0)
               2763  ACA   ?createContextMenu@NMSplitter@nmui@@IAEXHH@Z  (00094550)
               2764  ACB   ?createDefaultWindowData@Notebook@nmui@@QBEPAUNotebookWindowData@2@AAVwxString@@@Z  (0006B7E0)
               2765  ACC   ?createFileItem@DirectoryWatchTreeView@nmui@@AAEPAVTreeItem@2@PAV32@ABVwxString@@PAUWatchedPathUserData@12@1@Z  (0000EB00)
               2766  ACD   ?createFolderItem@DirectoryWatchTreeView@nmui@@AAEPAVTreeItem@2@PAV32@ABVwxString@@PAUWatchedPathUserData@12@1@Z  (0000EBE0)
               2767  ACE   ?createListControl@GUIServices@nmui@@QAEPAVPanel@2@PAVNMListControl@2@PAVwxWindow@@PAVwxSizer@@HABVwxPoint@@ABVwxSize@@ABVNMStyle@2@ABVwxString@@H_N7@Z  (0002C950)
               2768  ACF   ?createNavigatorItem@NavigatorTree@nmui@@QAEPAVNavigatorTreeItem@2@ABVwxString@@0@Z  (000360D0)
               2769  AD0   ?createNavigatorItem@NavigatorTree@nmui@@QAEPAVNavigatorTreeItem@2@PAVNavigatorItemType@2@ABVwxString@@@Z  (00035C60)
               2770  AD1   ?createNavigatorTreeItem@NavigatorTree@nmui@@MAEPAVNavigatorTreeItem@2@ABVwxString@@AAVNavigatorItemType@2@@Z  (00034F90)
               2771  AD2   ?createStandardButtons@Dialog@nmui@@QAEPAVwxSizer@@W4ButtonArrays@12@H@Z  (0004C5B0)
               2772  AD3   ?createThreadHelper@FileResourceManager@nmui@@MAEPAVResourceManagerThreadHelper@2@ABVwxString@@@Z  (000170B0)
               2773  AD4   ?createTreeControl@GUIServices@nmui@@QAEPAVPanel@2@PAVTreeControl@2@PAVwxWindow@@PAVwxSizer@@HABVwxPoint@@ABVwxSize@@ABVNMStyle@2@ABVwxString@@H_N7@Z  (0002CAE0)
               2774  AD5   ?cutToClipboard@NMSimpleTextCtrl@nmui@@QAEXHH@Z  (0009EB30)
               2775  AD6   ?cycleCallTip@TextControl@nmui@@IAEX_N@Z  (000AE420)
               2776  AD7   ?darkArrowRight@Icons@nmui@@3PAPBDA  (001C7898)
               2777  AD8   ?decrementInsertionPoint@NMSimpleTextCtrl@nmui@@QAEXXZ  (0009FA40)
               2778  AD9   ?delayInPlaceEditor@HoverState@NMListControlStates@nmui@@IAEXXZ  (00064030)
               2779  ADA   ?delayInPlaceEditor@WaitState@TreeControlStates@nmui@@IAEXXZ  (000BDF80)
               2780  ADB   ?deleteAllButtons@NMToolBar@nmui@@QAEXXZ  (000A2740)
               2781  ADC   ?deleteAllItems@NMIconBar@nmui@@QAEXXZ  (00057370)
               2782  ADD   ?deleteAllItems@NMIconBarSlots@nmui@@QAEXXZ  (000569F0)
               2783  ADE   ?deleteAllItems@NMListControl@nmui@@QAEXXZ  (00060870)
               2784  ADF   ?deleteAllLegends@NMColourLegend@nmui@@QAEXXZ  (0003DE40)
               2785  AE0   ?deleteAssignedUserData@MenuItem@nmui@@QAEXXZ  (00066360)
               2786  AE1   ?deleteButton@NMToolBar@nmui@@QAE_NH@Z  (000A38C0)
               2787  AE2   ?deleteCross_xpm@Icons@nmui@@3PAPBDA  (001C8178)
               2788  AE3   ?deleteItem@NMIconBar@nmui@@QAEXPAVNMIconBarItem_@2@@Z  (00057380)
               2789  AE4   ?deleteItem@NMIconBarSlots@nmui@@QAEXPAVNMIconBarItem_@2@@Z  (00056B40)
               2790  AE5   ?deleteItem@NMListControl@nmui@@QAEXPAVNMListItem_@2@@Z  (00062470)
               2791  AE6   ?deleteItemByIndex@NMIconBar@nmui@@QAEXH@Z  (000573A0)
               2792  AE7   ?deleteItemByIndex@NMIconBarSlots@nmui@@QAEXH@Z  (00056CB0)
               2793  AE8   ?deleteItemByIndex@NMListControl@nmui@@QAEXH@Z  (000628D0)
               2794  AE9   ?deleteItems@NMListControl@nmui@@QAEHAAVNMListItemPredicate@2@@Z  (00062580)
               2795  AEA   ?deletePendingTasks@FileResourceManager@nmui@@AAEXI@Z  (0001BB50)
               2796  AEB   ?deletePopup@PopupMenu@nmui@@IAEXXZ  (00079830)
               2797  AEC   ?deleteSelectedItem@NMIconBar@nmui@@QAEXXZ  (000573F0)
               2798  AED   ?deleteSelectedItem@NMIconBarSlots@nmui@@QAEXXZ  (00056CF0)
               2799  AEE   ?deleteSelectedItems@NMListControl@nmui@@QAEXXZ  (00062DB0)
               2800  AEF   ?deleteSelectedText@NMSimpleTextCtrl@nmui@@QAEXXZ  (0009E9E0)
               2801  AF0   ?deleteString@NMComboBox@nmui@@QAE_NABVwxString@@@Z  (0004A660)
               2802  AF1   ?deleteString@NMComboBox@nmui@@QAE_NH@Z  (00049F60)
               2803  AF2   ?destroyRenameControl@NMTextRenameCtrlOwner@nmui@@QAEXXZ  (0009E080)
               2804  AF3   ?destroyWhenIdle@Window@nmui@@UAEXXZ  (000A4D50)
               2805  AF4   ?detachChild@GuiNode@nmui@@QAE_NPAV12@@Z  (00024740)
               2806  AF5   ?dirWasMovedHere@NMFileLocator@nmui@@QAE_NABVwxString@@0@Z  (00051E90)
               2807  AF6   ?dirtyBounds@NMColumnWindow@nmui@@MAEXXZ  (00042550)
               2808  AF7   ?dirtyBoundsOptimised@NMListControl@nmui@@IAEXPAVNMListItem_@2@@Z  (00060520)
               2809  AF8   ?dirtyFilter@TreeControl@nmui@@IAEXXZ  (000B0F10)
               2810  AF9   ?disableEvent@wxEventDisabler@nmui@@QAEXH@Z  (00004D10)
               2811  AFA   ?disableRedraw@NMScrollWindow@nmui@@QAEXXZ  (0008AAA0)
               2812  AFB   ?discardResources@NMSplitter@nmui@@AAEXXZ  (00093A60)
               2813  AFC   ?disconnectFromEvents@GuiController@nmui@@QAE_NXZ  (000211F0)
               2814  AFD   ?disconnectFromEvents@wxEventInterceptor@nmui@@QAE_NXZ  (000BFF80)
               2815  AFE   ?dismiss@PopupPanel@nmui@@UAEX_N@Z  (0007CF40)
               2816  AFF   ?dismissAndApplyIfValid@PopupPanel@nmui@@QAE_NXZ  (0007C780)
               2817  B00   ?dismissAndApplyPopupWidget@NMListControl@nmui@@QAE_NXZ  (0005A2B0)
               2818  B01   ?dismissAndApplyPopupWidget@TreeControl@nmui@@QAE_NXZ  (000B1040)
               2819  B02   ?dismissIfValid@PopupPanel@nmui@@UAE_NXZ  (0007CB30)
               2820  B03   ?dismissPopupWidget@NMListControl@nmui@@QAE_N_N@Z  (0005A270)
               2821  B04   ?dismissPopupWidget@TreeControl@nmui@@QAEXXZ  (000B1020)
               2822  B05   ?doBoxHitTest@GuiNodeWindowBase@nmui@@UAE_NABVNMBox2D@NMutils@@AAV?$Vector@PAVGuiNode@nmui@@@4@@Z  (00027400)
               2823  B06   ?doCaptureMouse@PopupPanel@nmui@@IAEXXZ  (0007C690)
               2824  B07   ?doChooserSearchFilterChanged@NMFilterCtrl@nmui@@MAEXXZ  (00052720)
               2825  B08   ?doComputeBounds@NMListControl@nmui@@MAEXAAVwxDC@@@Z  (00061EE0)
               2826  B09   ?doComputeBounds@TreeControl@nmui@@MAEXAAVwxDC@@@Z  (000B4F20)
               2827  B0A   ?doEnsureVisible@TreeControl@nmui@@IAEXPAVTreeItem@2@@Z  (000B2830)
               2828  B0B   ?doGetIntersectingTreeItems@TreeControl@nmui@@IBEXPAVTreeItem@2@ABVwxRect@@AAV?$Vector@PAVTreeItem@nmui@@@NMutils@@@Z  (000BAFC0)
               2829  B0C   ?doHitTest@NMPalette@nmui@@QBEPAVNMPaletteItem@2@ABVwxPoint@@@Z  (00076370)
               2830  B0D   ?doHitTest@TreeControl@nmui@@IBEPAVTreeItem@2@PAV32@ABVwxPoint@@PAH@Z  (000B8CB0)
               2831  B0E   ?doInit@Button@nmui@@IAEXXZ  (00038910)
               2832  B0F   ?doInit@NMSplitter@nmui@@IAEXXZ  (00094170)
               2833  B10   ?doInit@NMStaticBitmap@nmui@@IAEXXZ  (0000A8C0)
               2834  B11   ?doInit@Notebook@nmui@@IAEXXZ  (0006EF20)
               2835  B12   ?doInsertChild@TreeItem@nmui@@IAEXPAV12@0@Z  (000BB940)
               2836  B13   ?doLayout@NMRollupSection@nmui@@IAEXXZ  (00083470)
               2837  B14   ?doLog@MessageBoxLogger@nmui@@IAEXW4Level@BasicLogger@NMutils@@AAV?$basic_string@_WU?$char_traits@_W@std@@V?$allocator@_W@2@@std@@@Z  (00033E10)
               2838  B15   ?doPointHitTest@GuiNodeWindowBase@nmui@@UAEPAVGuiNode@2@ABVNMPoint2D@NMutils@@@Z  (000C0C60)
               2839  B16   ?doProfiling@NMListControl@nmui@@QBE_NXZ  (00027C10)
               2840  B17   ?doReleaseMouse@PopupPanel@nmui@@IAEXXZ  (0007C710)
               2841  B18   ?doRemoveChild@TreeItem@nmui@@IAEXPAV12@@Z  (000B82D0)
               2842  B19   ?doRender@GuiNodeWindow@nmui@@UAEXAAVwxDC@@@Z  (00037DF0)
               2843  B1A   ?doRender@GuiNodeWindowGdiPlus@nmui@@UAEXAAVGraphics@Gdiplus@@@Z  (00037DF0)
               2844  B1B   ?doRender@GuiNodeWindowGdiPlus@nmui@@UAEXAAVwxDC@@@Z  (00027600)
               2845  B1C   ?doRender@RawGLCanvas@nmui@@UAEXXZ  (0000A8C0)
               2846  B1D   ?doResetDefaultRenderOrder@CellRenderer@nmui@@IAEXJ@Z  (0003BC10)
               2847  B1E   ?doSearchCancelled@NMFilterCtrl@nmui@@MAEXXZ  (000523A0)
               2848  B1F   ?doSearchPopupClicked@NMFilterCtrl@nmui@@MAEXXZ  (00052330)
               2849  B20   ?doSendWindowToOtherNotebook@Notebook@nmui@@IAE_NPAV12@PAVwxWindow@@1@Z  (0006D630)
               2850  B21   ?doSetSelectionString@NMComboBox@nmui@@IAEXABVwxString@@@Z  (00046BB0)
               2851  B22   ?doSetupBackground@NMFloatSlider@nmui@@MAEXXZ  (000532C0)
               2852  B23   ?doSetupBackground@NMIntSlider@nmui@@MAEXXZ  (000532C0)
               2853  B24   ?doSetupBackground@NMRollupHeading@nmui@@MAEXXZ  (00081190)
               2854  B25   ?doSetupBackground@NMUIntSlider@nmui@@MAEXXZ  (000532C0)
               2855  B26   ?doSetupBackground@Window@nmui@@MAEXXZ  (000A4DE0)
               2856  B27   ?doSplit@NMSplitter@nmui@@QAEXXZ  (000964D0)
               2857  B28   ?doTaskComplete@TaskListItem@nmui@@UAE?AW4TaskResult@2@XZ  (00099B40)
               2858  B29   ?doTaskDontComplete@TaskListItemBase@nmui@@UAEXXZ  (0000A8C0)
               2859  B2A   ?doTerm@Notebook@nmui@@IAEXXZ  (00071700)
               2860  B2B   ?doUnlinkItem@TreeItem@nmui@@IAEXPAV12@@Z  (000B1230)
               2861  B2C   ?dotsBlockHorizontal@Icons@nmui@@3PAPBDA  (001C7A54)
               2862  B2D   ?dotsBlockVertical@Icons@nmui@@3PAPBDA  (001C7A70)
               2863  B2E   ?draw@CellRenderer@nmui@@IAEXXZ  (0003B560)
               2864  B2F   ?drawBGFocusRect@GUIServices@nmui@@QAEXAAVwxDC@@ABVwxRect@@@Z  (0002ADA0)
               2865  B30   ?drawBackground@Button@nmui@@IAEXPAVwxDC@@@Z  (00039160)
               2866  B31   ?drawBackgroundTinting@TreeItem@nmui@@IAEXAAVwxDC@@H@Z  (000B1A30)
               2867  B32   ?drawBox@CellRenderer@nmui@@UAEXVwxRect@@PAVwxDC@@@Z  (0003AE40)
               2868  B33   ?drawCellBackground@CellRenderer@nmui@@IAEXXZ  (0003B230)
               2869  B34   ?drawCellForeground@CellRenderer@nmui@@IAEXXZ  (0003B0F0)
               2870  B35   ?drawCheckBox@CellRenderer@nmui@@MAEXXZ  (0003A9B0)
               2871  B36   ?drawCheckBox@GUIServices@nmui@@QAEXAAVwxDC@@ABVwxPoint@@_N22222@Z  (0002BCC0)
               2872  B37   ?drawCheckMarkTick@GUIServices@nmui@@QAEXAAVwxDC@@ABVwxPoint@@_N@Z  (0002BC20)
               2873  B38   ?drawCheckbox@TreeItem@nmui@@IAEXAAVwxDC@@ABVwxPoint@@W4CheckState@NMColumnItemAttr@2@@Z  (000B1BD0)
               2874  B39   ?drawChecked@Button@nmui@@IAE_NXZ  (000390E0)
               2875  B3A   ?drawColourSwatch@CellRenderer@nmui@@MAEXXZ  (0003AC50)
               2876  B3B   ?drawColourSwatch@GUIServices@nmui@@QAEXAAVwxDC@@VwxColour@@ABVwxRect@@@Z  (0002AC80)
               2877  B3C   ?drawColumnItem@NMProfilerMinMaxPeakStrategy@nmui@@UAE_NPAVNMProfilerWindowTreeItem@2@AAVwxDC@@H@Z  (0007D370)
               2878  B3D   ?drawColumnItem@TreeItem@nmui@@MAEXAAVwxDC@@H@Z  (000B7200)
               2879  B3E   ?drawControlDisabledText@GUIServices@nmui@@QAEXAAVwxDC@@ABVwxString@@ABVwxPoint@@@Z  (0002D180)
               2880  B3F   ?drawControlLine@GUIServices@nmui@@QAEXAAVwxDC@@ABVwxPoint@@1@Z  (0002A7A0)
               2881  B40   ?drawControlRect@GUIServices@nmui@@QAEXAAVwxDC@@ABVwxRect@@_N@Z  (0002D1F0)
               2882  B41   ?drawControlSelectedText@GUIServices@nmui@@QAEXAAVwxDC@@ABVwxString@@ABVwxPoint@@@Z  (0002D100)
               2883  B42   ?drawControlSelectedUnfocusedText@GUIServices@nmui@@QAEXAAVwxDC@@ABVwxString@@ABVwxPoint@@@Z  (0002D140)
               2884  B43   ?drawControlText@GUIServices@nmui@@QAEXAAVwxDC@@ABVwxString@@ABVwxPoint@@@Z  (0002D0C0)
               2885  B44   ?drawControlTitleRect@GUIServices@nmui@@QAEXAAVwxDC@@ABVwxRect@@_N@Z  (0002D1C0)
               2886  B45   ?drawControlTitleText@GUIServices@nmui@@QAEXAAVwxDC@@ABVwxString@@ABVwxPoint@@@Z  (0002D080)
               2887  B46   ?drawDialog3DRect@GUIServices@nmui@@QAEXAAVwxDC@@ABVwxRect@@@Z  (0002A9C0)
               2888  B47   ?drawDialogHighlightRect@GUIServices@nmui@@QAEXAAVwxDC@@ABVwxRect@@@Z  (0002D250)
               2889  B48   ?drawDialogLine@GUIServices@nmui@@QAEXAAVwxDC@@ABVwxPoint@@1_N@Z  (0002A7D0)
               2890  B49   ?drawDialogRect@GUIServices@nmui@@QAEXAAVwxDC@@ABVwxRect@@@Z  (0002D220)
               2891  B4A   ?drawDialogText@GUIServices@nmui@@QAEXAAVwxDC@@ABVwxString@@ABVwxPoint@@@Z  (0002D080)
               2892  B4B   ?drawDownArrow@GUIServices@nmui@@QAEXAAVwxDC@@ABVwxRect@@_N@Z  (0002B790)
               2893  B4C   ?drawFocusRect@GUIServices@nmui@@QAEXAAVwxDC@@ABVwxRect@@N@Z  (0002AD30)
               2894  B4D   ?drawHorizontalScrollBar@GUIServices@nmui@@QAEXAAVwxDC@@ABVwxRect@@111H@Z  (0002B9E0)
               2895  B4E   ?drawHorizontalSeparator@CellRenderer@nmui@@UAEXH@Z  (0003ADC0)
               2896  B4F   ?drawImage@CellRenderer@nmui@@MAEXXZ  (0003ABA0)
               2897  B50   ?drawLeftArrow@GUIServices@nmui@@QAEXAAVwxDC@@ABVwxRect@@_N@Z  (0002B070)
               2898  B51   ?drawRadioButton@CellRenderer@nmui@@MAEXXZ  (0003AAB0)
               2899  B52   ?drawRect@GUIServices@nmui@@QAEXAAVwxDC@@ABVwxRect@@ABVwxBrush@@ABVwxPen@@_N@Z  (0002A880)
               2900  B53   ?drawRightArrow@GUIServices@nmui@@QAEXAAVwxDC@@ABVwxRect@@_N@Z  (0002B2D0)
               2901  B54   ?drawRollupHeadingTriangle@GUIServices@nmui@@QAEXAAVwxDC@@W4RollupHeadingState@12@HHH_N@Z  (000313E0)
               2902  B55   ?drawScrollbar@GUIServices@nmui@@QAEXAAVwxDC@@ABVwxRect@@111_N@Z  (00031170)
               2903  B56   ?drawScrollbarThumb@GUIServices@nmui@@QAEXAAVwxDC@@ABVwxRect@@_N2222@Z  (0002ADE0)
               2904  B57   ?drawSelectedBoundingBox@CellRenderer@nmui@@IAEXXZ  (0003B430)
               2905  B58   ?drawShallowRect@GUIServices@nmui@@QAEXAAVwxDC@@ABVwxRect@@_N@Z  (0002AB20)
               2906  B59   ?drawText@CellRenderer@nmui@@MAEXXZ  (0003B400)
               2907  B5A   ?drawText@GUIServices@nmui@@QAEXAAVwxDC@@ABVwxString@@ABVwxPoint@@ABVwxColour@@@Z  (0002A570)
               2908  B5B   ?drawText@PopupMenu@nmui@@IAEXAAVwxBufferedPaintDC@@ABVwxString@@AAVwxRect@@ABW4wxAlignment@@ABVwxColour@@@Z  (00079760)
               2909  B5C   ?drawText@TreeItem@nmui@@MAEXAAVwxDC@@ABVwxString@@ABVwxPoint@@H@Z  (000B1DE0)
               2910  B5D   ?drawTextClipped@GUIServices@nmui@@QAEXAAVwxDC@@ABVwxString@@ABVwxRect@@W4wxAlignment@@W4TextTruncation@12@@Z  (0002A660)
               2911  B5E   ?drawTick@GUIServices@nmui@@QAEXAAVwxDC@@ABVwxPoint@@_N22222@Z  (0002C040)
               2912  B5F   ?drawUpArrow@GUIServices@nmui@@QAEXAAVwxDC@@ABVwxRect@@_N@Z  (0002B530)
               2913  B60   ?drawVerticalConnector@TreeItem@nmui@@MAEXAAVwxDC@@@Z  (000B4590)
               2914  B61   ?drawVerticalScrollBar@GUIServices@nmui@@QAEXAAVwxDC@@ABVwxRect@@111H@Z  (0002D2C0)
               2915  B62   ?drawVerticalSeparator@CellRenderer@nmui@@UAEXH@Z  (0003AD00)
               2916  B63   ?eatEventIfNecessary@GuiController@nmui@@AAE_NAAVwxEvent@@@Z  (000205E0)
               2917  B64   ?eatNextEvent@GuiController@nmui@@QAEXH@Z  (000205D0)
               2918  B65   ?eatNextEvent@GuiNodeState@nmui@@QAEXH@Z  (000230E0)
               2919  B66   ?editColour@NMColourSwatch@nmui@@QAEXXZ  (0003F070)
               2920  B67   ?empty@TaskListDialog@nmui@@QBE_NXZ  (00099E40)
               2921  B68   ?emulateButtonClickIfPresent@Dialog@nmui@@IAE_NH@Z  (0004D240)
               2922  B69   ?enable@Frame@nmui@@UAEX_N@Z  (000A5460)
               2923  B6A   ?enable@Menu@nmui@@QAEXH_N@Z  (000671A0)
               2924  B6B   ?enable@MenuItem@nmui@@QAEX_N@Z  (00066080)
               2925  B6C   ?enable@NMFrameRateControl@nmui@@MAEX_N@Z  (00054430)
               2926  B6D   ?enable@NMIconBar@nmui@@UAEX_N@Z  (00055830)
               2927  B6E   ?enable@NMListItem_@nmui@@QAEX_N@Z  (00027C70)
               2928  B6F   ?enable@NMSimpleTextCtrl@nmui@@MAEX_N@Z  (0009D7C0)
               2929  B70   ?enable@Window@nmui@@UAEX_N@Z  (000A4EB0)
               2930  B71   ?enableAutoComplete@TextControl@nmui@@QAEX_N@Z  (000AD230)
               2931  B72   ?enableCallTips@TextControl@nmui@@QAEX_N@Z  (000AD250)
               2932  B73   ?enableContextMenu@NMSplitter@nmui@@QAEX_N@Z  (00027F40)
               2933  B74   ?enableCurrentFrameMarker@NMSimpleGraph@nmui@@QAEX_N@Z  (0008BBD0)
               2934  B75   ?enableDebugMode@FiniteStateMachine@nmui@@SAX_NPAVBasicLogger@NMutils@@@Z  (00007470)
               2935  B76   ?enableDebugMode@StateManager@nmui@@SAX_NPAVBasicLogger@NMutils@@@Z  (00010D90)
               2936  B77   ?enableDragging@NMSplitter@nmui@@QAEX_N@Z  (00027F20)
               2937  B78   ?enableFolding@TextControl@nmui@@QAEX_NHABVwxColour@@1@Z  (000AE720)
               2938  B79   ?enableItem@NMListControl@nmui@@QAEXPAVNMListItem_@2@_N@Z  (0005AF40)
               2939  B7A   ?enableLineNumbers@TextControl@nmui@@QAEX_N@Z  (000ACEA0)
               2940  B7B   ?enableLineWrapping@TextControl@nmui@@QAEX_N@Z  (000ACDA0)
               2941  B7C   ?enableProfiling@NMListControl@nmui@@SAX_N@Z  (00027BF0)
               2942  B7D   ?enableRedraw@NMScrollWindow@nmui@@QAEXXZ  (0008AAB0)
               2943  B7E   ?enableSelectionEvents@TreeControl@nmui@@QAEX_N@Z  (000B0E80)
               2944  B7F   ?enableSelectionUpdate@NavigatorTree@nmui@@QAEX_N@Z  (00035370)
               2945  B80   ?enableValueMarker@NMSimpleGraph@nmui@@QAEX_N@Z  (0008BC30)
               2946  B81   ?end@NMListControl@nmui@@QBE?AV?$_Vector_const_iterator@PAVNMListItem_@nmui@@V?$allocator@PAVNMListItem_@nmui@@@std@@@std@@XZ  (0005D400)
               2947  B82   ?endDialog@Dialog@nmui@@IAEXH@Z  (0004BBD0)
               2948  B83   ?endDragScrolling@NMComboBoxListCtrl@nmui@@IAEXXZ  (00046100)
               2949  B84   ?endNotebook@PanelBuilder@nmui@@QAEXXZ  (000A9D10)
               2950  B85   ?endNotebookPage@PanelBuilder@nmui@@QAEXXZ  (000A9D10)
               2951  B86   ?endOfLineSymbolsShown@TextControl@nmui@@QAE_NXZ  (000ACE90)
               2952  B87   ?endPanel@PanelBuilder@nmui@@QAEXXZ  (000A9D10)
               2953  B88   ?endRollupHeading@PanelBuilder@nmui@@QAEXXZ  (000A9DE0)
               2954  B89   ?endScrollWindow@PanelBuilder@nmui@@QAEXXZ  (000A9D10)
               2955  B8A   ?endSizer@PanelBuilder@nmui@@QAEXXZ  (000A6740)
               2956  B8B   ?endSplitter@PanelBuilder@nmui@@QAEXXZ  (000A9E10)
               2957  B8C   ?endSwitchablePanel@PanelBuilder@nmui@@QAEXXZ  (000A9D20)
               2958  B8D   ?endToolbar@PanelBuilder@nmui@@QAEXXZ  (000A9D10)
               2959  B8E   ?ensureChangesApplied@NMSimpleTextCtrl@nmui@@MAEXXZ  (0009D940)
               2960  B8F   ?ensureChangesApplied@NMTextRenameCtrl@nmui@@UAEXXZ  (0009E2D0)
               2961  B90   ?ensureDirectoryExists@nmui@@YA_NABVwxString@@@Z  (000024D0)
               2962  B91   ?ensureItemVisible@NMComboBoxListCtrl@nmui@@IAEXH@Z  (00047530)
               2963  B92   ?ensureStringQuoted@nmui@@YAXAAVwxString@@@Z  (000035A0)
               2964  B93   ?ensureVisible@NMListControl@nmui@@QAEXPAVNMListItem_@2@H@Z  (0005B500)
               2965  B94   ?ensureVisibleByIndex@NMListControl@nmui@@QAEXHH@Z  (0005D700)
               2966  B95   ?ensureWholeSelectionVisible@NMListControl@nmui@@QAEXXZ  (00061570)
               2967  B96   ?enumerateChildren@ResourceManagerThreadHelper@nmui@@UAE_NABVwxString@@W4ResourceTypeId@2@PAV?$vector@UResourceDetails@nmui@@@nmtl@@@Z  (0001D110)
               2968  B97   ?enumerateDirPathFiles@DirectoryWatchTreeView@nmui@@AAEXPAUWatchedPathUserData@12@PAVTreeItem@2@ABVwxString@@@Z  (0000EE80)
               2969  B98   ?enumerateDirPathItemsRecursively@DirectoryWatchTreeView@nmui@@AAEXPAUWatchedPathUserData@12@PAVTreeItem@2@ABVwxString@@H@Z  (0000F000)
               2970  B99   ?eraseCell@NMListItem_@nmui@@QAEXI@Z  (0005FAE0)
               2971  B9A   ?eraseCell@TreeItem@nmui@@QAEXI@Z  (000B9880)
               2972  B9B   ?eraseColumn@NMColumnWindow@nmui@@UAEXI@Z  (00044DB0)
               2973  B9C   ?eraseColumn@NMListControl@nmui@@UAEXI@Z  (000606D0)
               2974  B9D   ?eraseColumn@TreeControl@nmui@@UAEXI@Z  (000B9EF0)
               2975  B9E   ?executeEntry@StateManager@nmui@@QAEXPBVBaseState@2@ABV?$basic_string@_WU?$char_traits@_W@std@@V?$allocator@_W@2@@std@@PAX@Z  (00013DA0)
               2976  B9F   ?executeExit@StateManager@nmui@@QAEPBVBaseState@2@PAV32@ABV?$basic_string@_WU?$char_traits@_W@std@@V?$allocator@_W@2@@std@@@Z  (00012D20)
               2977  BA0   ?expand@NMComboBoxListCtrl@nmui@@QAEXHH@Z  (000498D0)
               2978  BA1   ?expand@NMRollupHeadingEvent@nmui@@QAEX_N@Z  (000815B0)
               2979  BA2   ?expand@NMRollupSection@nmui@@QAEX_N@Z  (00085C40)
               2980  BA3   ?expandAllFoldedLines@TextControl@nmui@@QAEXXZ  (000AE6A0)
               2981  BA4   ?expandDropDownList@NMComboBox@nmui@@QAEXXZ  (00049E40)
               2982  BA5   ?expandTabs@nmui@@YAXABVwxString@@AAV2@H@Z  (00003390)
               2983  BA6   ?extensionPermitted@ResourceManagerThreadHelper@nmui@@QBE_NABVwxString@@@Z  (00016AA0)
               2984  BA7   ?fileWasMovedHere@NMFileLocator@nmui@@QAE_NABVwxString@@0@Z  (00051AE0)
               2985  BA8   ?fillImage@GUIServices@nmui@@QAEXPAVwxImage@@ABVwxColour@@@Z  (0002CE60)
               2986  BA9   ?filterAndAddResources@FilteredResourceObserver@nmui@@IAEXABV?$hashmap_dense_dynamic@I_N@nmtl@@@Z  (00019B50)
               2987  BAA   ?filterAndModifyResources@FilteredResourceObserver@nmui@@IAEXABV?$hashmap_dense_dynamic@I_N@nmtl@@@Z  (00019BF0)
               2988  BAB   ?filterAndRemoveResources@FilteredResourceObserver@nmui@@IAEXABV?$hashmap_dense_dynamic@I_N@nmtl@@@Z  (00019D50)
               2989  BAC   ?filterChanged@TreeControl@nmui@@QAEXXZ  (0000CA00)
               2990  BAD   ?filterResource@FilteredResourceObserver@nmui@@UAE_NIW4ResourceTypeId@2@ABVwxString@@@Z  (00016B20)
               2991  BAE   ?filterResources@FilteredResourceObserver@nmui@@IAEXABV?$hashmap_dense_dynamic@I_N@nmtl@@_NPAV34@@Z  (000197E0)
               2992  BAF   ?filterTreeItem@TreeLabelPredicate@nmui@@UAE_NPBVTreeItem@2@@Z  (000B1FC0)
               2993  BB0   ?filteredResources@FilteredResourceObserver@nmui@@QBEABV?$hashmap_dense_dynamic@I_N@nmtl@@XZ  (00016550)
               2994  BB1   ?findChild@GuiNode@nmui@@QAEHP6A_NPBV12@@Z@Z  (00023C40)
               2995  BB2   ?findCommonAncestor@FileResourceManager@nmui@@QAEIABV?$hashmap_dense_dynamic@I_N@nmtl@@@Z  (0001E870)
               2996  BB3   ?findDir@NMFileLocator@nmui@@QBE_NABVwxString@@PAV3@@Z  (00050E50)
               2997  BB4   ?findFile@NMFileLocator@nmui@@QBE_NABVwxString@@PAV3@@Z  (00050CF0)
               2998  BB5   ?findFirstAncestor@FileResourceManager@nmui@@ABEPBVItemInfo@2@PBV32@W4ResourceTypeId@2@@Z  (00016A00)
               2999  BB6   ?findFirstAncestor@FileResourceManager@nmui@@QBEIIW4ResourceTypeId@2@@Z  (00018E50)
               3000  BB7   ?findGroup@NavigatorTree@nmui@@QAEPAVNavigatorGroup@2@PBVTreeItem@2@@Z  (00035D20)
               3001  BB8   ?findItem@Menu@nmui@@QBEPAVMenuItem@2@H_N@Z  (00066B00)
               3002  BB9   ?findItem@NMListControl@nmui@@QBEPAVNMListItem_@2@ABVwxString@@H@Z  (0005D940)
               3003  BBA   ?findItemByIntUserData@NMListControl@nmui@@QBEPAVNMListItem_@2@H@Z  (0005DB40)
               3004  BBB   ?findItemByText@Menu@nmui@@QBEPAVMenuItem@2@ABVwxString@@_N@Z  (00066C40)
               3005  BBC   ?findItemByVoidPtrUserData@NMListControl@nmui@@QBEPAVNMListItem_@2@PAX@Z  (0005DAA0)
               3006  BBD   ?findLeaves@FileResourceManager@nmui@@QBEIABV?$hashmap_dense_dynamic@I_N@nmtl@@PAV34@@Z  (00018F60)
               3007  BBE   ?findLeavesInRoots@FileResourceManager@nmui@@QBEIABV?$hashmap_dense_dynamic@I_N@nmtl@@0PAV34@@Z  (00019080)
               3008  BBF   ?findNextSelectableWindow@Notebook@nmui@@QBEPAVwxWindow@@XZ  (0006CC00)
               3009  BC0   ?findNextSubString@nmui@@YAIABVwxString@@0I_N@Z  (00003410)
               3010  BC1   ?findResource@FileResourceManager@nmui@@ABEPAVItemInfo@2@IABVwxString@@@Z  (0001F560)
               3011  BC2   ?findResource@FileResourceManager@nmui@@ABEPAVItemInfo@2@PAV32@ABVwxString@@@Z  (0001DFF0)
               3012  BC3   ?findResourceId@FileResourceManager@nmui@@QBEIIABVwxString@@@Z  (0001F610)
               3013  BC4   ?findRoot@FileResourceManager@nmui@@ABEPAVItemInfo@2@ABVwxString@@@Z  (00018570)
               3014  BC5   ?findRoot@FileResourceManager@nmui@@ABEPAVItemInfo@2@PAV32@@Z  (00016960)
               3015  BC6   ?findRoot@FileResourceManager@nmui@@QBEII@Z  (00018BD0)
               3016  BC7   ?findRootFromWatchId@FileResourceManager@nmui@@AAEPAVItemInfo@2@I@Z  (00017B00)
               3017  BC8   ?findRootId@FileResourceManager@nmui@@QBEIABVwxString@@@Z  (000188B0)
               3018  BC9   ?findShortcutItem@Menu@nmui@@QBEPAVMenuItem@2@_WPAV32@@Z  (00067350)
               3019  BCA   ?findSizerItem@NMRollupContainer@nmui@@IAEPAVwxSizerItem@@PAVNMRollupSection@2@@Z  (00083090)
               3020  BCB   ?findSuitableDropTarget@Notebook@nmui@@SAPAV12@PAVwxWindow@@AAVwxPoint@@ABVwxString@@@Z  (0006F590)
               3021  BCC   ?findSuitableParent@Dialog@nmui@@IBEPAVwxWindow@@XZ  (0004BB50)
               3022  BCD   ?findWatchId@FileResourceManager@nmui@@ABEIPAVItemInfo@2@@Z  (00016990)
               3023  BCE   ?findWatchPath@FileResourceManager@nmui@@AAE_NIPAVwxString@@@Z  (0001BEA0)
               3024  BCF   ?findWindowByName@Notebook@nmui@@QBEPAVwxWindow@@ABVwxString@@@Z  (0006CF40)
               3025  BD0   ?fireActivateEvent@HoverState@NMListControlStates@nmui@@IAE_NPAVNMListItem_@3@@Z  (00063420)
               3026  BD1   ?fireBestSizeChangedEvent@Window@nmui@@QAE_NXZ  (000A5060)
               3027  BD2   ?fireClickEvent@NMRollupHeading@nmui@@AAEXXZ  (00081350)
               3028  BD3   ?fireComboTextEnterEvent@NMComboBoxTextCtrl@nmui@@IAEXXZ  (000492E0)
               3029  BD4   ?fireContextMenuEvent@HoverState@NMListControlStates@nmui@@IAE_NPAVNMListItem_@3@ABVwxPoint@@@Z  (000634E0)
               3030  BD5   ?fireContextMenuEvent@NMRollupHeading@nmui@@AAEXABVwxMouseEvent@@@Z  (000813E0)
               3031  BD6   ?fireDragStartedEvent@NMRollupHeading@nmui@@AAEXXZ  (00081B90)
               3032  BD7   ?fireEnsureVisibleEvent@Window@nmui@@QAEXABVwxRect@@@Z  (000A5A20)
               3033  BD8   ?fireEnsureVisibleEvent@Window@nmui@@QAEXXZ  (000A5AD0)
               3034  BD9   ?fireExpandCollapseEvent@NMRollupHeading@nmui@@AAEXXZ  (00081C10)
               3035  BDA   ?fireFilterChangedEvent@NMFilterCtrl@nmui@@IAEXXZ  (00052420)
               3036  BDB   ?fireFrameMarkerCancelledEvent@DragFrameMarkerState@NMSimpleGraphStates@nmui@@IAEXXZ  (0008F1E0)
               3037  BDC   ?fireFrameMarkerChangedEvent@DragFrameMarkerState@NMSimpleGraphStates@nmui@@IAEXABVwxPoint@@@Z  (0008F140)
               3038  BDD   ?fireFrameMarkerChangingEvent@DragFrameMarkerState@NMSimpleGraphStates@nmui@@IAEXABVwxPoint@@@Z  (0008F0A0)
               3039  BDE   ?fireFrameRateChangedEvent@NMFrameRateControl@nmui@@IAE_NXZ  (00054510)
               3040  BDF   ?fireInPlaceEditEvent@NMListControl@nmui@@QAE_NPAVNMListItem_@2@HHPBVwxPoint@@@Z  (0005B0D0)
               3041  BE0   ?fireItemSelectedEvent@NMListControl@nmui@@IAEXPAVNMListItem_@2@_N@Z  (0005BD70)
               3042  BE1   ?fireItemSelectedEvent@TreeControl@nmui@@IAEXPAVTreeItem@2@_N@Z  (000BA360)
               3043  BE2   ?fireMenuButtonSelected@PopupMenu@nmui@@QAEXPAVMenuItem@2@@Z  (00079680)
               3044  BE3   ?fireMenuItemSelected@PopupMenu@nmui@@QAEXPAVMenuItem@2@@Z  (00079560)
               3045  BE4   ?fireMessage@StateManager@nmui@@AAEXABUMessage@2@PAVBaseState@2@@Z  (000137E0)
               3046  BE5   ?firePopupDismissedEvent@PopupMenu@nmui@@IAEXXZ  (000797A0)
               3047  BE6   ?firePositionChangedEvent@NMScrollBar@nmui@@IAEXH@Z  (00087B30)
               3048  BE7   ?fireRangeAndThumbChangedEvent@NMScrollBar@nmui@@IAEXHH@Z  (00087C00)
               3049  BE8   ?fireRulerChangedEvent@HoverState@NMSimpleGraphStates@nmui@@IAEXABVwxPoint@@@Z  (0008EF30)
               3050  BE9   ?fireSelectionChangedEvent@NMIconBarSlots@nmui@@IAEXXZ  (00055C20)
               3051  BEA   ?fireSelectionChangedEvent@NMListControl@nmui@@IAEXXZ  (0005B030)
               3052  BEB   ?fireSelectionChangedEvent@TreeControl@nmui@@IAEXXZ  (000B8F60)
               3053  BEC   ?fireSelectionDoubleClickedEvent@NMIconBarSlots@nmui@@IAEXXZ  (00055CF0)
               3054  BED   ?fireSliderChangedEvent@Slider@nmui@@IAE_NXZ  (000912D0)
               3055  BEE   ?fireSliderChangingEvent@Slider@nmui@@IAE_NXZ  (00091220)
               3056  BEF   ?fireSortColumnEvent@NMColumnWindow@nmui@@QAE_NHHPBVwxPoint@@@Z  (00042DA0)
               3057  BF0   ?fireStateChangedEvent@CheckBox@nmui@@MAEXXZ  (0003C3A0)
               3058  BF1   ?fireSyntaxCheckEvent@NMScriptControl@nmui@@IAEXHVwxString@@J@Z  (00086BD0)
               3059  BF2   ?fireTextEnterEvent@NMSimpleTextCtrl@nmui@@QAEXXZ  (0009D890)
               3060  BF3   ?fireTextUpdatedEvent@NMSimpleTextCtrl@nmui@@QAEXXZ  (0009D7E0)
               3061  BF4   ?fireValueMarkerCancelledEvent@DragValueMarkerState@NMSimpleGraphStates@nmui@@IAEXXZ  (0008F480)
               3062  BF5   ?fireValueMarkerChangedEvent@DragValueMarkerState@NMSimpleGraphStates@nmui@@IAEXABVwxPoint@@@Z  (0008F3E0)
               3063  BF6   ?fireValueMarkerChangingEvent@DragValueMarkerState@NMSimpleGraphStates@nmui@@IAEXABVwxPoint@@@Z  (0008F340)
               3064  BF7   ?fireWindowPannedEvent@GuiNodeWindowBase@nmui@@IAEXMM@Z  (00026AF0)
               3065  BF8   ?fireWindowScaledEvent@GuiNodeWindowBase@nmui@@IAEXMMMM@Z  (00026BC0)
               3066  BF9   ?floatWindow@Notebook@nmui@@QAE_NPAVwxWindow@@ABVwxPoint@@ABVwxSize@@_N@Z  (00071AD0)
               3067  BFA   ?flushContextMenuCommands@NavigatorTree@nmui@@AAEXXZ  (00036240)
               3068  BFB   ?foldAllLines@TextControl@nmui@@QAEXXZ  (000AE6C0)
               3069  BFC   ?folderMoveAllowed@Cursors@nmui@@3PAPBDA  (001C13F8)
               3070  BFD   ?folderMoveDisallowed@Cursors@nmui@@3PAPBDA  (001C1490)
               3071  BFE   ?forceRebuildOnNextPaint@NMFastBufferedDC@nmui@@QAEXXZ  (000254F0)
               3072  BFF   ?formatRenderList@NMPalette@nmui@@QAE_NW4NMPaletteLayout@2@PAV?$Vector@PAVNMPaletteItem@nmui@@@NMutils@@@Z  (00077260)
               3073  C00   ?forwardEvent@NMListControl@nmui@@QAEXAAVwxEvent@@@Z  (000B10B0)
               3074  C01   ?forwardEvent@TreeControl@nmui@@QAEXAAVwxEvent@@@Z  (000B10B0)
               3075  C02   ?frameImage@GUIServices@nmui@@QAEXPAVwxImage@@ABVwxColour@@@Z  (0002CD50)
               3076  C03   ?generateCheckedBitmap@GUIServices@nmui@@QAE?AVwxBitmap@@ABV3@@Z  (00030660)
               3077  C04   ?generateCheckedBitmap@GUIServices@nmui@@QAE?AVwxBitmap@@ABV3@ABVwxColour@@@Z  (0002F970)
               3078  C05   ?generateDisabledBitmap@GUIServices@nmui@@QAE?AVwxBitmap@@ABV3@@Z  (0002FCD0)
               3079  C06   ?generateDisabledBitmap@GUIServices@nmui@@QAE?AVwxBitmap@@ABV3@ABVwxColour@@@Z  (0002DA70)
               3080  C07   ?generateFocusedBitmap@GUIServices@nmui@@QAE?AVwxBitmap@@ABV3@ABVwxColour@@@Z  (0002FBB0)
               3081  C08   ?generateFocusedImage@GUIServices@nmui@@QAE?AVwxImage@@ABV3@@Z  (0002DDE0)
               3082  C09   ?generateNormalBitmap@GUIServices@nmui@@QAE?AVwxBitmap@@ABV3@ABVwxColour@@@Z  (0002FAB0)
               3083  C0A   ?generateUnfocusedImage@GUIServices@nmui@@QAE?AVwxImage@@ABV3@@Z  (0002C7E0)
               3084  C0B   ?get2x2CheckerStippleBrush@GUIServices@nmui@@QBEABVwxBrush@@XZ  (00008080)
               3085  C0C   ?get8x8CheckerStippleBrush@GUIServices@nmui@@QBEABVwxBrush@@XZ  (00008090)
               3086  C0D   ?getActiveCategories@TaskList@nmui@@QAEXAAV?$vector@VwxString@@V?$allocator@VwxString@@@std@@@std@@@Z  (0009B3A0)
               3087  C0E   ?getActiveHoverState@GuiNodeStateManager@nmui@@ABEPAVGuiNodeHoverState@2@XZ  (00022890)
               3088  C0F   ?getActiveNode@GuiNodeStateManager@nmui@@QBEPAVGuiNode@2@XZ  (000224C0)
               3089  C10   ?getActiveState@GuiNodeStateManager@nmui@@ABEPAVGuiNodeState@2@XZ  (000228B0)
               3090  C11   ?getActiveStates@BaseState@nmui@@QBEXAAV?$list@PAVBaseState@nmui@@V?$allocator@PAVBaseState@nmui@@@std@@@std@@@Z  (00012A50)
               3091  C12   ?getAntialisedPixel@GUIServices@nmui@@IAE_NABVwxImage@@HHAAVwxColour@@AAM@Z  (0002C4E0)
               3092  C13   ?getApplyButton@Dialog@nmui@@QBEPAVButton@2@XZ  (0004BA70)
               3093  C14   ?getArgAsBool@LuaArgumentProcessor@nmui@@QBE_NPB_WAA_N@Z  (000331B0)
               3094  C15   ?getArgAsDouble@LuaArgumentProcessor@nmui@@QBE_NPB_WAAN@Z  (00033010)
               3095  C16   ?getArgAsFloat@LuaArgumentProcessor@nmui@@QBE_NPB_WAAM@Z  (000330E0)
               3096  C17   ?getArgAsInt@LuaArgumentProcessor@nmui@@QBE_NPB_WAAH@Z  (00032E50)
               3097  C18   ?getArgAsLuaObject@LuaArgumentProcessor@nmui@@QBE_NPB_WAAVLuaObject@LuaPlus@@@Z  (00032B60)
               3098  C19   ?getArgAsString@LuaArgumentProcessor@nmui@@QBE_NPB_WAAV?$basic_string@_WU?$char_traits@_W@std@@V?$allocator@_W@2@@std@@@Z  (00032C80)
               3099  C1A   ?getArgAsStringPtr@LuaArgumentProcessor@nmui@@QBE_NPB_WPAPB_W@Z  (00032D80)
               3100  C1B   ?getArgAsTable@LuaArgumentProcessor@nmui@@QBE_NPB_WAAVLuaObject@LuaPlus@@@Z  (00032D50)
               3101  C1C   ?getArgAsUnsignedInt@LuaArgumentProcessor@nmui@@QBE_NPB_WAAI@Z  (00032F20)
               3102  C1D   ?getArrowDown@GUIServices@nmui@@QBEABVwxBitmap@@XZ  (00008390)
               3103  C1E   ?getArrowDownDisabled@GUIServices@nmui@@QBEABVwxBitmap@@XZ  (000083D0)
               3104  C1F   ?getArrowLeft@GUIServices@nmui@@QBEABVwxBitmap@@XZ  (000083A0)
               3105  C20   ?getArrowLeftDisabled@GUIServices@nmui@@QBEABVwxBitmap@@XZ  (000083E0)
               3106  C21   ?getArrowRight@GUIServices@nmui@@QBEABVwxBitmap@@XZ  (000083B0)
               3107  C22   ?getArrowRightDisabled@GUIServices@nmui@@QBEABVwxBitmap@@XZ  (000083F0)
               3108  C23   ?getArrowUp@GUIServices@nmui@@QBEABVwxBitmap@@XZ  (00008380)
               3109  C24   ?getArrowUpDisabled@GUIServices@nmui@@QBEABVwxBitmap@@XZ  (000083C0)
               3110  C25   ?getAssignedItemUserData@NMListControl@nmui@@QBEPAVNMListItemUserData@2@PAVNMListItem_@2@@Z  (0005A340)
               3111  C26   ?getAssignedUserData@MenuItem@nmui@@QBEPAVMenuItemUserData@2@XZ  (00027820)
               3112  C27   ?getAssignedUserData@NMListItem_@nmui@@QBEPAVNMListItemUserData@2@XZ  (00027CF0)
               3113  C28   ?getAttributes@NMListItem_@nmui@@QBEPAVNMColumnItemAttr@2@XZ  (0003C990)
               3114  C29   ?getAttributes@TreeItem@nmui@@QBEPAVNMColumnItemAttr@2@XZ  (000B1440)
               3115  C2A   ?getAxes@NMSimpleGraph@nmui@@QAEAAVNMSimpleGraphAxes@2@XZ  (0008BCA0)
               3116  C2B   ?getAxes@NMSimpleGraph@nmui@@QBEABVNMSimpleGraphAxes@2@XZ  (0008BCA0)
               3117  C2C   ?getAxesMode@NMSimpleGraph@nmui@@QBE?AW4eAxesMode@12@XZ  (000A4110)
               3118  C2D   ?getBBox@MenuItem@nmui@@QBE?AVwxRect@@XZ  (00066290)
               3119  C2E   ?getBackgroundColour@GuiNodeWindow@nmui@@UBE?AVwxColour@@XZ  (00025770)
               3120  C2F   ?getBadge@NMPaletteItem@nmui@@QBEABVwxIcon@@XZ  (000074B0)
               3121  C30   ?getBitmap@Menu@nmui@@QBEPAVwxBitmap@@H@Z  (000672B0)
               3122  C31   ?getBitmap@MenuItem@nmui@@QBEPAVwxBitmap@@XZ  (000661D0)
               3123  C32   ?getBold@TreeItem@nmui@@QBE_NXZ  (000B15C0)
               3124  C33   ?getBoldFont@PopupMenu@nmui@@IBEABVwxFont@@XZ  (00079410)
               3125  C34   ?getBoolValue@NMSimpleMultiOptionDialog@nmui@@QBE_NABVwxString@@@Z  (000907B0)
               3126  C35   ?getBorder@PanelBuilder@nmui@@QBEHXZ  (000224C0)
               3127  C36   ?getBorders@NMStaticBox@nmui@@QAEXPAH0@Z  (00097DF0)
               3128  C37   ?getBottomBorderSize@NMRollupSection@nmui@@QBEHXZ  (00082C70)
               3129  C38   ?getButton@NMComboBox@nmui@@QAEPAVNMComboBoxButton@2@XZ  (0004E450)
               3130  C39   ?getButton@NMToolBar@nmui@@QAEPAVButton@2@H@Z  (000A3270)
               3131  C3A   ?getButton@NMToolPanel@nmui@@QAEPAVButton@2@H@Z  (000A37A0)
               3132  C3B   ?getButtonSize@NMScrollBar@nmui@@QBE?AVwxSize@@XZ  (00087760)
               3133  C3C   ?getCalculatedBestSize@NMSplitter@nmui@@IBEHXZ  (00094FD0)
               3134  C3D   ?getCanBeClosed@Notebook@nmui@@QBE_NPAVwxWindow@@@Z  (0006E9F0)
               3135  C3E   ?getCanBeFloating@Notebook@nmui@@QBE_NPAVwxWindow@@@Z  (0006E990)
               3136  C3F   ?getCanBeHidden@Notebook@nmui@@UBE_NPAVwxWindow@@@Z  (0006E8B0)
               3137  C40   ?getCanBeReordered@NMRollupContainer@nmui@@QBE_NXZ  (00083120)
               3138  C41   ?getCanExpand@NMRollupHeading@nmui@@QBE_NXZ  (00080C10)
               3139  C42   ?getCanExpand@NMRollupSection@nmui@@QBE_NXZ  (00082C00)
               3140  C43   ?getCancelButton@Dialog@nmui@@QBEPAVButton@2@XZ  (00093C40)
               3141  C44   ?getCapturedState@GuiNodeStateManager@nmui@@QBEPAVGuiNodeState@2@XZ  (000B1440)
               3142  C45   ?getCategories@TaskList@nmui@@QAEXAAV?$vector@VwxString@@V?$allocator@VwxString@@@std@@@std@@@Z  (0009B2E0)
               3143  C46   ?getCategoryIterator@TaskList@nmui@@AAE?AV?$_Vector_iterator@PAUTaskCategory@TaskList@nmui@@V?$allocator@PAUTaskCategory@TaskList@nmui@@@std@@@std@@PB_W@Z  (0009A360)
               3144  C47   ?getCell@NMListItem_@nmui@@QAEPAUCell@12@H@Z  (0005E090)
               3145  C48   ?getCellAttributes@NMListControl@nmui@@QBEPAVNMColumnItemAttr@2@PAVNMListItem_@2@H@Z  (0005AFE0)
               3146  C49   ?getCellAttributes@NMListItem_@nmui@@QBEPAVNMColumnItemAttr@2@H@Z  (0002E3B0)
               3147  C4A   ?getCellColour@NMColumnItemAttr@nmui@@QBEABVwxColour@@XZ  (0000C580)
               3148  C4B   ?getCellLeftPadding@CellRenderer@nmui@@UBEHXZ  (0003AE60)
               3149  C4C   ?getCellRightPadding@CellRenderer@nmui@@UBEHXZ  (0003AE80)
               3150  C4D   ?getCellStyle@NMListControl@nmui@@UBEJHH@Z  (0005E890)
               3151  C4E   ?getCellStyle@NMListItem_@nmui@@QAEJH@Z  (0005DEE0)
               3152  C4F   ?getCellsAreSelectable@NMListControl@nmui@@QBE_NXZ  (0005A530)
               3153  C50   ?getCheck@Menu@nmui@@QBE?AW4MenuCheck@2@H@Z  (00067200)
               3154  C51   ?getCheck@MenuItem@nmui@@QBE?AW4MenuCheck@2@XZ  (00066120)
               3155  C52   ?getCheckBox@CheckBoxEvent@nmui@@QBEPAVCheckBox@2@XZ  (0000CC40)
               3156  C53   ?getCheckBoxRect@NMListItem_@nmui@@QAE?AVwxRect@@H@Z  (0005AE00)
               3157  C54   ?getCheckMarkTick@GUIServices@nmui@@QBEABVwxBitmap@@XZ  (00008350)
               3158  C55   ?getCheckType@LuaSyntaxCheckEvent@nmui@@QBEJXZ  (00028710)
               3159  C56   ?getCheckedItemCount@NMListControl@nmui@@QBEHH@Z  (0005D1E0)
               3160  C57   ?getChild@GuiNode@nmui@@QBEPAV12@H@Z  (00023A40)
               3161  C58   ?getChildEventHandler@NMRollupHeading@nmui@@IAEPAVwxEvtHandler@@XZ  (00081DD0)
               3162  C59   ?getChildren@GuiNode@nmui@@QBEXAAV?$Vector@PAVGuiNode@nmui@@@NMutils@@@Z  (00024980)
               3163  C5A   ?getChosenIndices@NMCheckListDialog@nmui@@QBEXAAV?$vector@HV?$allocator@H@std@@@std@@@Z  (0003D370)
               3164  C5B   ?getChosenItem@NMIncrementalChoiceDialog@nmui@@QBE?AVwxString@@XZ  (000579F0)
               3165  C5C   ?getChosenItem@NMListControl@nmui@@QBEPAVNMListItem_@2@HH@Z  (0005E6D0)
               3166  C5D   ?getChosenItemIndex@NMIncrementalChoiceDialog@nmui@@QBEHXZ  (0005A4B0)
               3167  C5E   ?getChosenStrings@NMCheckListDialog@nmui@@QBEABV?$Vector@VwxString@@@NMutils@@XZ  (00027BD0)
               3168  C5F   ?getClickPosition@NotebookEvent@nmui@@QBE?AVwxPoint@@XZ  (0006B290)
               3169  C60   ?getClient@NMDnDData@nmui@@QBEPAVNMDnDClient@2@XZ  (0004D920)
               3170  C61   ?getClientData@NMComboBox@nmui@@QBEPAXH@Z  (0004A330)
               3171  C62   ?getColour@NMColourSwatch@nmui@@QAEXAAE000@Z  (0003EEB0)
               3172  C63   ?getColour@NMColourSwatch@nmui@@QAEXAAJ@Z  (0003EE50)
               3173  C64   ?getColour@NMColourSwatch@nmui@@QAEXAAM000@Z  (0003ED50)
               3174  C65   ?getColour@NMColourSwatch@nmui@@QAEXAAVwxColour@@AAM@Z  (0003ED90)
               3175  C66   ?getColumn@NMColumnWindowEvent@nmui@@QBEHXZ  (00027820)
               3176  C67   ?getColumn@TreeEvent@nmui@@QBEHXZ  (00028480)
               3177  C68   ?getColumnAllowResize@NMColumnWindow@nmui@@UBE_NI@Z  (000440D0)
               3178  C69   ?getColumnAutosize@NMColumnWindow@nmui@@UBE_NI@Z  (00044090)
               3179  C6A   ?getColumnBestWidth@NMColumnWindow@nmui@@UBEHI@Z  (00043F30)
               3180  C6B   ?getColumnCheckboxState@NMListItem_@nmui@@QBE?AW4CheckState@NMColumnItemAttr@2@H@Z  (0005AD40)
               3181  C6C   ?getColumnCheckboxState@TreeItem@nmui@@UBE?AW4CheckState@NMColumnItemAttr@2@H@Z  (000B2E00)
               3182  C6D   ?getColumnColour@TreeItem@nmui@@QBE?AVwxColour@@I@Z  (000B5BB0)
               3183  C6E   ?getColumnCount@NMColumnWindow@nmui@@UBEIXZ  (00042D80)
               3184  C6F   ?getColumnCount@NMProfilerMinMaxPeakStrategy@nmui@@UBEHXZ  (0007D320)
               3185  C70   ?getColumnHeaderFont@NMColumnWindow@nmui@@UBEABVwxFont@@XZ  (00042730)
               3186  C71   ?getColumnHeaderText@NMColumnWindow@nmui@@UBEXIAAVwxString@@@Z  (00043D60)
               3187  C72   ?getColumnImage@NMListItem_@nmui@@QBEHH@Z  (0005ACE0)
               3188  C73   ?getColumnImage@TreeItem@nmui@@UBEHI@Z  (000B5AD0)
               3189  C74   ?getColumnImageList@NMColumnWindow@nmui@@UBEPAVwxImageList@@I@Z  (00044450)
               3190  C75   ?getColumnIndeterminate@TreeItem@nmui@@UBE_NI@Z  (000B5960)
               3191  C76   ?getColumnMinWidth@NMColumnWindow@nmui@@UBEHI@Z  (00043E90)
               3192  C77   ?getColumnName@NMProfilerMinMaxPeakStrategy@nmui@@UBE?AVwxString@@H@Z  (0007D330)
               3193  C78   ?getColumnOffsetX@TreeControl@nmui@@IBEHH@Z  (000B2950)
               3194  C79   ?getColumnOffsetX@TreeItem@nmui@@QBEHH@Z  (000B2B20)
               3195  C7A   ?getColumnSorts@NMColumnWindow@nmui@@UBE_NI@Z  (00042CA0)
               3196  C7B   ?getColumnStyle@NMListControl@nmui@@QBEJH@Z  (0005C380)
               3197  C7C   ?getColumnText@NMListItem_@nmui@@QBEABVwxString@@H@Z  (0005AC80)
               3198  C7D   ?getColumnText@NMListItem_@nmui@@QBEXHAAVwxString@@@Z  (0005AC10)
               3199  C7E   ?getColumnText@TreeItem@nmui@@UBEABVwxString@@I@Z  (000B59A0)
               3200  C7F   ?getColumnTextForDrawing@TreeItem@nmui@@UBE?AVwxString@@I@Z  (000B1560)
               3201  C80   ?getColumnTextTruncation@NMColumnWindow@nmui@@QBE?AW4TextTruncation@GUIServices@2@I@Z  (00044160)
               3202  C81   ?getColumnWidth@NMColumnWindow@nmui@@UBEHI@Z  (00043DF0)
               3203  C82   ?getColumnWidth@NMProfilerMinMaxPeakStrategy@nmui@@UBEHH@Z  (0007D360)
               3204  C83   ?getColumnWindow@TreeItem@nmui@@UBEPAVwxWindow@@I@Z  (000B5A40)
               3205  C84   ?getColumnX@NMColumnWindow@nmui@@UBEHI@Z  (00043DB0)
               3206  C85   ?getContentRect@NMSplitter@nmui@@IBE?AVwxRect@@XZ  (00093A90)
               3207  C86   ?getContentSize@NMListControl@nmui@@UBE?AVwxSize@@XZ  (0005BD30)
               3208  C87   ?getContentSize@NMPalette@nmui@@QBE?AVwxSize@@XZ  (00072DB0)
               3209  C88   ?getContentSize@TreeControl@nmui@@UBE?AVwxSize@@XZ  (000B7C30)
               3210  C89   ?getContentsInset@Panel@nmui@@UBEHXZ  (000A61F0)
               3211  C8A   ?getControlBackgroundBrush@GUIServices@nmui@@QBEABVwxBrush@@XZ  (00007F20)
               3212  C8B   ?getControlBackgroundColour@GUIServices@nmui@@QBE?AVwxColour@@XZ  (000079C0)
               3213  C8C   ?getControlBackgroundPen@GUIServices@nmui@@QBEABVwxPen@@XZ  (00008130)
               3214  C8D   ?getControlBlendedTextDottedPen@GUIServices@nmui@@QBEABVwxPen@@XZ  (00008300)
               3215  C8E   ?getControlDarkShadowDottedPen@GUIServices@nmui@@QBEABVwxPen@@XZ  (000082E0)
               3216  C8F   ?getControlDarkTintBrush@GUIServices@nmui@@QBEABVwxBrush@@XZ  (00007F30)
               3217  C90   ?getControlDarkTintColour@GUIServices@nmui@@QBE?AVwxColour@@XZ  (000079F0)
               3218  C91   ?getControlDarkTintPen@GUIServices@nmui@@QBEABVwxPen@@XZ  (00008140)
               3219  C92   ?getControlDarkerTintBrush@GUIServices@nmui@@QBEABVwxBrush@@XZ  (00007F40)
               3220  C93   ?getControlDarkerTintColour@GUIServices@nmui@@QBE?AVwxColour@@XZ  (00007A20)
               3221  C94   ?getControlDarkerTintPen@GUIServices@nmui@@QBEABVwxPen@@XZ  (00008150)
               3222  C95   ?getControlDarkestTintBrush@GUIServices@nmui@@QBEABVwxBrush@@XZ  (00007F50)
               3223  C96   ?getControlDarkestTintColour@GUIServices@nmui@@QBE?AVwxColour@@XZ  (00007A50)
               3224  C97   ?getControlDarkestTintPen@GUIServices@nmui@@QBEABVwxPen@@XZ  (00008160)
               3225  C98   ?getControlDisabledTextBrush@GUIServices@nmui@@QBEABVwxBrush@@XZ  (00007EB0)
               3226  C99   ?getControlDisabledTextColour@GUIServices@nmui@@QBE?AVwxColour@@XZ  (00007840)
               3227  C9A   ?getControlDisabledTextPen@GUIServices@nmui@@QBEABVwxPen@@XZ  (000080B0)
               3228  C9B   ?getControlEdgeBrush@GUIServices@nmui@@QBEABVwxBrush@@XZ  (00007F90)
               3229  C9C   ?getControlEdgeColour@GUIServices@nmui@@QBE?AVwxColour@@XZ  (00007BA0)
               3230  C9D   ?getControlEdgePen@GUIServices@nmui@@QBEABVwxPen@@XZ  (000081D0)
               3231  C9E   ?getControlErrorBackgroundBrush@GUIServices@nmui@@QBEABVwxBrush@@XZ  (0005A260)
               3232  C9F   ?getControlErrorBackgroundColour@GUIServices@nmui@@QBE?AVwxColour@@XZ  (00007AB0)
               3233  CA0   ?getControlErrorBackgroundPen@GUIServices@nmui@@QBEABVwxPen@@XZ  (00008180)
               3234  CA1   ?getControlFocusBrush@GUIServices@nmui@@QBEABVwxBrush@@XZ  (00008060)
               3235  CA2   ?getControlFocusColour@GUIServices@nmui@@QBE?AVwxColour@@XZ  (00007E40)
               3236  CA3   ?getControlFocusPen@GUIServices@nmui@@QBEABVwxPen@@XZ  (00008310)
               3237  CA4   ?getControlHeaderBackgroundBrush@GUIServices@nmui@@QBEABVwxBrush@@XZ  (00007F80)
               3238  CA5   ?getControlHeaderBackgroundColour@GUIServices@nmui@@QBE?AVwxColour@@XZ  (00007B70)
               3239  CA6   ?getControlHeaderBackgroundPen@GUIServices@nmui@@QBEABVwxPen@@XZ  (000081C0)
               3240  CA7   ?getControlHeaderTextBrush@GUIServices@nmui@@QBEABVwxBrush@@XZ  (00007EC0)
               3241  CA8   ?getControlHeaderTextColour@GUIServices@nmui@@QBE?AVwxColour@@XZ  (000078A0)
               3242  CA9   ?getControlHeaderTextPen@GUIServices@nmui@@QBEABVwxPen@@XZ  (000080D0)
               3243  CAA   ?getControlLighterTintBrush@GUIServices@nmui@@QBEABVwxBrush@@XZ  (00007F10)
               3244  CAB   ?getControlLighterTintColour@GUIServices@nmui@@QBE?AVwxColour@@XZ  (00007990)
               3245  CAC   ?getControlLighterTintPen@GUIServices@nmui@@QBEABVwxPen@@XZ  (00008120)
               3246  CAD   ?getControlLightestTintBrush@GUIServices@nmui@@QBEABVwxBrush@@XZ  (00007F00)
               3247  CAE   ?getControlLightestTintColour@GUIServices@nmui@@QBE?AVwxColour@@XZ  (00007960)
               3248  CAF   ?getControlLightestTintPen@GUIServices@nmui@@QBEABVwxPen@@XZ  (00008110)
               3249  CB0   ?getControlMixedBackgroundBrush@GUIServices@nmui@@QBEABVwxBrush@@XZ  (00007F70)
               3250  CB1   ?getControlMixedBackgroundColour@GUIServices@nmui@@QBE?AVwxColour@@XZ  (00007A80)
               3251  CB2   ?getControlMixedBackgroundPen@GUIServices@nmui@@QBEABVwxPen@@XZ  (00008170)
               3252  CB3   ?getControlScrollbarBrush@GUIServices@nmui@@QBEABVwxBrush@@XZ  (00007FA0)
               3253  CB4   ?getControlScrollbarColour@GUIServices@nmui@@QBE?AVwxColour@@XZ  (00007BD0)
               3254  CB5   ?getControlScrollbarHighlightBrush@GUIServices@nmui@@QBEABVwxBrush@@XZ  (00007FB0)
               3255  CB6   ?getControlScrollbarHighlightColour@GUIServices@nmui@@QBE?AVwxColour@@XZ  (00007C00)
               3256  CB7   ?getControlScrollbarHighlightPen@GUIServices@nmui@@QBEABVwxPen@@XZ  (000081F0)
               3257  CB8   ?getControlScrollbarPen@GUIServices@nmui@@QBEABVwxPen@@XZ  (000081E0)
               3258  CB9   ?getControlSelectedBackgroundBrush@GUIServices@nmui@@QBEABVwxBrush@@XZ  (00007F60)
               3259  CBA   ?getControlSelectedBackgroundColour@GUIServices@nmui@@QBE?AVwxColour@@XZ  (00007AE0)
               3260  CBB   ?getControlSelectedBackgroundPen@GUIServices@nmui@@QBEABVwxPen@@XZ  (00008190)
               3261  CBC   ?getControlSelectedTextBrush@GUIServices@nmui@@QBEABVwxBrush@@XZ  (0000CBF0)
               3262  CBD   ?getControlSelectedTextColour@GUIServices@nmui@@QBE?AVwxColour@@XZ  (00007870)
               3263  CBE   ?getControlSelectedTextPen@GUIServices@nmui@@QBEABVwxPen@@XZ  (000080C0)
               3264  CBF   ?getControlSelectedUnfocusedBrush@GUIServices@nmui@@QBEABVwxBrush@@XZ  (000B1160)
               3265  CC0   ?getControlSelectedUnfocusedColour@GUIServices@nmui@@QBE?AVwxColour@@XZ  (00007B10)
               3266  CC1   ?getControlSelectedUnfocusedPen@GUIServices@nmui@@QBEABVwxPen@@XZ  (000081A0)
               3267  CC2   ?getControlSelectedUnfocusedTextBrush@GUIServices@nmui@@QBEABVwxBrush@@XZ  (0005A000)
               3268  CC3   ?getControlSelectedUnfocusedTextColour@GUIServices@nmui@@QBE?AVwxColour@@XZ  (00007B40)
               3269  CC4   ?getControlSelectedUnfocusedTextPen@GUIServices@nmui@@QBEABVwxPen@@XZ  (000081B0)
               3270  CC5   ?getControlSplitterBrush@GUIServices@nmui@@QBEABVwxBrush@@XZ  (00007FC0)
               3271  CC6   ?getControlSplitterColour@GUIServices@nmui@@QBE?AVwxColour@@XZ  (00007C30)
               3272  CC7   ?getControlSplitterHighlightBrush@GUIServices@nmui@@QBEABVwxBrush@@XZ  (00007FD0)
               3273  CC8   ?getControlSplitterHighlightColour@GUIServices@nmui@@QBE?AVwxColour@@XZ  (00007C60)
               3274  CC9   ?getControlSplitterHighlightPen@GUIServices@nmui@@QBEABVwxPen@@XZ  (00008210)
               3275  CCA   ?getControlSplitterPen@GUIServices@nmui@@QBEABVwxPen@@XZ  (00008200)
               3276  CCB   ?getControlTargetPen@GUIServices@nmui@@QBEABVwxPen@@XZ  (00008220)
               3277  CCC   ?getControlTargetSize@GUIServices@nmui@@QBE?BHXZ  (00008230)
               3278  CCD   ?getControlTextBrush@GUIServices@nmui@@QBEABVwxBrush@@XZ  (00007EA0)
               3279  CCE   ?getControlTextColour@GUIServices@nmui@@QBE?AVwxColour@@XZ  (00007810)
               3280  CCF   ?getControlTextDottedPen@GUIServices@nmui@@QBEABVwxPen@@XZ  (000082F0)
               3281  CD0   ?getControlTextPen@GUIServices@nmui@@QBEABVwxPen@@XZ  (000080A0)
               3282  CD1   ?getController@GuiNodeManager@nmui@@QBEPAVGuiController@2@XZ  (000224C0)
               3283  CD2   ?getCornerRadius@NMSimpleTextCtrl@nmui@@QBENXZ  (0009D4E0)
               3284  CD3   ?getCount@NMComboBox@nmui@@QBEHXZ  (000471F0)
               3285  CD4   ?getCurrentFrameMarker@NMSimpleGraph@nmui@@QBEHXZ  (0008BC10)
               3286  CD5   ?getCurrentFrameMarkerReadOnly@NMSimpleGraph@nmui@@QBE_NXZ  (0008BC00)
               3287  CD6   ?getCurrentGUIState@GuiController@nmui@@ABEPAVGuiState@2@XZ  (00027D00)
               3288  CD7   ?getCurrentParentMenu@PopupMenu@nmui@@QBEPAV12@XZ  (0008A330)
               3289  CD8   ?getCurrentPoint@GuiController@nmui@@QBEABVwxPoint@@XZ  (0003C9A0)
               3290  CD9   ?getCurrentPoint@StateManager@nmui@@QBEABVwxPoint@@XZ  (0003C9B0)
               3291  CDA   ?getCurrentState@FiniteStateMachine@nmui@@QBEIXZ  (00021560)
               3292  CDB   ?getCurrentSubMenu@PopupMenu@nmui@@QBEPAV12@XZ  (0009D470)
               3293  CDC   ?getCurrentWindow@NMSwitchablePanel@nmui@@QBEPAVwxWindow@@XZ  (0009D440)
               3294  CDD   ?getCustomData@FileResourceManager@nmui@@QBEPAVCustomResourceData@2@I@Z  (00018A00)
               3295  CDE   ?getCustomData@NMPaletteItem@nmui@@QBEPAXXZ  (00027820)
               3296  CDF   ?getDarkArrowRight@GUIServices@nmui@@QBEABVwxBitmap@@XZ  (00008370)
               3297  CE0   ?getDarkShadowColour@ColourShader@nmui@@QBE?BVwxColour@@XZ  (000070C0)
               3298  CE1   ?getData@GuiNode@nmui@@QBEPAVGuiNodeData@2@XZ  (000224C0)
               3299  CE2   ?getData@NMDnDData@nmui@@QBEPAXXZ  (00027820)
               3300  CE3   ?getDataBufferSize@NMSimpleGraph@nmui@@QBEHXZ  (00087740)
               3301  CE4   ?getDataType@NMPaletteItem@nmui@@QBEIXZ  (0000CC40)
               3302  CE5   ?getDefaultDirectory@DirectoryControl@nmui@@QBEABVwxString@@XZ  (00014600)
               3303  CE6   ?getDefaultDirectory@FilenameControl@nmui@@QBEABVwxString@@XZ  (00014600)
               3304  CE7   ?getDefaultListCellStyle@NMListControl@nmui@@QBEJXZ  (00027BD0)
               3305  CE8   ?getDefaultRenderOrder@CellRenderer@nmui@@QAE?AV?$vector@JV?$allocator@J@std@@@std@@XZ  (0003B8D0)
               3306  CE9   ?getDefaultSearchString@TextControl@nmui@@QAE?AVwxString@@XZ  (000AD840)
               3307  CEA   ?getDeleteCross@GUIServices@nmui@@QBEABVwxBitmap@@XZ  (000084A0)
               3308  CEB   ?getDescription@NMPaletteItem@nmui@@QBE?AVwxString@@XZ  (00073000)
               3309  CEC   ?getDescription@Notebook@nmui@@UBE?AVwxString@@PAVwxWindow@@@Z  (0006EA20)
               3310  CED   ?getDialogBackgroundBrush@GUIServices@nmui@@QBEABVwxBrush@@XZ  (00027BB0)
               3311  CEE   ?getDialogBackgroundColour@GUIServices@nmui@@QBE?AVwxColour@@XZ  (00007CF0)
               3312  CEF   ?getDialogBackgroundPen@GUIServices@nmui@@QBEABVwxPen@@XZ  (0007D2F0)
               3313  CF0   ?getDialogCustomColour@NMColourSwatch@nmui@@QAEABVwxColour@@H@Z  (0003EFC0)
               3314  CF1   ?getDialogDarkTintBrush@GUIServices@nmui@@QBEABVwxBrush@@XZ  (00008000)
               3315  CF2   ?getDialogDarkTintColour@GUIServices@nmui@@QBE?AVwxColour@@XZ  (00007D20)
               3316  CF3   ?getDialogDarkTintPen@GUIServices@nmui@@QBEABVwxPen@@XZ  (00008260)
               3317  CF4   ?getDialogDarkerTintBrush@GUIServices@nmui@@QBEABVwxBrush@@XZ  (00008010)
               3318  CF5   ?getDialogDarkerTintColour@GUIServices@nmui@@QBE?AVwxColour@@XZ  (00007D50)
               3319  CF6   ?getDialogDarkerTintDottedPen@GUIServices@nmui@@QBEABVwxPen@@XZ  (000082D0)
               3320  CF7   ?getDialogDarkerTintPen@GUIServices@nmui@@QBEABVwxPen@@XZ  (00008270)
               3321  CF8   ?getDialogDarkestTintBrush@GUIServices@nmui@@QBEABVwxBrush@@XZ  (00008020)
               3322  CF9   ?getDialogDarkestTintColour@GUIServices@nmui@@QBE?AVwxColour@@XZ  (00007D80)
               3323  CFA   ?getDialogDarkestTintPen@GUIServices@nmui@@QBEABVwxPen@@XZ  (00008280)
               3324  CFB   ?getDialogDisabledTextBrush@GUIServices@nmui@@QBEABVwxBrush@@XZ  (00007EE0)
               3325  CFC   ?getDialogDisabledTextColour@GUIServices@nmui@@QBE?AVwxColour@@XZ  (00007900)
               3326  CFD   ?getDialogDisabledTextPen@GUIServices@nmui@@QBEABVwxPen@@XZ  (000080F0)
               3327  CFE   ?getDialogEdgeBrush@GUIServices@nmui@@QBEABVwxBrush@@XZ  (00008050)
               3328  CFF   ?getDialogEdgeColour@GUIServices@nmui@@QBE?AVwxColour@@XZ  (00007E10)
               3329  D00   ?getDialogEdgePen@GUIServices@nmui@@QBEABVwxPen@@XZ  (000082B0)
               3330  D01   ?getDialogFocusBrush@GUIServices@nmui@@QBEABVwxBrush@@XZ  (00008070)
               3331  D02   ?getDialogFocusColour@GUIServices@nmui@@QBE?AVwxColour@@XZ  (00007E70)
               3332  D03   ?getDialogFocusPen@GUIServices@nmui@@QBEABVwxPen@@XZ  (00008320)
               3333  D04   ?getDialogLighterTintBrush@GUIServices@nmui@@QBEABVwxBrush@@XZ  (00007FF0)
               3334  D05   ?getDialogLighterTintColour@GUIServices@nmui@@QBE?AVwxColour@@XZ  (00007CC0)
               3335  D06   ?getDialogLighterTintDottedPen@GUIServices@nmui@@QBEABVwxPen@@XZ  (000082C0)
               3336  D07   ?getDialogLighterTintPen@GUIServices@nmui@@QBEABVwxPen@@XZ  (00008250)
               3337  D08   ?getDialogLightestTintBrush@GUIServices@nmui@@QBEABVwxBrush@@XZ  (00007FE0)
               3338  D09   ?getDialogLightestTintColour@GUIServices@nmui@@QBE?AVwxColour@@XZ  (00007C90)
               3339  D0A   ?getDialogLightestTintPen@GUIServices@nmui@@QBEABVwxPen@@XZ  (00008240)
               3340  D0B   ?getDialogSelectedBackgroundBlendedBrush@GUIServices@nmui@@QBEABVwxBrush@@XZ  (00008040)
               3341  D0C   ?getDialogSelectedBackgroundBlendedColour@GUIServices@nmui@@QBE?AVwxColour@@XZ  (00007DE0)
               3342  D0D   ?getDialogSelectedBackgroundBlendedPen@GUIServices@nmui@@QBEABVwxPen@@XZ  (000082A0)
               3343  D0E   ?getDialogSelectedBackgroundBrush@GUIServices@nmui@@QBEABVwxBrush@@XZ  (00008030)
               3344  D0F   ?getDialogSelectedBackgroundColour@GUIServices@nmui@@QBE?AVwxColour@@XZ  (00007DB0)
               3345  D10   ?getDialogSelectedBackgroundPen@GUIServices@nmui@@QBEABVwxPen@@XZ  (00008290)
               3346  D11   ?getDialogSelectedTextBrush@GUIServices@nmui@@QBEABVwxBrush@@XZ  (00007EF0)
               3347  D12   ?getDialogSelectedTextColour@GUIServices@nmui@@QBE?AVwxColour@@XZ  (00007930)
               3348  D13   ?getDialogSelectedTextPen@GUIServices@nmui@@QBEABVwxPen@@XZ  (00008100)
               3349  D14   ?getDialogStyle@FilenameControl@nmui@@QBEJXZ  (00072CE0)
               3350  D15   ?getDialogTextBrush@GUIServices@nmui@@QBEABVwxBrush@@XZ  (00007ED0)
               3351  D16   ?getDialogTextColour@GUIServices@nmui@@QBE?AVwxColour@@XZ  (000078D0)
               3352  D17   ?getDialogTextPen@GUIServices@nmui@@QBEABVwxPen@@XZ  (000080E0)
               3353  D18   ?getDirectory@DirectoryControl@nmui@@QBE?AVwxString@@XZ  (0000A000)
               3354  D19   ?getDirectoryValue@NMSimpleMultiOptionDialog@nmui@@QBE?AVwxString@@ABV3@@Z  (000907D0)
               3355  D1A   ?getDisabledLabel@NMSimpleTextCtrl@nmui@@QBEABVwxString@@XZ  (0009D500)
               3356  D1B   ?getDisclosedWindow@NMRollupHeading@nmui@@QBEPAVwxWindow@@XZ  (00093250)
               3357  D1C   ?getDisplayText@NMSimpleTextCtrl@nmui@@IBE?AVwxString@@AAVwxDC@@H@Z  (0009DAE0)
               3358  D1D   ?getDominantWindow@NMSplitter@nmui@@QBE?AW4SplitterWindow@2@XZ  (0009D470)
               3359  D1E   ?getDotsBlockHorizontal@GUIServices@nmui@@QBEABVwxBitmap@@XZ  (00008490)
               3360  D1F   ?getDotsBlockVertical@GUIServices@nmui@@QBEABVwxBitmap@@XZ  (00008480)
               3361  D20   ?getDragCopyCursor@TreeControl@nmui@@QBE?AVwxCursor@@XZ  (0000CA20)
               3362  D21   ?getDragInsertBefore@TreeControl@nmui@@QBEPAVTreeItem@2@XZ  (000B0F00)
               3363  D22   ?getDragReparentCursor@TreeControl@nmui@@QBE?AVwxCursor@@XZ  (0000CAB0)
               3364  D23   ?getDragThresholdDistanceSq@TreeControl@nmui@@QBEHXZ  (0000CBD0)
               3365  D24   ?getDrawEdges@NMSplitter@nmui@@QBE_NXZ  (00027EF0)
               3366  D25   ?getDropDownSize@NMComboBox@nmui@@QBEHXZ  (00046B00)
               3367  D26   ?getDropTarget@NMPalette@nmui@@QAEPAVNMPaletteDropTarget@2@XZ  (00072D90)
               3368  D27   ?getEmptyOverlayLabel@TreeControl@nmui@@QBEABVwxString@@XZ  (0005A0E0)
               3369  D28   ?getEntryType@NMComboBox@nmui@@QBE?AW4EntryType@StringData@2@H@Z  (0004A2E0)
               3370  D29   ?getError@Window@nmui@@QBE_NXZ  (000095B0)
               3371  D2A   ?getErrorMsg@LuaSyntaxCheckEvent@nmui@@QBE?AVwxString@@XZ  (000286F0)
               3372  D2B   ?getExpRulerRegion@NMSimpleGraph@nmui@@QAE?AVwxRect@@XZ  (0008C640)
               3373  D2C   ?getExpanded@NMRollupHeading@nmui@@QBE_NXZ  (00080D50)
               3374  D2D   ?getExpansionBoxHorzOffset@TreeItem@nmui@@QBEHXZ  (000B2B30)
               3375  D2E   ?getExpansionBoxSize@TreeItem@nmui@@QBEHXZ  (000B1800)
               3376  D2F   ?getFile@FileHistory@nmui@@UBE?AVwxString@@H@Z  (00050300)
               3377  D30   ?getFileCount@FileHistory@nmui@@UBEHXZ  (00050360)
               3378  D31   ?getFileInfo@nmui@@YA_NABVwxString@@PAVwxIcon@@PAV2@@Z  (00003660)
               3379  D32   ?getFilename@FilenameControl@nmui@@QBEABVwxString@@XZ  (000145E0)
               3380  D33   ?getFilenameValue@NMSimpleMultiOptionDialog@nmui@@QBE?AVwxString@@ABV3@@Z  (00090810)
               3381  D34   ?getFilterPredicate@FilteredResourceObserver@nmui@@QBEPAVFilteredResourcePredicate@2@XZ  (00072FF0)
               3382  D35   ?getFirstChild@FileResourceManager@nmui@@QBEII@Z  (0001F750)
               3383  D36   ?getFirstChildName@FileResourceManager@nmui@@QBEPB_WI@Z  (0001F810)
               3384  D37   ?getFirstColumnShown@NMColumnWindow@nmui@@UBEHXZ  (00044260)
               3385  D38   ?getFirstItem@Menu@nmui@@QBEPAVMenuItem@2@_N@Z  (000684C0)
               3386  D39   ?getFirstItem@NMListControl@nmui@@QBEPAVNMListItem_@2@XZ  (0005D440)
               3387  D3A   ?getFirstLayoutWindow@Notebook@nmui@@QBEHPAVwxRect@@@Z  (0006F780)
               3388  D3B   ?getFirstSelectedItem@NMListControl@nmui@@QBEPAVNMListItem_@2@XZ  (00061100)
               3389  D3C   ?getFirstVisiblePosition@NMSimpleTextCtrl@nmui@@QBEHXZ  (00027ED0)
               3390  D3D   ?getFirstWindow@NMSwitchablePanel@nmui@@QBEPAVwxWindow@@XZ  (000994E0)
               3391  D3E   ?getFirstWindow@Notebook@nmui@@UBEPAVwxWindow@@_N@Z  (0006C7F0)
               3392  D3F   ?getFlags@NMColumnWindowEvent@nmui@@QBEHXZ  (0004D920)
               3393  D40   ?getFlags@TreeEvent@nmui@@QBEHXZ  (00028490)
               3394  D41   ?getFloatingRectangle@Notebook@nmui@@QAE?AVwxRect@@PAVwxWindow@@@Z  (0006E8F0)
               3395  D42   ?getFloatingWindow@Notebook@nmui@@IBEPAVNotebookFloatingWindow@2@PAVwxWindow@@@Z  (0006CB60)
               3396  D43   ?getFocusColumn@NMListControl@nmui@@QBEHXZ  (0005A260)
               3397  D44   ?getFocusItem@NMListControl@nmui@@QBEPAVNMListItem_@2@XZ  (0005A240)
               3398  D45   ?getFont@GUIServices@nmui@@QBEABVwxFont@@W4StaticTextFont@2@@Z  (0002CEE0)
               3399  D46   ?getFont@MenuBar@nmui@@IBEABVwxFont@@XZ  (00072DA0)
               3400  D47   ?getFont@NMPalette@nmui@@QBEABVwxFont@@XZ  (00072DA0)
               3401  D48   ?getFont@NMRollupHeading@nmui@@IBEABVwxFont@@XZ  (00081010)
               3402  D49   ?getFont@PopupMenu@nmui@@IBEABVwxFont@@XZ  (00072DA0)
               3403  D4A   ?getFont@TextControl@nmui@@UBE?AVwxString@@XZ  (000ACCB0)
               3404  D4B   ?getFontHeightMetric@GUIServices@nmui@@QAEHPAVwxFont@@@Z  (00030580)
               3405  D4C   ?getFontSize@TextControl@nmui@@UBEHXZ  (0009D440)
               3406  D4D   ?getFrameNumberAtPoint@NMSimpleGraph@nmui@@QBEHH@Z  (0008BFF0)
               3407  D4E   ?getFrameRate@NMFrameRateControl@nmui@@QBENXZ  (000543B0)
               3408  D4F   ?getFrameRateFormat@NMFrameRateControl@nmui@@QBE?AVwxString@@XZ  (000544C0)
               3409  D50   ?getFullPath@FileResourceManager@nmui@@ABE?AVwxString@@PAVItemInfo@2@@Z  (00017A00)
               3410  D51   ?getFullPath@FileResourceManager@nmui@@QBE?AVwxString@@I@Z  (0001A830)
               3411  D52   ?getGhostValue@Slider@nmui@@QBENXZ  (0004E3E0)
               3412  D53   ?getGraphRenderRegion@NMSimpleGraph@nmui@@QAE?AVwxRect@@XZ  (0008C460)
               3413  D54   ?getGroupRootItem@NavigatorGroup@nmui@@QBEPAVTreeItem@2@XZ  (000B1440)
               3414  D55   ?getGuiController@NMPalette@nmui@@QAEPAVGuiController@2@XZ  (00072CE0)
               3415  D56   ?getHSL@GUIServices@nmui@@QBEXABVwxColour@@AAM11@Z  (0002D650)
               3416  D57   ?getHeaderHeight@NMColumnWindow@nmui@@UBEHXZ  (00042650)
               3417  D58   ?getHeight@TreeItem@nmui@@QBEHXZ  (0000CC40)
               3418  D59   ?getHighlightButton@PopupMenu@nmui@@QBEPAVMenuItem@2@XZ  (0007DFB0)
               3419  D5A   ?getHighlightColour@ColourShader@nmui@@QBE?BVwxColour@@XZ  (00007060)
               3420  D5B   ?getHighlightColour@NMRollupSection@nmui@@IAE?AVwxColour@@XZ  (00082DA0)
               3421  D5C   ?getHighlightIndex@NMComboBoxListCtrl@nmui@@QBEHXZ  (0007DFB0)
               3422  D5D   ?getHighlightItem@PopupMenu@nmui@@QBEPAVMenuItem@2@XZ  (00079550)
               3423  D5E   ?getHightlightItem@MenuBar@nmui@@QBEPAVMenuItem@2@XZ  (00068E80)
               3424  D5F   ?getHorizontalScrollBar@NMScrollWindow@nmui@@QAEPAVNMScrollBar@2@XZ  (00027ED0)
               3425  D60   ?getHost@NotebookEvent@nmui@@QBEPAVNotebook@2@XZ  (0006C010)
               3426  D61   ?getHotKey@Menu@nmui@@QBE?AVwxString@@H@Z  (00067120)
               3427  D62   ?getHotKey@MenuItem@nmui@@QBEABVwxString@@XZ  (0000C440)
               3428  D63   ?getHoverState@GuiNodeStateMachine@nmui@@QBEPAVGuiNodeHoverState@2@XZ  (000224C0)
               3429  D64   ?getID@Menu@nmui@@QBEHXZ  (00034E20)
               3430  D65   ?getID@MenuItem@nmui@@QBEHXZ  (000B1440)
               3431  D66   ?getId@NMUserDataObject@nmui@@QBE?AVwxString@@XZ  (0004D9B0)
               3432  D67   ?getImage@NMComboBox@nmui@@QBEHH@Z  (0004A180)
               3433  D68   ?getImage@NMPaletteItem@nmui@@QAEABVwxImage@@W4ImageSize@12@@Z  (00072F10)
               3434  D69   ?getImageHorzOffset@TreeItem@nmui@@QBEHXZ  (000B2B70)
               3435  D6A   ?getImageList@NMComboBox@nmui@@QBEPAVwxImageList@@XZ  (0008A330)
               3436  D6B   ?getImageSpacerSize@TreeItem@nmui@@QBEHXZ  (000B1820)
               3437  D6C   ?getIncrement@NMFloatSpinner@nmui@@QBEMXZ  (00053C60)
               3438  D6D   ?getIndent@NMComboBox@nmui@@QBEHH@Z  (0004A230)
               3439  D6E   ?getIndeterminateCheckMarkTick@GUIServices@nmui@@QBEABVwxBitmap@@XZ  (00008360)
               3440  D6F   ?getIndeterminateTick@GUIServices@nmui@@QBEABVwxBitmap@@XZ  (00008340)
               3441  D70   ?getIndex@NMListItem_@nmui@@QBEHXZ  (0000CC30)
               3442  D71   ?getIndexOfFirstItemVisibleInViewport@NMListControl@nmui@@QBEHXZ  (0005B350)
               3443  D72   ?getIndexOfLastItemVisibleInViewport@NMListControl@nmui@@QBEHXZ  (0005B420)
               3444  D73   ?getInitialPoint@GuiController@nmui@@QBEABVwxPoint@@XZ  (000074E0)
               3445  D74   ?getInitialPoint@StateManager@nmui@@QBEABVwxPoint@@XZ  (00010D60)
               3446  D75   ?getInsertionPoint@Menu@nmui@@QBEHXZ  (00022DC0)
               3447  D76   ?getInsertionPoint@NMSimpleTextCtrl@nmui@@QBEHXZ  (0009D440)
               3448  D77   ?getInstance@GUIServices@nmui@@SAPAV12@XZ  (00007650)
               3449  D78   ?getIntUserData@NMListItem_@nmui@@QBEHXZ  (000B12C0)
               3450  D79   ?getIsEditable@NMColourSwatch@nmui@@QBE_NXZ  (0003E980)
               3451  D7A   ?getItalic@TreeItem@nmui@@QBE_NXZ  (000B1610)
               3452  D7B   ?getItem@NMIconBarEvent@nmui@@QBEPAVNMIconBarItem_@2@XZ  (00027820)
               3453  D7C   ?getItem@NMListEvent@nmui@@QBEPAVNMListItem_@2@XZ  (00028480)
               3454  D7D   ?getItemAttributes@NMListControl@nmui@@QBEPAVNMColumnItemAttr@2@PAVNMListItem_@2@@Z  (0005A170)
               3455  D7E   ?getItemBoundingBox@NMIconBar@nmui@@QBEABVwxRect@@PAVNMIconBarItem_@2@@Z  (00055320)
               3456  D7F   ?getItemBoundingBox@NMListControl@nmui@@QBE?AVwxRect@@PAVNMListItem_@2@H@Z  (0005B280)
               3457  D80   ?getItemByIndex@Menu@nmui@@QBEPAVMenuItem@2@H@Z  (00066DC0)
               3458  D81   ?getItemByIndex@NMIconBar@nmui@@QBEPAVNMIconBarItem_@2@H@Z  (00056820)
               3459  D82   ?getItemByIndex@NMIconBarSlots@nmui@@QBEPAVNMIconBarItem_@2@H@Z  (00055EB0)
               3460  D83   ?getItemByIndex@NMListControl@nmui@@QBEPAVNMListItem_@2@H@Z  (0005CC80)
               3461  D84   ?getItemByText@NMListControl@nmui@@QBEPAVNMListItem_@2@ABVwxString@@H@Z  (0005CCF0)
               3462  D85   ?getItemByUserData@NMIconBar@nmui@@QBEPAVNMIconBarItem_@2@PAX@Z  (00056860)
               3463  D86   ?getItemByUserData@NMIconBarSlots@nmui@@QBEPAVNMIconBarItem_@2@PAX@Z  (00055EE0)
               3464  D87   ?getItemCheckState@NMListControl@nmui@@UBE?AW4CheckState@NMColumnItemAttr@2@PAVNMListItem_@2@H@Z  (0005AFC0)
               3465  D88   ?getItemCheckState@TreeControl@nmui@@QBE?AW4CheckState@NMColumnItemAttr@2@PAVTreeItem@2@H@Z  (000B10F0)
               3466  D89   ?getItemCheckStateByIndex@NMListControl@nmui@@QBE?AW4CheckState@NMColumnItemAttr@2@HH@Z  (0005D130)
               3467  D8A   ?getItemCount@Menu@nmui@@QBEHXZ  (000667C0)
               3468  D8B   ?getItemCount@NMIconBar@nmui@@QBEHXZ  (00055E30)
               3469  D8C   ?getItemCount@NMIconBarSlots@nmui@@QBEHXZ  (00055C10)
               3470  D8D   ?getItemCount@NMListControl@nmui@@QBEHXZ  (0005AF30)
               3471  D8E   ?getItemHeight@NMListControl@nmui@@UBEHXZ  (00007EC0)
               3472  D8F   ?getItemHeight@PopupMenu@nmui@@QBEHXZ  (000794F0)
               3473  D90   ?getItemHeight@TreeControl@nmui@@UBEHXZ  (00007EA0)
               3474  D91   ?getItemIcon@NMIconBar@nmui@@QBEABVwxBitmap@@PAVNMIconBarItem_@2@@Z  (00055340)
               3475  D92   ?getItemImage@NMListControl@nmui@@QBEHPAVNMListItem_@2@H@Z  (0005AFA0)
               3476  D93   ?getItemImage@NMPalette@nmui@@QAE?AVwxImage@@PAVNMPaletteItem@2@W4NMPaletteIconType@2@@Z  (00074770)
               3477  D94   ?getItemImageByIndex@NMListControl@nmui@@QBEHHH@Z  (0005D0F0)
               3478  D95   ?getItemIndent@TreeControl@nmui@@QBEHXZ  (000B1160)
               3479  D96   ?getItemIndex@Menu@nmui@@QBEHH@Z  (00066A40)
               3480  D97   ?getItemIndex@NMListControl@nmui@@QBEHPAVNMListItem_@2@@Z  (0005A1B0)
               3481  D98   ?getItemIndexWithoutSeparators@Menu@nmui@@QBEHPAVMenuItem@2@_N@Z  (00067D00)
               3482  D99   ?getItemIntUserData@NMListControl@nmui@@QBEHPAVNMListItem_@2@@Z  (0005A3A0)
               3483  D9A   ?getItemLabel@NMIconBar@nmui@@QBEABVwxString@@PAVNMIconBarItem_@2@@Z  (000552E0)
               3484  D9B   ?getItemRenderingWidth@TreeItem@nmui@@QBEHH@Z  (000B62F0)
               3485  D9C   ?getItemText@NMListControl@nmui@@QBEABVwxString@@PAVNMListItem_@2@H@Z  (0005AF80)
               3486  D9D   ?getItemTextByIndex@NMListControl@nmui@@QBEABVwxString@@HH@Z  (0005CCB0)
               3487  D9E   ?getItemType@NavigatorTreeItem@nmui@@QBEPAVNavigatorItemType@2@XZ  (00034DA0)
               3488  D9F   ?getItemTypeImage@NMPalette@nmui@@QAEPAVwxImage@@IW4NMPaletteIconType@2@@Z  (000746F0)
               3489  DA0   ?getItemUserData@NMIconBar@nmui@@QBEPAXPAVNMIconBarItem_@2@@Z  (0005A3A0)
               3490  DA1   ?getItemVoidPtrUserData@NMListControl@nmui@@QBEPAXPAVNMListItem_@2@@Z  (0005A380)
               3491  DA2   ?getItemVoidPtrUserDataByIndex@NMListControl@nmui@@QBEPAXH@Z  (0005D910)
               3492  DA3   ?getItemWindow@TreeControl@nmui@@QBEPAVwxWindow@@PAVTreeItem@2@H@Z  (000B1170)
               3493  DA4   ?getItems@NMCheckListDialog@nmui@@QBEABV?$Vector@VwxString@@@NMutils@@XZ  (0003C860)
               3494  DA5   ?getItemsList@NMPalette@nmui@@QAEPAV?$Vector@PAVNMPaletteItem@nmui@@@NMutils@@XZ  (00072D60)
               3495  DA6   ?getK@NMExpFloatRange@nmui@@QBEMXZ  (0004E480)
               3496  DA7   ?getK@NMSimpleGraphAxes@nmui@@QBEMXZ  (0008BB10)
               3497  DA8   ?getKeyCode@NMListEvent@nmui@@QBEHXZ  (0005A760)
               3498  DA9   ?getKeyEvent@NMListEvent@nmui@@QBEABVwxKeyEvent@@XZ  (0005A750)
               3499  DAA   ?getLabel@Button@nmui@@QBEABVwxString@@XZ  (00068E40)
               3500  DAB   ?getLabel@CheckBox@nmui@@UBEABVwxString@@XZ  (0009D370)
               3501  DAC   ?getLabel@CheckBoxEvent@nmui@@QBEABVwxString@@XZ  (0003C160)
               3502  DAD   ?getLabel@NMPaletteItem@nmui@@QBEABVwxString@@_N@Z  (00072EA0)
               3503  DAE   ?getLabel@NMSimpleTextCtrl@nmui@@QBEABVwxString@@XZ  (0009D4F0)
               3504  DAF   ?getLabel@NMStaticBox@nmui@@QBEABVwxString@@XZ  (000577A0)
               3505  DB0   ?getLabelAlignment@Button@nmui@@QBE?AW4wxAlignment@@XZ  (00087750)
               3506  DB1   ?getLabelForDrawing@TreeItem@nmui@@QBE?AVwxString@@XZ  (000B1470)
               3507  DB2   ?getLargeBoldFont@PopupMenu@nmui@@IBEABVwxFont@@XZ  (00079430)
               3508  DB3   ?getLargeFont@GUIServices@nmui@@QBEABVwxFont@@XZ  (00008530)
               3509  DB4   ?getLargeFont@PopupMenu@nmui@@IBEABVwxFont@@XZ  (00079420)
               3510  DB5   ?getLargeFontBold@GUIServices@nmui@@QBEABVwxFont@@XZ  (00008540)
               3511  DB6   ?getLastAddedResourceId@FileResourceManager@nmui@@QBEIXZ  (000284D0)
               3512  DB7   ?getLastChild@FileResourceManager@nmui@@QBEII@Z  (0001F7B0)
               3513  DB8   ?getLastChildName@FileResourceManager@nmui@@QBEPB_WI@Z  (0001F870)
               3514  DB9   ?getLastColumnShown@NMColumnWindow@nmui@@UBEHXZ  (000442B0)
               3515  DBA   ?getLastItem@Menu@nmui@@QBEPAVMenuItem@2@_N@Z  (00068560)
               3516  DBB   ?getLastItem@NMListControl@nmui@@QBEPAVNMListItem_@2@XZ  (0005D490)
               3517  DBC   ?getLastPosition@NMSimpleTextCtrl@nmui@@QBEHXZ  (0009D410)
               3518  DBD   ?getLastSelected@NMPalette@nmui@@QAEPAVNMPaletteItem@2@XZ  (00072D40)
               3519  DBE   ?getLastSelectedItem@NMListControl@nmui@@QBEPAVNMListItem_@2@XZ  (000611D0)
               3520  DBF   ?getLastSizer@PanelBuilder@nmui@@IBEPAVwxSizer@@XZ  (000A6570)
               3521  DC0   ?getLastVisiblePosition@NMSimpleTextCtrl@nmui@@QBEHXZ  (0009E7C0)
               3522  DC1   ?getLastWindow@Notebook@nmui@@UBEPAVwxWindow@@_N@Z  (0006C8C0)
               3523  DC2   ?getLayout@NMPalette@nmui@@QAE?AW4NMPaletteLayout@2@XZ  (00072CF0)
               3524  DC3   ?getLayoutWindow@NMRollupContainer@nmui@@QAEPAVwxWindow@@XZ  (00083080)
               3525  DC4   ?getLeftColumnHeaderPadding@NMColumnWindow@nmui@@UBEHI@Z  (000445D0)
               3526  DC5   ?getLeftPanelBar@NMScrollWindow@nmui@@QBEPAVNMScrollPanel@2@XZ  (0008A2E0)
               3527  DC6   ?getLeftRightBorderSize@NMRollupSection@nmui@@QBEHXZ  (00082C80)
               3528  DC7   ?getLegendEnabled@NMColourLegend@nmui@@QBE_NI@Z  (0003DF80)
               3529  DC8   ?getListBoldFont@NMListControl@nmui@@QBEABVwxFont@@XZ  (0005A100)
               3530  DC9   ?getListControl@NMComboBox@nmui@@QAEPAVNMComboBoxListCtrl@2@XZ  (0009D440)
               3531  DCA   ?getListFont@NMListControl@nmui@@QBEABVwxFont@@XZ  (0005A0E0)
               3532  DCB   ?getListItems@NMListControl@nmui@@QBEABV?$Vector@PAVNMListItem_@nmui@@@NMutils@@XZ  (00059FE0)
               3533  DCC   ?getListItemsRect@NMComboBoxListCtrl@nmui@@IBE?AVwxRect@@XZ  (00047360)
               3534  DCD   ?getListIteratorForWindow@Notebook@nmui@@IAE?AV?$_Iterator@$00@?$list@PAVwxWindow@@V?$allocator@PAVwxWindow@@@std@@@std@@PAVwxWindow@@@Z  (0006EC80)
               3535  DCE   ?getListOfSelectableWindows@Notebook@nmui@@QBEXAAV?$list@PAVwxWindow@@V?$allocator@PAVwxWindow@@@std@@@std@@@Z  (0006CE40)
               3536  DCF   ?getListWindow@NMListControl@nmui@@QBEPAVNMScrollPanel@2@XZ  (00027BC0)
               3537  DD0   ?getLowerFilterStrings@NMFilterCtrl@nmui@@QBEABVwxArrayString@@XZ  (000521B0)
               3538  DD1   ?getLowerFullPath@FileResourceManager@nmui@@QBE?AVwxString@@I@Z  (0001A790)
               3539  DD2   ?getLowerResourcePath@FileResourceManager@nmui@@ABEXPAVItemInfo@2@PAVwxString@@_N@Z  (00017270)
               3540  DD3   ?getLowerResourcePath@FileResourceManager@nmui@@QBE_NIPAVwxString@@_N@Z  (00019230)
               3541  DD4   ?getLuminescence@GUIServices@nmui@@QAEMABVwxColour@@@Z  (0002C8D0)
               3542  DD5   ?getMacroReplacement@NMMacroReplacementTool@nmui@@QBEPAVNMMacroReplacement@2@ABVwxString@@@Z  (00065CD0)
               3543  DD6   ?getMacroReplacementIterator@NMMacroReplacementTool@nmui@@ABE?AV?$_Vector_iterator@PAVNMMacroReplacement@nmui@@V?$allocator@PAVNMMacroReplacement@nmui@@@std@@@std@@ABVwxString@@@Z  (00065A20)
               3544  DD7   ?getMacroString@NMMacroReplacement@nmui@@QBEABVwxString@@XZ  (0000C4E0)
               3545  DD8   ?getManager@GuiNodeEvent@nmui@@QBEPAVGuiNodeManager@2@XZ  (00034E20)
               3546  DD9   ?getManager@GuiNodeState@nmui@@QBEPAVGuiNodeManager@2@XZ  (000230B0)
               3547  DDA   ?getManager@GuiNodeStateManager@nmui@@QBEPAVGuiNodeManager@2@XZ  (00027D20)
               3548  DDB   ?getMargin@NMSimpleTextCtrl@nmui@@QBE?AVwxSize@@XZ  (0009D510)
               3549  DDC   ?getMaxK@NMSimpleGraph@nmui@@QBEMXZ  (0008BCB0)
               3550  DDD   ?getMaxValue@NMProgressBar@nmui@@QBEIXZ  (00055490)
               3551  DDE   ?getMaxY@NMSimpleGraphAxes@nmui@@QBEMXZ  (0008BB00)
               3552  DDF   ?getMaximum@NMFloatSlider@nmui@@QBEMXZ  (00053000)
               3553  DE0   ?getMaximum@NMIntSlider@nmui@@QBEHXZ  (00072CE0)
               3554  DE1   ?getMaximum@NMUIntSlider@nmui@@QBEIXZ  (00072CE0)
               3555  DE2   ?getMaximum@Slider@nmui@@QBENXZ  (0004E3C0)
               3556  DE3   ?getMemoryAllocation@NMSimpleGraph@nmui@@QAEHXZ  (0008D270)
               3557  DE4   ?getMenu@MenuBar@nmui@@QAEAAVMenu@2@XZ  (00068E40)
               3558  DE5   ?getMenu@NMFilterCtrl@nmui@@QBEPAVMenu@2@XZ  (000521A0)
               3559  DE6   ?getMenu@PopupMenu@nmui@@QAEAAVMenu@2@XZ  (000794E0)
               3560  DE7   ?getMenu@PopupMenu@nmui@@QBEABVMenu@2@XZ  (000794E0)
               3561  DE8   ?getMenuItems@Menu@nmui@@QBEABV?$Vector@PAVMenuItem@nmui@@@NMutils@@XZ  (000B1440)
               3562  DE9   ?getMenuItemsWithoutSeparators@Menu@nmui@@QBE?AV?$Vector@PAVMenuItem@nmui@@@NMutils@@_N@Z  (00067C00)
               3563  DEA   ?getMinY@NMSimpleGraphAxes@nmui@@QBEMXZ  (0008BAF0)
               3564  DEB   ?getMinimum@NMFloatSlider@nmui@@QBEMXZ  (00052FF0)
               3565  DEC   ?getMinimum@NMIntSlider@nmui@@QBEHXZ  (000A4110)
               3566  DED   ?getMinimum@NMUIntSlider@nmui@@QBEIXZ  (000A4110)
               3567  DEE   ?getMinimum@Slider@nmui@@QBENXZ  (0004E3B0)
               3568  DEF   ?getMinimumHeight@TreeItem@nmui@@MBEHXZ  (0000CC70)
               3569  DF0   ?getMinimumHeightForNoVerticalScrollbar@NMColumnWindow@nmui@@UBEHH@Z  (00042520)
               3570  DF1   ?getMinimumWidth@TreeItem@nmui@@MBEHH@Z  (0000CC60)
               3571  DF2   ?getMouseDoubleClickTime@nmui@@YAHXZ  (00003650)
               3572  DF3   ?getMouseEvent@GuiNodeEvent@nmui@@QAEAAVwxMouseEvent@@XZ  (0000C440)
               3573  DF4   ?getMouseOverImageCursor@TreeControl@nmui@@QBE?AVwxCursor@@XZ  (0000CB40)
               3574  DF5   ?getNMStyle@Window@nmui@@QBE?AVNMStyle@2@XZ  (000A59D0)
               3575  DF6   ?getName@BaseState@nmui@@QBEABV?$basic_string@_WU?$char_traits@_W@std@@V?$allocator@_W@2@@std@@XZ  (000656C0)
               3576  DF7   ?getName@FSMState@nmui@@QBEABVwxString@@XZ  (0000AB50)
               3577  DF8   ?getName@FileResourceManager@nmui@@QBEPB_WI@Z  (00018C20)
               3578  DF9   ?getName@FiniteStateMachine@nmui@@QBEABVwxString@@XZ  (000074B0)
               3579  DFA   ?getNavigatorItemType@NavigatorTree@nmui@@QBEPAVNavigatorItemType@2@ABVwxString@@@Z  (00035B40)
               3580  DFB   ?getNavigatorTree@NavigatorGroup@nmui@@QBEPAVNavigatorTree@2@XZ  (000224C0)
               3581  DFC   ?getNewSectionOrderForMove@NMRollupContainer@nmui@@IAE?AV?$vector@PAVNMRollupSection@nmui@@V?$allocator@PAVNMRollupSection@nmui@@@std@@@std@@PAVNMRollupSection@2@I@Z  (00085480)
               3582  DFD   ?getNext@NMListItem_@nmui@@QBEPAV12@XZ  (000B1E00)
               3583  DFE   ?getNextID@NMRadioBox@nmui@@QBE_NHAAH@Z  (0007FFE0)
               3584  DFF   ?getNextItem@Menu@nmui@@QBEPAVMenuItem@2@PAV32@_N1@Z  (00068770)
               3585  E00   ?getNextItem@NMListControl@nmui@@QBEPAVNMListItem_@2@PAV32@@Z  (0005D4F0)
               3586  E01   ?getNextSibling@GuiNode@nmui@@QBEPAV12@XZ  (00023A70)
               3587  E02   ?getNextWatchId@DirectoryWatchBase@nmui@@IAEIXZ  (0000AA40)
               3588  E03   ?getNextWindow@NMSwitchablePanel@nmui@@QBEPAVwxWindow@@PAV3@@Z  (00099530)
               3589  E04   ?getNextWindow@Notebook@nmui@@UAEPAVwxWindow@@PAV3@_N1@Z  (0006F2F0)
               3590  E05   ?getNoButton@Dialog@nmui@@QBEPAVButton@2@XZ  (00072D40)
               3591  E06   ?getNoScroll@TextControl@nmui@@QBE_NXZ  (000ADAA0)
               3592  E07   ?getNode@GuiNodeEvent@nmui@@QBEPAVGuiNode@2@XZ  (000224C0)
               3593  E08   ?getNodeManager@GuiNodeWindowBase@nmui@@QBEPAVGuiNodeManager@2@XZ  (00034E20)
               3594  E09   ?getNotebookGroupID@Notebook@nmui@@UBE?AVwxString@@XZ  (0006B230)
               3595  E0A   ?getNthWindow@Notebook@nmui@@UBEPAVwxWindow@@H@Z  (0006C9A0)
               3596  E0B   ?getNumChildren@GuiNode@nmui@@QBEHXZ  (00022F10)
               3597  E0C   ?getNumDropDownItems@NMComboBoxListCtrl@nmui@@QBEHXZ  (00055490)
               3598  E0D   ?getNumEnabledChannels@NMSimpleGraph@nmui@@QBEHXZ  (0008DBF0)
               3599  E0E   ?getNumSamples@NMSimpleGraphAxes@nmui@@QBEHXZ  (00022DC0)
               3600  E0F   ?getNumTicks@Slider@nmui@@QBEHXZ  (00093250)
               3601  E10   ?getNumberOfItems@NMRadioBox@nmui@@QBEHXZ  (0007F5A0)
               3602  E11   ?getNumberOfOverloadedFunctions@AutoCompleteDictionary@nmui@@IAEHH@Z  (00005A10)
               3603  E12   ?getOkButton@Dialog@nmui@@QBEPAVButton@2@XZ  (00082C70)
               3604  E13   ?getOrderIndex@NMRollupContainer@nmui@@QAEHPAVNMRollupSection@2@@Z  (00084150)
               3605  E14   ?getOrigin@GuiNode@nmui@@QBE?AVNMPoint2D@NMutils@@XZ  (000224D0)
               3606  E15   ?getOrigin@GuiNode@nmui@@QBEXAAVNMPoint2D@NMutils@@@Z  (00022500)
               3607  E16   ?getOrigin@GuiNodeData@nmui@@UBEXAAVNMPoint2D@NMutils@@@Z  (00037DF0)
               3608  E17   ?getOrigin@GuiNodeTraverseVisitor@nmui@@IBE?AVNMPoint2D@NMutils@@XZ  (00025150)
               3609  E18   ?getOutstandingActions@FileResourceManager@nmui@@IBEIXZ  (00017330)
               3610  E19   ?getOutstandingTasks@FileResourceManager@nmui@@IBEIXZ  (000172F0)
               3611  E1A   ?getOwnerCount@FileResourceManager@nmui@@QBEIIW4ResourceOwner@2@@Z  (00018830)
               3612  E1B   ?getOwnerWindow@GuiNodeManager@nmui@@QBEPAVwxWindow@@XZ  (000B1440)
               3613  E1C   ?getOwnerWindow@GuiNodeState@nmui@@QBEPAVwxWindow@@XZ  (000230D0)
               3614  E1D   ?getOwnerWindow@GuiNodeWindowBase@nmui@@QBEPAVwxWindow@@XZ  (000B1440)
               3615  E1E   ?getOwningMenu@MenuItem@nmui@@QBEPAVMenu@2@XZ  (000B12C0)
               3616  E1F   ?getPage@NMRollupSection@nmui@@QBEPAVwxWindow@@XZ  (00072CE0)
               3617  E20   ?getPageDownItem@NMListControl@nmui@@QBEPAVNMListItem_@2@PAV32@@Z  (0005D5F0)
               3618  E21   ?getPageSize@NMScrollPanel@nmui@@QBE?AVwxSize@@XZ  (00089AB0)
               3619  E22   ?getPageUpItem@NMListControl@nmui@@QBEPAVNMListItem_@2@PAV32@@Z  (0005D530)
               3620  E23   ?getPaleShadowColour@ColourShader@nmui@@QBE?BVwxColour@@XZ  (00007090)
               3621  E24   ?getPalette@NMPaletteItem@nmui@@QBEPAVNMPalette@2@XZ  (000B1440)
               3622  E25   ?getPaletteItem@NMPalette@nmui@@QAEPAVNMPaletteItem@2@H@Z  (00073380)
               3623  E26   ?getPaletteItemCount@NMPalette@nmui@@QBEHXZ  (00073310)
               3624  E27   ?getPanExtentsX@GuiNodeTransform@nmui@@QAEXAAM0@Z  (00022B90)
               3625  E28   ?getPanExtentsY@GuiNodeTransform@nmui@@QAEXAAM0@Z  (00022BB0)
               3626  E29   ?getPanType@GuiNodeWindowBase@nmui@@QBE?AW4PanType@12@XZ  (00022DD0)
               3627  E2A   ?getPanX@GuiNodeTransform@nmui@@QBEMXZ  (0008BB00)
               3628  E2B   ?getPanX@WindowPannedEvent@nmui@@QBEMXZ  (000255E0)
               3629  E2C   ?getPanY@GuiNodeTransform@nmui@@QBEMXZ  (00022B20)
               3630  E2D   ?getPanY@WindowPannedEvent@nmui@@QBEMXZ  (000255F0)
               3631  E2E   ?getPanZoomController@GuiNodeWindowBase@nmui@@QBEPBVGuiController@2@XZ  (000224C0)
               3632  E2F   ?getParent@BaseState@nmui@@QBEPAV12@XZ  (000B12C0)
               3633  E30   ?getParent@GuiNode@nmui@@QBEPAV12@XZ  (00027D20)
               3634  E31   ?getParent@NMTextRenameCtrlOwner@nmui@@QBEPAVwxWindow@@XZ  (000B1440)
               3635  E32   ?getParentContainer@NMRollupSection@nmui@@QBEPAVNMRollupContainer@2@XZ  (00082CC0)
               3636  E33   ?getParentId@FileResourceManager@nmui@@QBEII@Z  (00018B40)
               3637  E34   ?getParentName@FileResourceManager@nmui@@QBEPB_WI@Z  (00018D40)
               3638  E35   ?getParentWindow@PanelBuilder@nmui@@QBEPAVwxWindow@@XZ  (000A6560)
               3639  E36   ?getPixelOffset@GuiNodeTransform@nmui@@QBE?AVwxPoint@@XZ  (00022C50)
               3640  E37   ?getPixelSashPosition@NMSplitter@nmui@@IBEHXZ  (00095280)
               3641  E38   ?getPlotRegion@NMSimpleGraphAxes@nmui@@QBEABVwxRect@@XZ  (0000C4E0)
               3642  E39   ?getPoint@NMColumnWindowEvent@nmui@@QBE?AVwxPoint@@XZ  (00042970)
               3643  E3A   ?getPoint@NMIconBarEvent@nmui@@QBE?AVwxPoint@@XZ  (00055710)
               3644  E3B   ?getPoint@NMSimpleGraphEvent@nmui@@QBE?AVwxPoint@@XZ  (0006B290)
               3645  E3C   ?getPoppedUpMenu@MenuBar@nmui@@QBEPAVPopupMenu@2@XZ  (00068E50)
               3646  E3D   ?getPopupPanel@NMListControl@nmui@@QBEPAVPopupPanel@2@XZ  (00027BB0)
               3647  E3E   ?getPopupPanel@TreeControl@nmui@@QBEPAVPopupPanel@2@XZ  (0000CBF0)
               3648  E3F   ?getPosition@GuiNodeEvent@nmui@@QBE?AVNMPoint2D@NMutils@@XZ  (000227E0)
               3649  E40   ?getPreProcessor@NMScriptControl@nmui@@QAEPAVLuaProcessor@2@XZ  (000286C0)
               3650  E41   ?getPrevious@NMListItem_@nmui@@QBEPAV12@XZ  (00027D00)
               3651  E42   ?getPreviousID@NMRadioBox@nmui@@QBE_NHAAH@Z  (0007FFA0)
               3652  E43   ?getPreviousItem@Menu@nmui@@QBEPAVMenuItem@2@PAV32@_N1@Z  (000685E0)
               3653  E44   ?getPreviousItem@NMListControl@nmui@@QBEPAVNMListItem_@2@PAV32@@Z  (0005D4C0)
               3654  E45   ?getPreviousSibling@GuiNode@nmui@@QBEPAV12@XZ  (00023B50)
               3655  E46   ?getPreviousWindow@Notebook@nmui@@UAEPAVwxWindow@@PAV3@_N1@Z  (0006F070)
               3656  E47   ?getPrimaryColour@ColourShader@nmui@@QBE?BVwxColour@@XZ  (00007040)
               3657  E48   ?getProfiler@NMProfilerWindow@nmui@@QBEPAVProfiler@NMP@@XZ  (00008130)
               3658  E49   ?getPrompt@DirectoryControl@nmui@@QBEABVwxString@@XZ  (000145F0)
               3659  E4A   ?getPrompt@FilenameControl@nmui@@QBEABVwxString@@XZ  (000145F0)
               3660  E4B   ?getPublicScriptName@Window@nmui@@QBE?AVwxString@@XZ  (000A4FC0)
               3661  E4C   ?getRadioGroup@Menu@nmui@@QBE?AV?$Vector@PAVMenuItem@nmui@@@NMutils@@H@Z  (000688E0)
               3662  E4D   ?getRaidoGroup@NMListItem_@nmui@@QBEHXZ  (00072FF0)
               3663  E4E   ?getRelativeSashValue@NMSplitter@nmui@@QBEMW4SplitterWindow@2@_N@Z  (000954D0)
               3664  E4F   ?getRenameControlText@NMTextRenameCtrlOwner@nmui@@IBE?AVwxString@@XZ  (0009DF90)
               3665  E50   ?getRenderer@NMListControl@nmui@@QBEPAVCellRenderer@2@XZ  (0005A4B0)
               3666  E51   ?getReorderInfo@NMRollupSectionEvent@nmui@@QAEXAAV?$vector@PAVNMRollupSection@nmui@@V?$allocator@PAVNMRollupSection@nmui@@@std@@@std@@0@Z  (000858B0)
               3667  E52   ?getReplacementString@NMMacroReplacement@nmui@@QBEABVwxString@@XZ  (000656C0)
               3668  E53   ?getReportStrategy@NMProfilerWindow@nmui@@QBEPAVNMProfilerReportingStrategy@2@XZ  (0007D2F0)
               3669  E54   ?getResourcePath@FileResourceManager@nmui@@ABEXPAVItemInfo@2@PAVwxString@@_N@Z  (00017150)
               3670  E55   ?getResourcePath@FileResourceManager@nmui@@QBE_NIPAVwxString@@_N@Z  (000191E0)
               3671  E56   ?getResult@LuaSyntaxCheckEvent@nmui@@QBEHXZ  (000286E0)
               3672  E57   ?getRightAlignedBitmap@Menu@nmui@@QBEPAVwxBitmap@@H@Z  (000672F0)
               3673  E58   ?getRightAlignedBitmap@MenuItem@nmui@@QBEPAVwxBitmap@@XZ  (00027D00)
               3674  E59   ?getRightColumnHeaderPadding@NMColumnWindow@nmui@@UBEHI@Z  (00044540)
               3675  E5A   ?getRollupSection@NMRollupContainer@nmui@@QBEPAVNMRollupSection@2@H@Z  (00084060)
               3676  E5B   ?getRollupSection@NMRollupContainer@nmui@@QBEPAVNMRollupSection@2@PB_W@Z  (00084090)
               3677  E5C   ?getRollupSectionCount@NMRollupContainer@nmui@@QBEIXZ  (000835E0)
               3678  E5D   ?getRoot@GuiNodeManager@nmui@@QBEPAVGuiNode@2@XZ  (00022DC0)
               3679  E5E   ?getRoot@StateManager@nmui@@AAEPBVBaseState@2@PBV32@0@Z  (00010DC0)
               3680  E5F   ?getRowIndex@TreeControl@nmui@@QBEHXZ  (0005A000)
               3681  E60   ?getRowStyle@NMListControl@nmui@@QBEJH@Z  (0005DBE0)
               3682  E61   ?getRowStyle@NMListItem_@nmui@@QAEJXZ  (00027D20)
               3683  E62   ?getSashMode@NMSplitter@nmui@@QBE?AW4SashMode@2@XZ  (0009D440)
               3684  E63   ?getSashRect@NMSplitter@nmui@@IAE?AVwxRect@@XZ  (00095590)
               3685  E64   ?getSashSize@NMSplitter@nmui@@IBEHXZ  (000943D0)
               3686  E65   ?getSashValue@NMSplitter@nmui@@QBEMXZ  (00052FF0)
               3687  E66   ?getSashValue@NMSplitterEvent@nmui@@QBEMXZ  (000940A0)
               3688  E67   ?getScale@GuiNode@nmui@@QBE?AVNMPoint2D@NMutils@@XZ  (00022580)
               3689  E68   ?getScale@GuiNode@nmui@@QBEXAAVNMPoint2D@NMutils@@@Z  (000225B0)
               3690  E69   ?getScale@GuiNodeData@nmui@@UBEXAAVNMPoint2D@NMutils@@@Z  (00037DF0)
               3691  E6A   ?getScaleExtentsX@GuiNodeTransform@nmui@@QAEXAAM0@Z  (00022A70)
               3692  E6B   ?getScaleExtentsY@GuiNodeTransform@nmui@@QAEXAAM0@Z  (00022A90)
               3693  E6C   ?getScaleType@GuiNodeWindowBase@nmui@@QBE?AW4ScaleType@12@XZ  (00022DC0)
               3694  E6D   ?getScaleX@GuiNodeTransform@nmui@@QBEMXZ  (000229F0)
               3695  E6E   ?getScaleX@WindowScaledEvent@nmui@@QBEMXZ  (00025630)
               3696  E6F   ?getScaleY@GuiNodeTransform@nmui@@QBEMXZ  (00022A00)
               3697  E70   ?getScaleY@WindowScaledEvent@nmui@@QBEMXZ  (00025640)
               3698  E71   ?getScreenPosition@GuiNodeEvent@nmui@@QBE?AVwxPoint@@XZ  (00022800)
               3699  E72   ?getScrollPosition@NMScrollBar@nmui@@QBEHXZ  (00087740)
               3700  E73   ?getScrollPosition@NMScrollWindow@nmui@@QBE?AVwxPoint@@XZ  (0008A340)
               3701  E74   ?getScrollRange@NMScrollBar@nmui@@QBEHXZ  (000794F0)
               3702  E75   ?getScrollRate@NMScrollBar@nmui@@QBEHXZ  (00087750)
               3703  E76   ?getScrollSize@NMScrollPanel@nmui@@QBE?AVwxSize@@XZ  (00089A90)
               3704  E77   ?getScrollStepClamp@NMScrollBar@nmui@@QBEHXZ  (00068E50)
               3705  E78   ?getScrollThumbSize@NMScrollBar@nmui@@QBEHXZ  (00055490)
               3706  E79   ?getScrollX@NMScrollPanel@nmui@@QBEHXZ  (0009D470)
               3707  E7A   ?getScrollY@NMScrollPanel@nmui@@QBEHXZ  (0008A330)
               3708  E7B   ?getScrollablePanel@NMScrollWindow@nmui@@QBEPAVNMScrollPanel@2@XZ  (0008A2C0)
               3709  E7C   ?getScrollbarBottomButtonRect@NMComboBoxListCtrl@nmui@@IBE?AVwxRect@@XZ  (000460B0)
               3710  E7D   ?getScrollbarBottomZoneRect@NMComboBoxListCtrl@nmui@@IBE?AVwxRect@@XZ  (00048490)
               3711  E7E   ?getScrollbarRect@NMComboBoxListCtrl@nmui@@IBE?AVwxRect@@XZ  (00046020)
               3712  E7F   ?getScrollbarThumbRect@NMComboBoxListCtrl@nmui@@IBE?AVwxRect@@XZ  (000473D0)
               3713  E80   ?getScrollbarTopButtonRect@NMComboBoxListCtrl@nmui@@IBE?AVwxRect@@XZ  (00046070)
               3714  E81   ?getScrollbarTopZoneRect@NMComboBoxListCtrl@nmui@@IBE?AVwxRect@@XZ  (00048430)
               3715  E82   ?getSection@NMRollupSectionEvent@nmui@@QBEPAVNMRollupSection@2@XZ  (00027820)
               3716  E83   ?getSectionAtPoint@NMRollupContainer@nmui@@IAEPAVNMRollupSection@2@VwxPoint@@AAMAA_N@Z  (00084370)
               3717  E84   ?getSelected@NMRadioBox@nmui@@QBEHXZ  (00055490)
               3718  E85   ?getSelectedItem@NMIconBar@nmui@@QBEPAVNMIconBarItem_@2@XZ  (000558B0)
               3719  E86   ?getSelectedItem@NMIconBarSlots@nmui@@QBEPAVNMIconBarItem_@2@XZ  (00055490)
               3720  E87   ?getSelectedItem@NMListControl@nmui@@QBEPAVNMListItem_@2@XZ  (0005D2A0)
               3721  E88   ?getSelectedItem@NMPalette@nmui@@QAEPAVNMPaletteItem@2@XZ  (000733C0)
               3722  E89   ?getSelectedItemCount@NMListControl@nmui@@QBEHXZ  (0005B1E0)
               3723  E8A   ?getSelectedItemIndex@NMIconBar@nmui@@QBEHXZ  (00056870)
               3724  E8B   ?getSelectedItemIndex@NMIconBarSlots@nmui@@QBEHXZ  (00055FA0)
               3725  E8C   ?getSelectedItemIndex@NMListControl@nmui@@QBEHXZ  (0005D2F0)
               3726  E8D   ?getSelectedItemText@NMListControl@nmui@@QBEABVwxString@@H@Z  (0005D310)
               3727  E8E   ?getSelectedItems@NMPalette@nmui@@QBEPAV?$Vector@PAVNMPaletteItem@nmui@@@NMutils@@XZ  (0004BA80)
               3728  E8F   ?getSelectedWindow@Notebook@nmui@@QBEPAVwxWindow@@XZ  (00072CE0)
               3729  E90   ?getSelection@NMListControl@nmui@@QBEABV?$Vector@PAVNMListItem_@nmui@@@NMutils@@XZ  (0005A190)
               3730  E91   ?getSelectionColumn@NMColumnWindow@nmui@@QAEHXZ  (0000C670)
               3731  E92   ?getSelectionDelimiterString@NMSimpleTextCtrl@nmui@@QBE?AVwxString@@XZ  (000ACCB0)
               3732  E93   ?getSelectionEnd@NMSimpleTextCtrl@nmui@@QBEHXZ  (0008A330)
               3733  E94   ?getSelectionInViewOrder@NMListControl@nmui@@QBEXAAV?$Vector@PAVNMListItem_@nmui@@@NMutils@@@Z  (00061050)
               3734  E95   ?getSelectionIndex@NMComboBox@nmui@@QBEHXZ  (000490D0)
               3735  E96   ?getSelectionLength@NMSimpleTextCtrl@nmui@@QBEHXZ  (0009D4A0)
               3736  E97   ?getSelectionStart@NMSimpleTextCtrl@nmui@@QBEHXZ  (0009D470)
               3737  E98   ?getSelectionString@NMComboBox@nmui@@QBE?AVwxString@@XZ  (00046A80)
               3738  E99   ?getSelectionString@NMSimpleTextCtrl@nmui@@QBE?AVwxString@@XZ  (0009D4B0)
               3739  E9A   ?getSeperatorChar@ResourceManagerThreadHelper@nmui@@SA_WW4ResourceTypeId@2@@Z  (00016AE0)
               3740  E9B   ?getShowHideCommandId@NavigatorGroup@nmui@@ABEHXZ  (00034E20)
               3741  E9C   ?getSlider@NMFloatSlider@nmui@@QAEPAVSlider@2@XZ  (0004E450)
               3742  E9D   ?getSlider@NMFloatSlider@nmui@@QBEPBVSlider@2@XZ  (0004E450)
               3743  E9E   ?getSlider@NMIntSlider@nmui@@QBEPBVSlider@2@XZ  (0004E450)
               3744  E9F   ?getSlider@NMUIntSlider@nmui@@QBEPBVSlider@2@XZ  (0004E450)
               3745  EA0   ?getSmallFont@GUIServices@nmui@@QBEABVwxFont@@XZ  (00008550)
               3746  EA1   ?getSmallFontBold@GUIServices@nmui@@QBEABVwxFont@@XZ  (00008560)
               3747  EA2   ?getSnapDistance@NMSplitter@nmui@@QBEHXZ  (00093C40)
               3748  EA3   ?getSortColumn@NMColumnWindow@nmui@@QAEHPA_N@Z  (00044840)
               3749  EA4   ?getSpinButton@NMFloatSpinner@nmui@@QBEPAVSpinButton@2@XZ  (00072CE0)
               3750  EA5   ?getSpinButton@NMIntSpinner@nmui@@QBEPAVSpinButton@2@XZ  (00072CE0)
               3751  EA6   ?getSplashWindow@NMSplash@nmui@@QBEPAVwxSplashScreenWindow@@XZ  (00093250)
               3752  EA7   ?getSplitMode@NMSplitter@nmui@@QBEHXZ  (0004E450)
               3753  EA8   ?getSplitMode@NMSplitterEvent@nmui@@QBEHXZ  (0003C9D0)
               3754  EA9   ?getSplitter@NMToolPanel@nmui@@QBEPAVNMSplitter@2@XZ  (00093250)
               3755  EAA   ?getStandardFont@GUIServices@nmui@@QBEABVwxFont@@XZ  (000084B0)
               3756  EAB   ?getStandardFontBold@GUIServices@nmui@@QBEABVwxFont@@XZ  (000084C0)
               3757  EAC   ?getStandardFontBoldItalic@GUIServices@nmui@@QBEABVwxFont@@XZ  (000084E0)
               3758  EAD   ?getStandardFontFixedWidth@GUIServices@nmui@@QBEABVwxFont@@XZ  (000084F0)
               3759  EAE   ?getStandardFontFixedWidthBold@GUIServices@nmui@@QBEABVwxFont@@XZ  (00008500)
               3760  EAF   ?getStandardFontFixedWidthBoldItalic@GUIServices@nmui@@QBEABVwxFont@@XZ  (00008520)
               3761  EB0   ?getStandardFontFixedWidthItalic@GUIServices@nmui@@QBEABVwxFont@@XZ  (00008510)
               3762  EB1   ?getStandardFontItalic@GUIServices@nmui@@QBEABVwxFont@@XZ  (000084D0)
               3763  EB2   ?getState@CheckBox@nmui@@UBE?AW4State@12@XZ  (0007DFB0)
               3764  EB3   ?getState@CheckBoxEvent@nmui@@QBE?AW4State@CheckBox@2@XZ  (00027820)
               3765  EB4   ?getState@GuiNodeStateMachine@nmui@@QBEPAVGuiNodeState@2@H@Z  (00024330)
               3766  EB5   ?getState@NMPaletteItem@nmui@@QBEIXZ  (00072FF0)
               3767  EB6   ?getStateCount@FiniteStateMachine@nmui@@QBEIXZ  (00020610)
               3768  EB7   ?getStateIfClicked@HoverState@NMSimpleGraphStates@nmui@@IBEHABVwxPoint@@@Z  (0008F6D0)
               3769  EB8   ?getStateMachine@GuiNode@nmui@@QBEPBVGuiNodeStateMachine@2@XZ  (00022DC0)
               3770  EB9   ?getStateMachine@GuiNodeManager@nmui@@QBEPAVGuiNodeStateMachine@2@H@Z  (000243D0)
               3771  EBA   ?getStateMachine@GuiNodeState@nmui@@QBEPAVGuiNodeStateMachine@2@XZ  (000B1440)
               3772  EBB   ?getStateManager@GuiNodeManager@nmui@@QBEPAVGuiNodeStateManager@2@XZ  (00022DD0)
               3773  EBC   ?getStateManager@GuiNodeState@nmui@@QBEPAVGuiNodeStateManager@2@XZ  (000230A0)
               3774  EBD   ?getStateManager@GuiNodeStateMachine@nmui@@QBEPAVGuiNodeStateManager@2@XZ  (000B1440)
               3775  EBE   ?getStaticTextFont@Button@nmui@@QBE?AW4StaticTextFont@2@XZ  (00055490)
               3776  EBF   ?getStaticTextFont@NMStaticText@nmui@@QBE?AW4StaticTextFont@2@XZ  (000794F0)
               3777  EC0   ?getString@NMComboBox@nmui@@QBE?AVwxString@@H@Z  (00049ED0)
               3778  EC1   ?getStringIndex@NMComboBox@nmui@@QBEHABVwxString@@@Z  (00048F20)
               3779  EC2   ?getStringIndex@NMComboBox@nmui@@QBEHPBUStringData@2@@Z  (00048E60)
               3780  EC3   ?getStringIndexFromClientData@NMComboBox@nmui@@QBEHPAX@Z  (00049010)
               3781  EC4   ?getStringList@NMComboBox@nmui@@QBE?AV?$Vector@VwxString@@@NMutils@@XZ  (0004B3A0)
               3782  EC5   ?getStrings@NMComboBox@nmui@@QBEPAV?$Vector@PAUStringData@nmui@@@NMutils@@XZ  (00027ED0)
               3783  EC6   ?getStyle@CellRenderer@nmui@@QAEJXZ  (00027CF0)
               3784  EC7   ?getStyleFlags@TreeItem@nmui@@QBEHXZ  (000B1E00)
               3785  EC8   ?getSubMenu@MenuItem@nmui@@QBEPAVMenu@2@XZ  (00027CF0)
               3786  EC9   ?getSwatchColour@NMColumnItemAttr@nmui@@QBEABVwxColour@@XZ  (000074B0)
               3787  ECA   ?getSyntaxHighlighting@NMScriptControl@nmui@@QBEHXZ  (00086630)
               3788  ECB   ?getTabBarHeight@Notebook@nmui@@QBEHXZ  (0006B5D0)
               3789  ECC   ?getTabBarVGap@Notebook@nmui@@QBEHXZ  (0006B5E0)
               3790  ECD   ?getTabPageDimensions@Notebook@nmui@@IAE?AVwxRect@@XZ  (0006B910)
               3791  ECE   ?getTabSize@NMListControl@nmui@@QBEHXZ  (0005A000)
               3792  ECF   ?getTabWidth@Notebook@nmui@@QBEHPAVwxWindow@@@Z  (0006EAD0)
               3793  ED0   ?getTabWindow@NotebookEvent@nmui@@QBEPAVwxWindow@@XZ  (0003C9D0)
               3794  ED1   ?getTaskCategory@TaskListItem@nmui@@UBEPB_WXZ  (00099AC0)
               3795  ED2   ?getTaskDescription@TaskListItem@nmui@@UBE?AVwxString@@XZ  (00099B00)
               3796  ED3   ?getTaskName@TaskListItem@nmui@@UBE?AVwxString@@XZ  (00099AD0)
               3797  ED4   ?getTasks@TaskList@nmui@@QAEXAAV?$vector@PAVTaskListItemBase@nmui@@V?$allocator@PAVTaskListItemBase@nmui@@@std@@@std@@@Z  (0009AB00)
               3798  ED5   ?getTasksByCategory@TaskList@nmui@@QAE_NPB_WAAV?$vector@PAVTaskListItemBase@nmui@@V?$allocator@PAVTaskListItemBase@nmui@@@std@@@std@@@Z  (0009ACD0)
               3799  ED6   ?getText@Menu@nmui@@QBE?AVwxString@@H@Z  (000670A0)
               3800  ED7   ?getText@MenuItem@nmui@@QBEABVwxString@@XZ  (00016540)
               3801  ED8   ?getText@NMSimpleTextCtrl@nmui@@QBE?AVwxString@@HH@Z  (0009D380)
               3802  ED9   ?getText@NMSimpleTextCtrl@nmui@@QBEABVwxString@@XZ  (0009D370)
               3803  EDA   ?getTextAlignment@NMProgressBar@nmui@@QBE?AW4wxAlignment@@XZ  (00087750)
               3804  EDB   ?getTextBackgroundColour@NMColumnItemAttr@nmui@@QBEABVwxColour@@XZ  (0000C4E0)
               3805  EDC   ?getTextBox@NMFloatSpinner@nmui@@QBEPAVNMSimpleTextCtrl@2@XZ  (000A4110)
               3806  EDD   ?getTextBox@NMIntSpinner@nmui@@QBEPAVNMSimpleTextCtrl@2@XZ  (000A4110)
               3807  EDE   ?getTextCStr@NMSimpleTextCtrl@nmui@@QBEPB_WXZ  (00009800)
               3808  EDF   ?getTextColour@NMColumnItemAttr@nmui@@QBEABVwxColour@@XZ  (0000C440)
               3809  EE0   ?getTextColour@NMRollupHeading@nmui@@IBE?AVwxColour@@XZ  (00081140)
               3810  EE1   ?getTextControl@NMComboBox@nmui@@QAEPAVNMComboBoxTextCtrl@2@XZ  (0009D470)
               3811  EE2   ?getTextExtent@NMRollupHeading@nmui@@IBE?AVwxSize@@XZ  (00081050)
               3812  EE3   ?getTextFont@TreeItem@nmui@@UBE?AVwxFont@@XZ  (000B3CA0)
               3813  EE4   ?getTextForegroundColour@TreeItem@nmui@@UBE?AVwxColour@@XZ  (000B14A0)
               3814  EE5   ?getTextHeight@NMPaletteItem@nmui@@QAEHXZ  (00028480)
               3815  EE6   ?getTextHeight@TreeItem@nmui@@QBEHXZ  (00028480)
               3816  EE7   ?getTextLength@NMSimpleTextCtrl@nmui@@QBEHXZ  (0009D410)
               3817  EE8   ?getTextSpacerSize@TreeItem@nmui@@QBEHXZ  (000B1840)
               3818  EE9   ?getTextSpacing@CheckBox@nmui@@UBEHXZ  (000794F0)
               3819  EEA   ?getTextValue@NMSimpleMultiOptionDialog@nmui@@QBE?AVwxString@@ABV3@@Z  (00090770)
               3820  EEB   ?getTextWidth@NMPaletteItem@nmui@@QAEHXZ  (0000CC50)
               3821  EEC   ?getTextWidth@TreeItem@nmui@@QBEHXZ  (0000CC50)
               3822  EED   ?getTextWithoutAmpersands@MenuItem@nmui@@QBE?AVwxString@@XZ  (00065FB0)
               3823  EEE   ?getTextX@TreeItem@nmui@@QBEHXZ  (0004D920)
               3824  EEF   ?getTextY@TreeItem@nmui@@QBEHXZ  (0003C9D0)
               3825  EF0   ?getThreadHelper@FileResourceManager@nmui@@IBEPAVResourceManagerThreadHelper@2@XZ  (000162F0)
               3826  EF1   ?getTick@GUIServices@nmui@@QBEABVwxBitmap@@XZ  (00008330)
               3827  EF2   ?getTick@Slider@nmui@@QBENH@Z  (00091400)
               3828  EF3   ?getTimeout@NMSplash@nmui@@QBEHXZ  (00082C60)
               3829  EF4   ?getTinyArrowDown@GUIServices@nmui@@QBEABVwxBitmap@@XZ  (00008410)
               3830  EF5   ?getTinyArrowDownDisabled@GUIServices@nmui@@QBEABVwxBitmap@@XZ  (00008450)
               3831  EF6   ?getTinyArrowLeft@GUIServices@nmui@@QBEABVwxBitmap@@XZ  (00008420)
               3832  EF7   ?getTinyArrowLeftDisabled@GUIServices@nmui@@QBEABVwxBitmap@@XZ  (00008460)
               3833  EF8   ?getTinyArrowRight@GUIServices@nmui@@QBEABVwxBitmap@@XZ  (00008430)
               3834  EF9   ?getTinyArrowRightDisabled@GUIServices@nmui@@QBEABVwxBitmap@@XZ  (00008470)
               3835  EFA   ?getTinyArrowUp@GUIServices@nmui@@QBEABVwxBitmap@@XZ  (00008400)
               3836  EFB   ?getTinyArrowUpDisabled@GUIServices@nmui@@QBEABVwxBitmap@@XZ  (00008440)
               3837  EFC   ?getTitle@Notebook@nmui@@UBE?AVwxString@@PAVwxWindow@@@Z  (0006E700)
               3838  EFD   ?getToolbar@NMToolPanel@nmui@@QBEPAVNMToolBar@2@XZ  (00072CE0)
               3839  EFE   ?getTopBorderSize@NMRollupSection@nmui@@QBEHXZ  (00082C60)
               3840  EFF   ?getTopPanelBar@NMScrollWindow@nmui@@QBEPAVNMScrollPanel@2@XZ  (0008A2D0)
               3841  F00   ?getTopmostContainer@NMRollupContainer@nmui@@QAEPAV12@XZ  (00083040)
               3842  F01   ?getTransform@GuiNodeManager@nmui@@QBEPAVGuiNodeTransform@2@XZ  (00034E20)
               3843  F02   ?getTransform@GuiNodeState@nmui@@QBEPAVGuiNodeTransform@2@XZ  (000230C0)
               3844  F03   ?getTruncation@NMComboBox@nmui@@QBE?AW4TextTruncation@GUIServices@2@XZ  (00046AF0)
               3845  F04   ?getTruncation@NMSimpleTextCtrl@nmui@@QBE?AW4TextTruncation@GUIServices@2@XZ  (00087750)
               3846  F05   ?getType@MenuItem@nmui@@QBE?AW4MenuItemType@2@XZ  (000224C0)
               3847  F06   ?getTypeId@FileResourceManager@nmui@@QBE?AW4ResourceTypeId@2@I@Z  (00018E10)
               3848  F07   ?getUI@GuiNode@nmui@@QBEPBVGuiNodeUI@2@XZ  (00034E20)
               3849  F08   ?getUI@GuiNodeManager@nmui@@QBEPAVGuiNodeUI@2@H@Z  (00024440)
               3850  F09   ?getUseBoldFont@TextControl@nmui@@UBE_NH@Z  (000ACCE0)
               3851  F0A   ?getUseItalicFont@TextControl@nmui@@UBE_NH@Z  (000ACD40)
               3852  F0B   ?getUserData@Menu@nmui@@QBEPAXH@Z  (00067330)
               3853  F0C   ?getUserData@Menu@nmui@@QBEPAXXZ  (000224C0)
               3854  F0D   ?getUserData@MenuItem@nmui@@QBEPAXXZ  (0000CC40)
               3855  F0E   ?getUserData@NMUserDataObject@nmui@@QBEPAXABVwxString@@@Z  (0004DD30)
               3856  F0F   ?getUserData@Window@nmui@@QBEPAXXZ  (000A4FA0)
               3857  F10   ?getValue@NMFloatSpinner@nmui@@QBEMXZ  (00053C40)
               3858  F11   ?getValue@NMIntSpinner@nmui@@QBEHXZ  (0008A330)
               3859  F12   ?getValue@NMProgressBar@nmui@@QBEIXZ  (0007DFB0)
               3860  F13   ?getValue@Slider@nmui@@QBENXZ  (0004E3D0)
               3861  F14   ?getValueMarker@NMSimpleGraph@nmui@@QBEMXZ  (0008BC70)
               3862  F15   ?getValueMarkerReadOnly@NMSimpleGraph@nmui@@QBE_NXZ  (0008BC60)
               3863  F16   ?getVerticalScrollBar@NMScrollWindow@nmui@@QAEPAVNMScrollBar@2@XZ  (0008A330)
               3864  F17   ?getVerySmallFont@GUIServices@nmui@@QBEABVwxFont@@XZ  (00008570)
               3865  F18   ?getViewMode@NMSimpleGraph@nmui@@QBE?AW4eRBGraphView@12@XZ  (00055490)
               3866  F19   ?getVisibleItemCount@TreeControl@nmui@@QBEHXZ  (000B0ED0)
               3867  F1A   ?getVoidPtrUserData@NMListItem_@nmui@@QBEPAXXZ  (00027CC0)
               3868  F1B   ?getWatched@DirectoryWatchBase@nmui@@QBEXAAV?$Vector@PAVDirectoryHandle@nmui@@@NMutils@@@Z  (0000AAA0)
               3869  F1C   ?getWatchedPathFromEvent@DirectoryWatchTreeView@nmui@@ABEPAUWatchedPathUserData@12@ABVDirectoryWatchEvent@2@@Z  (0000D660)
               3870  F1D   ?getWidth@SelectionBorder@nmui@@UBEHPBVPanel@2@@Z  (000A55F0)
               3871  F1E   ?getWidth@TreeItem@nmui@@QBEHXZ  (00072FF0)
               3872  F1F   ?getWindow1@NMSplitter@nmui@@QBEPAVwxWindow@@XZ  (00072D40)
               3873  F20   ?getWindow2@NMSplitter@nmui@@QBEPAVwxWindow@@XZ  (00027EA0)
               3874  F21   ?getWindow@Notebook@nmui@@UAEPAVwxWindow@@XZ  (0006B210)
               3875  F22   ?getWindowBase@WindowPannedEvent@nmui@@QBEPAVGuiNodeWindowBase@2@XZ  (00027820)
               3876  F23   ?getWindowData@Notebook@nmui@@UBEPBUNotebookWindowData@2@PAVwxWindow@@@Z  (0006E7E0)
               3877  F24   ?getWindowDataForWindow@Notebook@nmui@@QBEPAUNotebookWindowData@2@PAVwxWindow@@@Z  (0006D8A0)
               3878  F25   ?getWindowIcon@Notebook@nmui@@UBE?AVwxBitmap@@PAVwxWindow@@@Z  (0006E730)
               3879  F26   ?getWindowIndex@Notebook@nmui@@UBEHPAVwxWindow@@@Z  (0006CA90)
               3880  F27   ?getWindowSize@NMSplitter@nmui@@IBEHXZ  (00093B90)
               3881  F28   ?getWindowToCollapse@NMSplitter@nmui@@QBE?AW4SplitterWindow@2@XZ  (00027ED0)
               3882  F29   ?getWindowUnselectedIcon@Notebook@nmui@@UBE?AVwxBitmap@@PAVwxWindow@@@Z  (0006E770)
               3883  F2A   ?getWindowsInSizerRecursively@nmui@@YAXPAVwxSizer@@AAV?$Vector@PAVwxWindow@@@NMutils@@@Z  (00004B70)
               3884  F2B   ?getWord@NMSimpleTextCtrl@nmui@@QBEXHAAH0@Z  (0009EA60)
               3885  F2C   ?getX@TreeItem@nmui@@QBEHXZ  (0003C990)
               3886  F2D   ?getY@TreeItem@nmui@@QBEHXZ  (0000CC30)
               3887  F2E   ?getYLabelFormat@NMSimpleGraphAxes@nmui@@QBEABVwxString@@XZ  (0008BB50)
               3888  F2F   ?getYesButton@Dialog@nmui@@QBEPAVButton@2@XZ  (0004BA80)
               3889  F30   ?gotoState@BaseState@nmui@@IAEXABV?$basic_string@_WU?$char_traits@_W@std@@V?$allocator@_W@2@@std@@PAX@Z  (00013FD0)
               3890  F31   ?graphToScreen@NMSimpleGraphAxes@nmui@@QBEXAAM0@Z  (0008D030)
               3891  F32   ?graphToScreenX@NMSimpleGraphAxes@nmui@@QBEMM@Z  (0008C890)
               3892  F33   ?graphToScreenY@NMSimpleGraphAxes@nmui@@QBEMM@Z  (0008C900)
               3893  F34   ?handleContextMenu@Notebook@nmui@@IAEXAAVwxCommandEvent@@@Z  (00071D70)
               3894  F35   ?handleContextMenuChoice@NMSplitter@nmui@@IAEXAAVwxCommandEvent@@@Z  (00096D70)
               3895  F36   ?handleStandardClosure@Dialog@nmui@@IAEXH@Z  (0004BBD0)
               3896  F37   ?hasButton@MenuItem@nmui@@QBE_NXZ  (00066110)
               3897  F38   ?hasCellColour@NMColumnItemAttr@nmui@@QBE_NXZ  (0000C570)
               3898  F39   ?hasChildren@FileResourceManager@nmui@@QBE_NI@Z  (00018C60)
               3899  F3A   ?hasChildren@ResourceManagerThreadHelper@nmui@@UAE_NABVwxString@@W4ResourceTypeId@2@@Z  (00016A60)
               3900  F3B   ?hasComments@AutoCompleteDictionary@nmui@@IAE_NHH@Z  (00005970)
               3901  F3C   ?hasError@FileResourceManager@nmui@@QBE_NI@Z  (00018870)
               3902  F3D   ?hasFocus@NMSimpleTextCtrl@nmui@@QBE_NXZ  (0009D530)
               3903  F3E   ?hasHotKey@Menu@nmui@@QBE_NH@Z  (00067170)
               3904  F3F   ?hasHotKey@MenuItem@nmui@@QBE_NXZ  (00066060)
               3905  F40   ?hasLock@MonitorLocker@nmui@@QAE_NXZ  (00034230)
               3906  F41   ?hasNMStyle@Window@nmui@@QBE_NI@Z  (000A59F0)
               3907  F42   ?hasOutstandingTasks@TaskList@nmui@@QAE_NXZ  (0009BB40)
               3908  F43   ?hasParameters@AutoCompleteDictionary@nmui@@IAE_NHH@Z  (00005920)
               3909  F44   ?hasReturnType@AutoCompleteDictionary@nmui@@IAE_NHH@Z  (000059C0)
               3910  F45   ?hasSelectedText@NMSimpleTextCtrl@nmui@@QBE_NXZ  (0009D480)
               3911  F46   ?hasState@GuiNodeStateMachine@nmui@@QBE_NPAVGuiNodeState@2@@Z  (00023EE0)
               3912  F47   ?hasTextBackgroundColour@NMColumnItemAttr@nmui@@QBE_NXZ  (0000C4D0)
               3913  F48   ?hasTextColour@NMColumnItemAttr@nmui@@QBE_NXZ  (0000C430)
               3914  F49   ?hasTimer@FSMState@nmui@@QBE_NH@Z  (000215B0)
               3915  F4A   ?hide@Notebook@nmui@@UAE_NPAVwxWindow@@_N@Z  (00070490)
               3916  F4B   ?hideRenameControl@NMTextRenameCtrlOwner@nmui@@QAEXXZ  (0009E030)
               3917  F4C   ?hideRoot@TreeControl@nmui@@QAEX_N@Z  (000B0FE0)
               3918  F4D   ?highlight@NMRollupHeading@nmui@@QAEX_N@Z  (00081480)
               3919  F4E   ?highlightAtPosition@NMComboBoxListCtrl@nmui@@IAEXABVwxPoint@@@Z  (000478B0)
               3920  F4F   ?highlightBottomBorder@NMRollupSection@nmui@@IAEXXZ  (00082D20)
               3921  F50   ?highlightBraces@TextControl@nmui@@QAEX_N@Z  (000AD290)
               3922  F51   ?highlightButton@PopupMenu@nmui@@QAEXPAVMenuItem@2@@Z  (00079500)
               3923  F52   ?highlightCell@NMListControl@nmui@@QAEXPAVNMListItem_@2@H_N@Z  (0005E8D0)
               3924  F53   ?highlightCell@NMListItem_@nmui@@QAEXH_N@Z  (0005E0A0)
               3925  F54   ?highlightCurrentFocusItem@TreeControl@nmui@@IAEXAAVwxDC@@HHH@Z  (000B3100)
               3926  F55   ?highlightCurrentSelectionSet@TreeControl@nmui@@IAEXAAVwxDC@@HHH@Z  (000BA630)
               3927  F56   ?highlightFirstItem@NMComboBoxListCtrl@nmui@@IAEXXZ  (000478E0)
               3928  F57   ?highlightHeading@NMRollupSection@nmui@@IAEXXZ  (00082D80)
               3929  F58   ?highlightItem@MenuBar@nmui@@QAEXPAVMenuItem@2@@Z  (00068E60)
               3930  F59   ?highlightItem@PopupMenu@nmui@@QAEXPAVMenuItem@2@@Z  (0007BBC0)
               3931  F5A   ?highlightItemsInClientRect@NMListControl@nmui@@QAEXHABVwxRect@@_N@Z  (000617A0)
               3932  F5B   ?highlightItemsInRect@DragSelectState@NMListControlStates@nmui@@IAEXABVwxRect@@ABVwxPoint@@_N@Z  (00064AF0)
               3933  F5C   ?highlightItemsInRect@DragSelectState@NMListControlStates@nmui@@IAEXABVwxRect@@_N@Z  (00064AD0)
               3934  F5D   ?highlightLastItem@NMComboBoxListCtrl@nmui@@IAEXXZ  (00047990)
               3935  F5E   ?highlightNextItem@NMComboBoxListCtrl@nmui@@IAEXXZ  (00047940)
               3936  F5F   ?highlightPageDownItem@NMComboBoxListCtrl@nmui@@IAEXXZ  (00047A60)
               3937  F60   ?highlightPageUpItem@NMComboBoxListCtrl@nmui@@IAEXXZ  (000479E0)
               3938  F61   ?highlightPreviousItem@NMComboBoxListCtrl@nmui@@IAEXXZ  (00047910)
               3939  F62   ?highlightTopBorder@NMRollupSection@nmui@@IAEXXZ  (00082D50)
               3940  F63   ?hitTabCloseButton@Notebook@nmui@@IBE_NVwxPoint@@PAVwxWindow@@@Z  (0006EAF0)
               3941  F64   ?hitTest@MenuBar@nmui@@QBEPAVMenuItem@2@VwxPoint@@@Z  (00069FA0)
               3942  F65   ?hitTest@Notebook@nmui@@QBE?AW4HitLocation@12@VwxPoint@@PAPAVwxWindow@@@Z  (0006D020)
               3943  F66   ?hitTest@TreeItem@nmui@@QBE_NABVwxPoint@@PAH@Z  (000B8460)
               3944  F67   ?hitTestCheckBox@NMListControl@nmui@@QAEHPAVNMListItem_@2@VwxPoint@@@Z  (0005EE40)
               3945  F68   ?hitTestCheckBox@TreeControl@nmui@@QBEHPAVTreeItem@2@ABVwxPoint@@@Z  (000B5620)
               3946  F69   ?hitTestColourSwatch@TreeControl@nmui@@QBEHPAVTreeItem@2@ABVwxPoint@@@Z  (000B81C0)
               3947  F6A   ?hitTestDropDownList@NMComboBoxListCtrl@nmui@@IBE_NABVwxPoint@@@Z  (00047B00)
               3948  F6B   ?hitTestFastScrollDownZone@NMComboBoxListCtrl@nmui@@IBE_NABVwxPoint@@@Z  (00046380)
               3949  F6C   ?hitTestFastScrollUpZone@NMComboBoxListCtrl@nmui@@IBE_NABVwxPoint@@@Z  (00046320)
               3950  F6D   ?hitTestMenuButton@PopupMenu@nmui@@QBEPAVMenuItem@2@VwxPoint@@@Z  (00079BF0)
               3951  F6E   ?hitTestMenuItem@PopupMenu@nmui@@QBEPAVMenuItem@2@VwxPoint@@@Z  (00079B20)
               3952  F6F   ?hitTestNavArrow@Notebook@nmui@@IBE?AW4NavArrow@12@VwxPoint@@@Z  (0006B5F0)
               3953  F70   ?hitTestScrollDownZone@NMComboBoxListCtrl@nmui@@IBE_NABVwxPoint@@@Z  (00046330)
               3954  F71   ?hitTestScrollUpZone@NMComboBoxListCtrl@nmui@@IBE_NABVwxPoint@@@Z  (00046300)
               3955  F72   ?hitTestScrollbar@NMComboBoxListCtrl@nmui@@IBE_NABVwxPoint@@@Z  (00046160)
               3956  F73   ?hitTestScrollbarBottomButton@NMComboBoxListCtrl@nmui@@IBE_NABVwxPoint@@@Z  (00046270)
               3957  F74   ?hitTestScrollbarBottomZone@NMComboBoxListCtrl@nmui@@IBE_NABVwxPoint@@@Z  (00048570)
               3958  F75   ?hitTestScrollbarThumb@NMComboBoxListCtrl@nmui@@IBE_NABVwxPoint@@@Z  (00047B70)
               3959  F76   ?hitTestScrollbarTopButton@NMComboBoxListCtrl@nmui@@IBE_NABVwxPoint@@@Z  (000461F0)
               3960  F77   ?hitTestScrollbarTopZone@NMComboBoxListCtrl@nmui@@IBE_NABVwxPoint@@@Z  (00048500)
               3961  F78   ?hitTestSwatch@NMListControl@nmui@@QAEHPAVNMListItem_@2@VwxPoint@@@Z  (0005EEF0)
               3962  F79   ?iconView16@Icons@nmui@@3PAPBDA  (001C9410)
               3963  F7A   ?incrementInsertionPoint@NMSimpleTextCtrl@nmui@@QAEXXZ  (0009F9E0)
               3964  F7B   ?indexFromID@NMRadioBox@nmui@@IBEHH@Z  (0007F910)
               3965  F7C   ?init@CellRenderer@nmui@@IAEXXZ  (0003BA90)
               3966  F7D   ?init@CheckBox@nmui@@IAEXXZ  (0003BE80)
               3967  F7E   ?init@Dialog@nmui@@IAEXXZ  (0004BBB0)
               3968  F7F   ?init@Frame@nmui@@IAEXXZ  (0000A8C0)
               3969  F80   ?init@GUIServices@nmui@@IAEXXZ  (000309F0)
               3970  F81   ?init@GuiNodeWindow@nmui@@AAEXXZ  (000258A0)
               3971  F82   ?init@Menu@nmui@@AAEXH@Z  (00066E80)
               3972  F83   ?init@MenuBar@nmui@@IAEXXZ  (000692A0)
               3973  F84   ?init@MenuItem@nmui@@AAEXXZ  (00065EC0)
               3974  F85   ?init@NMBusyBar@nmui@@IAEXXZ  (00038570)
               3975  F86   ?init@NMColourSwatch@nmui@@IAEXXZ  (0003FA30)
               3976  F87   ?init@NMColumnWindow@nmui@@IAEXXZ  (00042C20)
               3977  F88   ?init@NMComboBox@nmui@@IAEXXZ  (00049D70)
               3978  F89   ?init@NMFastBufferedDC@nmui@@AAEXXZ  (00050000)
               3979  F8A   ?init@NMFloatSpinner@nmui@@IAEXMM@Z  (00053CC0)
               3980  F8B   ?init@NMIntSpinner@nmui@@IAEXHH@Z  (000593A0)
               3981  F8C   ?init@NMListControl@nmui@@IAEXH@Z  (0005AE60)
               3982  F8D   ?init@NMProfilerMinMaxPeakStrategy@nmui@@UAEXPAVNMProfilerWindow@2@PAPAVTreeItem@2@@Z  (0007D850)
               3983  F8E   ?init@NMProgressBar@nmui@@IAEXI@Z  (0007E770)
               3984  F8F   ?init@NMRadioBox@nmui@@IAEXXZ  (0007F8A0)
               3985  F90   ?init@NMRollupContainer@nmui@@IAEXXZ  (00083FF0)
               3986  F91   ?init@NMRollupHeading@nmui@@AAEXXZ  (00080CE0)
               3987  F92   ?init@NMRollupSection@nmui@@IAEXXZ  (00082A30)
               3988  F93   ?init@NMScriptControl@nmui@@IAEXXZ  (00086610)
               3989  F94   ?init@NMScrollBar@nmui@@IAEXXZ  (00087780)
               3990  F95   ?init@NMScrollWindow@nmui@@IAEXXZ  (0008A290)
               3991  F96   ?init@NMSimpleTextCtrl@nmui@@IAEXXZ  (0009D1E0)
               3992  F97   ?init@NMStaticText@nmui@@IAEXXZ  (00098610)
               3993  F98   ?init@NMToolBar@nmui@@QAEXXZ  (000A3910)
               3994  F99   ?init@NavigatorGroup@nmui@@AAEXPAVTreeItem@2@PAVNavigatorTree@2@@Z  (00034E30)
               3995  F9A   ?init@NavigatorTree@nmui@@AAEXXZ  (000371A0)
               3996  F9B   ?init@Panel@nmui@@IAEXXZ  (000A5120)
               3997  F9C   ?init@PopupMenu@nmui@@IAEXXZ  (000793B0)
               3998  F9D   ?init@Slider@nmui@@IAEXXZ  (00091FF0)
               3999  F9E   ?init@SpinButton@nmui@@IAEXXZ  (00092D40)
               4000  F9F   ?init@TextControl@nmui@@IAEXXZ  (000AEE30)
               4001  FA0   ?init@TreeControl@nmui@@IAEXXZ  (000B8A40)
               4002  FA1   ?init@Window@nmui@@IAEXXZ  (000A4CC0)
               4003  FA2   ?initAccelerators@Menu@nmui@@QAEXAAV?$vector@VwxAcceleratorEntry@@V?$allocator@VwxAcceleratorEntry@@@std@@@std@@@Z  (00067E00)
               4004  FA3   ?initAccelerators@MenuBar@nmui@@QAEXAAV?$vector@VwxAcceleratorEntry@@V?$allocator@VwxAcceleratorEntry@@@std@@@std@@@Z  (00068F80)
               4005  FA4   ?initBitmaps@GUIServices@nmui@@IAEXXZ  (00029CD0)
               4006  FA5   ?initBrushes@GUIServices@nmui@@IAEXXZ  (00028B80)
               4007  FA6   ?initDragDropEvent@TreeControl@nmui@@IAE_NAAVTreeEvent@2@PAVTreeItem@2@ABVwxPoint@@_N3@Z  (000BA550)
               4008  FA7   ?initDragEvent@DragState@NMListControlStates@nmui@@IAEXAAVNMListEvent@3@VwxPoint@@H@Z  (00064390)
               4009  FA8   ?initDragSelectEvent@DragSelectState@NMListControlStates@nmui@@IAEXPAVNMListControl@3@PAVNMListItem_@3@AAVNMListEvent@3@VwxPoint@@H@Z  (00064A50)
               4010  FA9   ?initFonts@GUIServices@nmui@@IAEXXZ  (0002EF70)
               4011  FAA   ?initGLObjects@RawGLCanvas@nmui@@UAEXXZ  (0000A8C0)
               4012  FAB   ?initGuiNodeWindowBase@GuiNodeWindowBase@nmui@@QAEXXZ  (00026830)
               4013  FAC   ?initHighlightIndex@NMComboBoxListCtrl@nmui@@IAEXXZ  (00049890)
               4014  FAD   ?initIndentation@NMCppTextControl@nmui@@MAEXXZ  (0004B590)
               4015  FAE   ?initIndentation@NMScriptControl@nmui@@MAEXXZ  (000868A0)
               4016  FAF   ?initIndentation@TextControl@nmui@@MAEXXZ  (0004B590)
               4017  FB0   ?initLayout@NMComboBox@nmui@@IAEXXZ  (000469C0)
               4018  FB1   ?initLexer@NMCppTextControl@nmui@@MAEXXZ  (0004B4D0)
               4019  FB2   ?initLexer@NMScriptControl@nmui@@MAEXXZ  (00087620)
               4020  FB3   ?initLexer@TextControl@nmui@@MAEXXZ  (0000A8C0)
               4021  FB4   ?initListControl@NMCheckListDialog@nmui@@IAEXXZ  (0003CE80)
               4022  FB5   ?initPens@GUIServices@nmui@@IAEXXZ  (0002E4B0)
               4023  FB6   ?initStyle@TextControl@nmui@@MAEXXZ  (000AC7A0)
               4024  FB7   ?initTextStyles@TextControl@nmui@@MAEXXZ  (000AC7C0)
               4025  FB8   ?initTimer@FSMState@nmui@@QAEHAAVwxTimer@@@Z  (00022000)
               4026  FB9   ?initialize@NMPalette@nmui@@QAEXXZ  (00072C90)
               4027  FBA   ?insert@NMSimpleTextCtrl@nmui@@QAEXABVwxString@@H@Z  (0009E650)
               4028  FBB   ?insertCell@NMListItem_@nmui@@QAEXI@Z  (00060000)
               4029  FBC   ?insertCell@TreeItem@nmui@@QAEXI@Z  (000BBC10)
               4030  FBD   ?insertColumn@NMColumnWindow@nmui@@UAEXIABVwxString@@_N@Z  (000452E0)
               4031  FBE   ?insertColumn@NMListControl@nmui@@UAEXIABVwxString@@_N@Z  (000605B0)
               4032  FBF   ?insertColumn@TreeControl@nmui@@UAEXIABVwxString@@_N@Z  (000BBE10)
               4033  FC0   ?insertItem@NMListControl@nmui@@QAEPAVNMListItem_@2@PAV32@ABVwxString@@_N@Z  (00062260)
               4034  FC1   ?insertItemAtIndex@NMListControl@nmui@@QAEPAVNMListItem_@2@HABVwxString@@_N@Z  (00062410)
               4035  FC2   ?insertString@NMComboBox@nmui@@QAE_NABVwxString@@HPAXHHW4EntryType@StringData@2@@Z  (0004B270)
               4036  FC3   ?intersectTest@TreeItem@nmui@@QBE_NABVwxRect@@@Z  (000B2D70)
               4037  FC4   ?isActive@BaseState@nmui@@QBE_NXZ  (00013520)
               4038  FC5   ?isActive@StateManager@nmui@@ABE_NPBVBaseState@2@@Z  (000133B0)
               4039  FC6   ?isAlpha@nmui@@YA_NABVwxString@@@Z  (000029C0)
               4040  FC7   ?isAlphaNumeric@nmui@@YA_NABVwxString@@@Z  (00002AB0)
               4041  FC8   ?isAutoCompleteEnabled@TextControl@nmui@@QAE_NXZ  (000AD240)
               4042  FC9   ?isAutoCompleteSpecialCharacter@AutoCompleteDictionary@nmui@@UAE_N_W@Z  (00005370)
               4043  FCA   ?isAutoCompleteStartCharacter@AutoCompleteDictionary@nmui@@UAE_N_W@Z  (00005270)
               4044  FCB   ?isAutoCompleteStartCharacter@TextControl@nmui@@IAE_N_W@Z  (000AD380)
               4045  FCC   ?isAutoCompleteStyle@TextControl@nmui@@IAE_NH@Z  (000AED80)
               4046  FCD   ?isAutoCompleteWildcard@AutoCompleteDictionary@nmui@@UAE_N_W@Z  (000053F0)
               4047  FCE   ?isAutoCompleteWordCharacter@AutoCompleteDictionary@nmui@@UAE_N_W@Z  (000052F0)
               4048  FCF   ?isAutoCompleteWordCharacter@TextControl@nmui@@IAE_N_W@Z  (000AD490)
               4049  FD0   ?isAutoIndentEnabled@TextControl@nmui@@QAE_NXZ  (000AD2C0)
               4050  FD1   ?isBackgroundCleared@GuiNodeWindow@nmui@@UBE_NXZ  (00025890)
               4051  FD2   ?isBold@NMColumnItemAttr@nmui@@QBE_NXZ  (0000C5A0)
               4052  FD3   ?isBraceHighlightingEnabled@TextControl@nmui@@QAE_NXZ  (000AD2A0)
               4053  FD4   ?isCallTipShownOnDwell@TextControl@nmui@@QAE_NXZ  (000AD280)
               4054  FD5   ?isCaretShown@NMSimpleTextCtrl@nmui@@QBE_NXZ  (00009830)
               4055  FD6   ?isChecked@Button@nmui@@QBE_NXZ  (00038980)
               4056  FD7   ?isChecked@CheckBox@nmui@@UBE_NXZ  (0003BF00)
               4057  FD8   ?isChecked@CheckBoxEvent@nmui@@QBE_NXZ  (0003C150)
               4058  FD9   ?isChecked@Menu@nmui@@QBE_NH@Z  (00067220)
               4059  FDA   ?isChecked@MenuItem@nmui@@QBE_NXZ  (000667B0)
               4060  FDB   ?isChecked@NMToolBar@nmui@@QAE_NH@Z  (000A3360)
               4061  FDC   ?isChecked@NMToolPanel@nmui@@QAE_NH@Z  (000A3720)
               4062  FDD   ?isCheckedItem@MenuItem@nmui@@QBE_NXZ  (00066310)
               4063  FDE   ?isCheckedNoAutoToggleItem@MenuItem@nmui@@QBE_NXZ  (00066330)
               4064  FDF   ?isCloseBrace@AutoCompleteDictionary@nmui@@UAE_N_W@Z  (00005250)
               4065  FE0   ?isCloseBrace@TextControl@nmui@@IAE_N_W@Z  (000AD350)
               4066  FE1   ?isCollapsableSplitter@NMSplitter@nmui@@QBE_NXZ  (00093C20)
               4067  FE2   ?isCollapsed@NMSplitter@nmui@@QBE_NXZ  (00027F10)
               4068  FE3   ?isCollapsed@NMSplitterEvent@nmui@@QBE_NXZ  (000940B0)
               4069  FE4   ?isCollapsed@Notebook@nmui@@QBE_NXZ  (0006B220)
               4070  FE5   ?isColumnHeaderShown@NMColumnWindow@nmui@@UBE_NXZ  (00042640)
               4071  FE6   ?isColumnShown@NMColumnWindow@nmui@@UBE_NI@Z  (00044220)
               4072  FE7   ?isContextMenuEnabled@NMSplitter@nmui@@QBE_NXZ  (00027F50)
               4073  FE8   ?isCurrentFrameMarkerEnabled@NMSimpleGraph@nmui@@QBE_NXZ  (0008BBE0)
               4074  FE9   ?isDebugModeEnabled@FiniteStateMachine@nmui@@SA_NXZ  (00007490)
               4075  FEA   ?isDebugModeEnabled@StateManager@nmui@@SA_NXZ  (00010DB0)
               4076  FEB   ?isDescendantOf@Window@nmui@@QBE_NPAVwxWindow@@@Z  (000A4F50)
               4077  FEC   ?isDescendedFrom@nmui@@YA_NPAVwxWindow@@0@Z  (000A4F10)
               4078  FED   ?isDescendentOf@FileResourceManager@nmui@@ABE_NPBVItemInfo@2@ABV?$hashmap_dense_dynamic@I_N@nmtl@@@Z  (00017A80)
               4079  FEE   ?isDescendentOf@FileResourceManager@nmui@@ABE_NPBVItemInfo@2@I@Z  (000169C0)
               4080  FEF   ?isDescendentOf@FileResourceManager@nmui@@QBE_NIABV?$hashmap_dense_dynamic@I_N@nmtl@@@Z  (00018A40)
               4081  FF0   ?isDescendentOf@FileResourceManager@nmui@@QBE_NII@Z  (000188D0)
               4082  FF1   ?isDraggingEnabled@NMSplitter@nmui@@QBE_NXZ  (00027F30)
               4083  FF2   ?isEditable@NMComboBox@nmui@@QBE_NXZ  (00046B40)
               4084  FF3   ?isEditable@NMSimpleTextCtrl@nmui@@QBE_NXZ  (00009810)
               4085  FF4   ?isEditingUsingKeyboard@NMSimpleTextCtrl@nmui@@UBE_NXZ  (0009D530)
               4086  FF5   ?isEditingUsingKeyboard@Window@nmui@@UBE_NXZ  (00028160)
               4087  FF6   ?isEnabled@Menu@nmui@@QBE_NH@Z  (000671C0)
               4088  FF7   ?isEnabled@MenuItem@nmui@@QBE_NXZ  (00066090)
               4089  FF8   ?isEnabled@NMListItem_@nmui@@QBE_NXZ  (00027C80)
               4090  FF9   ?isEnabled@NMToolBar@nmui@@QAE_NH@Z  (000A3290)
               4091  FFA   ?isEnabled@NMToolPanel@nmui@@QAE_NH@Z  (000A36A0)
               4092  FFB   ?isEnabled@Window@nmui@@UBE_NXZ  (000095D0)
               4093  FFC   ?isEventDisabled@wxEventDisabler@nmui@@QBE_NH@Z  (000041B0)
               4094  FFD   ?isExpanded@NMRollupHeadingEvent@nmui@@QBE_NXZ  (0000C5A0)
               4095  FFE   ?isExpanded@NMRollupSection@nmui@@QBE_NXZ  (00082BF0)
               4096  FFF   ?isFirstChild@FileResourceManager@nmui@@QBE_NI@Z  (0001F670)
               4097 1000   ?isFlagSet@NMListItem_@nmui@@IBE_NF@Z  (00059D70)
               4098 1001   ?isFloating@Notebook@nmui@@QBE_NPAVwxWindow@@@Z  (0006D5E0)
               4099 1002   ?isFloatingWindowMaximized@Notebook@nmui@@QBE_NPAVwxWindow@@@Z  (0006D600)
               4100 1003   ?isFoldingEnabled@TextControl@nmui@@QAE_NXZ  (000ACF60)
               4101 1004   ?isHidden@Notebook@nmui@@UBE_NPAVwxWindow@@@Z  (0006E860)
               4102 1005   ?isHiddenRoot@TreeItem@nmui@@QBE_NXZ  (000B1260)
               4103 1006   ?isHighlighted@NMRollupHeading@nmui@@QAE_NXZ  (000814B0)
               4104 1007   ?isInOverTypeMode@NMSimpleTextCtrl@nmui@@QBE_NXZ  (00009820)
               4105 1008   ?isIndeterminate@Window@nmui@@QBE_NXZ  (000095A0)
               4106 1009   ?isItemAbove@NMListControl@nmui@@QBE_NPAVNMListItem_@2@0@Z  (0005BF10)
               4107 100A   ?isItemChecked@NMListControl@nmui@@QBE_NPAVNMListItem_@2@H@Z  (0005A110)
               4108 100B   ?isItemChecked@TreeControl@nmui@@QBE_NPAVTreeItem@2@H@Z  (000B1110)
               4109 100C   ?isItemCheckedByIndex@NMListControl@nmui@@QBE_NHH@Z  (0005D180)
               4110 100D   ?isItemEnabled@NMListControl@nmui@@QBE_NPAVNMListItem_@2@@Z  (0005AF60)
               4111 100E   ?isItemReadOnly@NMListControl@nmui@@QAE_NPAVNMListItem_@2@@Z  (0005B5A0)
               4112 100F   ?isItemRightAligned@NMListControl@nmui@@QBE_NPAVNMListItem_@2@H@Z  (0005B230)
               4113 1010   ?isItemSelected@NMIconBar@nmui@@QBE_NPAVNMIconBarItem_@2@@Z  (000554E0)
               4114 1011   ?isItemSelected@NMIconBarSlots@nmui@@QBE_NPAVNMIconBarItem_@2@@Z  (000554E0)
               4115 1012   ?isItemSelected@NMListControl@nmui@@QBE_NPAVNMListItem_@2@@Z  (0005B1C0)
               4116 1013   ?isItemVisibleInViewport@NMListControl@nmui@@QAE_NPAVNMListItem_@2@@Z  (0005B540)
               4117 1014   ?isItemWindowShown@TreeControl@nmui@@QBE_NPAVTreeItem@2@H@Z  (000B11F0)
               4118 1015   ?isLastChild@FileResourceManager@nmui@@QBE_NI@Z  (0001F6E0)
               4119 1016   ?isLeaf@ResourceManagerThreadHelper@nmui@@UAE_NABVwxString@@W4ResourceTypeId@2@@Z  (00016A90)
               4120 1017   ?isLineWrappingEnabled@TextControl@nmui@@QAE_NXZ  (000ACDD0)
               4121 1018   ?isLinear@NMExpFloatRange@nmui@@QBE_NXZ  (0004E460)
               4122 1019   ?isLoadingResources@FileResourceManager@nmui@@QBE_NXZ  (00017850)
               4123 101A   ?isLockingToBestSize@NMSplitter@nmui@@QBE_NXZ  (00027F00)
               4124 101B   ?isMarkColumnSelected@MenuItem@nmui@@QBE_NXZ  (000660B0)
               4125 101C   ?isMaskPixel@GUIServices@nmui@@IAE_NABVwxImage@@HH@Z  (0002C3A0)
               4126 101D   ?isMissing@FileResourceManager@nmui@@QBE_NI@Z  (0001A690)
               4127 101E   ?isModal@MenuItem@nmui@@QBE_NXZ  (000662C0)
               4128 101F   ?isModified@NMFrameRateControl@nmui@@QBE_NXZ  (000544F0)
               4129 1020   ?isModified@NMSimpleTextCtrl@nmui@@QBE_NXZ  (0009D420)
               4130 1021   ?isMouseOver@PopupPanel@nmui@@IBE_NVwxPoint@@_N@Z  (0007C390)
               4131 1022   ?isNavigatorItemTypeRegistered@NavigatorTree@nmui@@QBE_NABVwxString@@@Z  (000360B0)
               4132 1023   ?isNormalItem@MenuItem@nmui@@QBE_NXZ  (00066300)
               4133 1024   ?isNumeric@nmui@@YA_NABVwxString@@@Z  (00002A10)
               4134 1025   ?isOpenBrace@AutoCompleteDictionary@nmui@@UAE_N_W@Z  (00005230)
               4135 1026   ?isOpenBrace@TextControl@nmui@@IAE_N_W@Z  (000AD320)
               4136 1027   ?isPathValid@nmui@@YA_NABVwxString@@@Z  (00003B70)
               4137 1028   ?isPointInHeader@NMRollupHeading@nmui@@QAE_NAAVwxPoint@@AAM@Z  (00080E00)
               4138 1029   ?isPointInHeader@NMRollupSection@nmui@@IAE_NAAVwxPoint@@AAM@Z  (00082D90)
               4139 102A   ?isProfilingEnabled@NMListControl@nmui@@SA_NXZ  (00027C00)
               4140 102B   ?isRadioItem@MenuItem@nmui@@QBE_NXZ  (00066340)
               4141 102C   ?isReadOnly@NMListItem_@nmui@@QBE_NXZ  (00027CA0)
               4142 102D   ?isReadOnly@NMSimpleTextCtrl@nmui@@QBE_NXZ  (0009D450)
               4143 102E   ?isRenameControlShown@NMTextRenameCtrlOwner@nmui@@QBE_NXZ  (0009E0D0)
               4144 102F   ?isRightAligned@NMListItem_@nmui@@QBE_NH@Z  (0002E470)
               4145 1030   ?isRootDirectory@FileResourceManager@nmui@@QBE_NI@Z  (00018B80)
               4146 1031   ?isRunning@DirectoryWatchBase@nmui@@QBE_NXZ  (0000AA80)
               4147 1032   ?isRunning@StateManager@nmui@@QBE_NXZ  (00099B30)
               4148 1033   ?isScrollbarVisible@NMComboBoxListCtrl@nmui@@QBE_NXZ  (00047330)
               4149 1034   ?isSelected@NMListItem_@nmui@@QBE_NXZ  (00027C60)
               4150 1035   ?isSelected@SelectionBorder@nmui@@QBE_NXZ  (00034230)
               4151 1036   ?isSelectedItem@NMPalette@nmui@@QAE_NPAVNMPaletteItem@2@@Z  (000733F0)
               4152 1037   ?isSelectionDelimiter@NMSimpleTextCtrl@nmui@@QBE_N_W@Z  (0009D550)
               4153 1038   ?isSeparator@MenuItem@nmui@@QBE_NXZ  (000662D0)
               4154 1039   ?isSeperatorChar@ResourceManagerThreadHelper@nmui@@SA_N_W@Z  (00016B00)
               4155 103A   ?isShown@MenuItem@nmui@@QBE_NXZ  (000660E0)
               4156 103B   ?isShown@Notebook@nmui@@QBE_NPAVwxWindow@@@Z  (0006B4D0)
               4157 103C   ?isSolidPixel@GUIServices@nmui@@IAE_NABVwxImage@@HH@Z  (0002C440)
               4158 103D   ?isSorted@NMComboBox@nmui@@QBE_NXZ  (00046B70)
               4159 103E   ?isSplit@NMSplitter@nmui@@QBE_NXZ  (00027F60)
               4160 103F   ?isStrInDelimitedStr@nmui@@YA_NPB_W0_W@Z  (000028A0)
               4161 1040   ?isSubMenu@MenuItem@nmui@@QBE_NXZ  (00066350)
               4162 1041   ?isSubStateOf@BaseState@nmui@@QBE_NPBV12@@Z  (00010A10)
               4163 1042   ?isSubTitle@MenuItem@nmui@@QBE_NXZ  (000662F0)
               4164 1043   ?isTaskComplete@TaskListItem@nmui@@UBE_NXZ  (00099B30)
               4165 1044   ?isTitle@MenuItem@nmui@@QBE_NXZ  (000662E0)
               4166 1045   ?isUsed@FileResourceManager@nmui@@QBE_NI@Z  (0001A6E0)
               4167 1046   ?isValidIndex@NMIconBarSlots@nmui@@QBE_NH@Z  (00055BE0)
               4168 1047   ?isValidIndex@NMListControl@nmui@@QBE_NI@Z  (0005B4E0)
               4169 1048   ?isValidIndex@NMListItem_@nmui@@QBE_NH@Z  (0005AA80)
               4170 1049   ?isValidIndex@TreeItem@nmui@@QBE_NH@Z  (000B2DC0)
               4171 104A   ?isValueMarkerEnabled@NMSimpleGraph@nmui@@QBE_NXZ  (0008BC40)
               4172 104B   ?isVisible@GuiNode@nmui@@QBE_NXZ  (00022560)
               4173 104C   ?isVisible@GuiNodeData@nmui@@UBE_NXZ  (00025890)
               4174 104D   ?isVisible@NMPaletteItem@nmui@@QBE_NXZ  (000940B0)
               4175 104E   ?isWatching@DirectoryWatchBase@nmui@@QBE_NABV?$basic_string@_WU?$char_traits@_W@std@@V?$allocator@_W@2@@std@@@Z  (0000AA90)
               4176 104F   ?isWhitespaceShown@TextControl@nmui@@QAE_NXZ  (000ACE50)
               4177 1050   ?isWidgetPoppedUp@NMListControl@nmui@@QBE_NXZ  (0005A2D0)
               4178 1051   ?isWidgetPoppedUp@TreeControl@nmui@@QBE_NXZ  (000B1060)
               4179 1052   ?isWindowCollapsed@NMSplitter@nmui@@QBE_NPAVwxWindow@@@Z  (00093B50)
               4180 1053   ?itemHitTest@NMListControl@nmui@@QBEPAVNMListItem_@2@ABVwxPoint@@PAH@Z  (0005D690)
               4181 1054   ?itemHitTest@TreeControl@nmui@@QBEPAVTreeItem@2@ABVwxPoint@@PAH@Z  (000B8D70)
               4182 1055   ?kItemIndent@NavigatorTree@nmui@@2HB  (00112368)
               4183 1056   ?layoutCustomView@NMPalette@nmui@@QAEXXZ  (00075530)
               4184 1057   ?layoutDetailsView@NMPalette@nmui@@QAEXXZ  (00076080)
               4185 1058   ?layoutIconView@NMPalette@nmui@@QAEXXZ  (00075A40)
               4186 1059   ?layoutListView@NMPalette@nmui@@QAEXXZ  (00075D30)
               4187 105A   ?layoutParentsRecursively@nmui@@YAXPAVwxWindow@@@Z  (00003290)
               4188 105B   ?layoutRecursively@nmui@@YAXPAVwxWindow@@@Z  (00003220)
               4189 105C   ?layoutThumbnailView@NMPalette@nmui@@QAEXXZ  (000757F0)
               4190 105D   ?lineNumbersEnabled@TextControl@nmui@@QAE_NXZ  (000ACF30)
               4191 105E   ?listAncestors@FileResourceManager@nmui@@ABEIPBVItemInfo@2@PAV?$vector@I@nmtl@@@Z  (0001C6D0)
               4192 105F   ?listAncestors@FileResourceManager@nmui@@QBEIIPAV?$vector@I@nmtl@@@Z  (0001E7F0)
               4193 1060   ?listChildren@FileResourceManager@nmui@@ABEIPBVItemInfo@2@PAV?$vector@I@nmtl@@@Z  (0001C670)
               4194 1061   ?listChildren@FileResourceManager@nmui@@QBEIIPAV?$vector@I@nmtl@@@Z  (0001E750)
               4195 1062   ?listDescendents@FileResourceManager@nmui@@ABEIPBVItemInfo@2@W4ResourceTypeId@2@PAV?$hashmap_dense_dynamic@I_N@nmtl@@@Z  (00019320)
               4196 1063   ?listDescendents@FileResourceManager@nmui@@QBEIABV?$hashmap_dense_dynamic@I_N@nmtl@@W4ResourceTypeId@2@PAV34@@Z  (0001ABC0)
               4197 1064   ?listDescendents@FileResourceManager@nmui@@QBEIIW4ResourceTypeId@2@PAV?$hashmap_dense_dynamic@I_N@nmtl@@@Z  (0001AB70)
               4198 1065   ?listDescendents@FileResourceManager@nmui@@QBEIIW4ResourceTypeId@2@PAV?$vector@I@nmtl@@@Z  (0001EC70)
               4199 1066   ?listDescendentsOnly@FileResourceManager@nmui@@ABEIPBVItemInfo@2@W4ResourceTypeId@2@PAV?$vector@I@nmtl@@@Z  (0001C720)
               4200 1067   ?listDescendentsWithErrors@FileResourceManager@nmui@@ABEIPBVItemInfo@2@PAV?$hashmap_dense_dynamic@I_N@nmtl@@@Z  (000193A0)
               4201 1068   ?listDescendentsWithErrors@FileResourceManager@nmui@@QBEIIPAV?$hashmap_dense_dynamic@I_N@nmtl@@@Z  (0001AB20)
               4202 1069   ?listItemAsDirty@ResourceChangeContext@nmui@@QAEXPAVItemInfo@2@@Z  (000194F0)
               4203 106A   ?listItemAsFileDeleted@ResourceChangeContext@nmui@@QAEXPAVItemInfo@2@@Z  (00019590)
               4204 106B   ?listItemAsModified@ResourceChangeContext@nmui@@QAEXPAVItemInfo@2@@Z  (00019640)
               4205 106C   ?listParents@FileResourceManager@nmui@@QBEXABV?$hashmap_dense_dynamic@I_N@nmtl@@PAV34@@Z  (00018EB0)
               4206 106D   ?listSiblings@FileResourceManager@nmui@@QBEIIPAV?$vector@I@nmtl@@@Z  (0001E7A0)
               4207 106E   ?listView16@Icons@nmui@@3PAPBDA  (001C93B8)
               4208 106F   ?load@AutoCompleteDictionary@nmui@@UAE_NAAV?$vector@PB_WV?$allocator@PB_W@std@@@std@@@Z  (00006D50)
               4209 1070   ?load@AutoCompleteDictionary@nmui@@UAE_NAAVwxString@@@Z  (00006A30)
               4210 1071   ?loadFile@TextControl@nmui@@QAEXAAVwxString@@@Z  (000AD0C0)
               4211 1072   ?loadFromConfig@FileHistory@nmui@@IAEXXZ  (000504B0)
               4212 1073   ?loadResources@NMSplitter@nmui@@AAEXXZ  (00093950)
               4213 1074   ?lock@nmuiMonitor@nmui@@MAE_NI@Z  (00034410)
               4214 1075   ?lock@win32Monitor@nmui@@MAE_NI@Z  (00034730)
               4215 1076   ?lockSplitterToWindowBestSize@NMSplitter@nmui@@IAEX_N@Z  (00096400)
               4216 1077   ?log@MessageBoxLogger@nmui@@UAEXW4Level@BasicLogger@NMutils@@ABV?$basic_string@_WU?$char_traits@_W@std@@V?$allocator@_W@2@@std@@@Z  (00033F50)
               4217 1078   ?logDebugError@GuiNodeManager@nmui@@SAXABVwxString@@@Z  (00022DF0)
               4218 1079   ?logicalToClient@NMScrollPanel@nmui@@QBE?AVwxPoint@@V3@@Z  (00089BD0)
               4219 107A   ?maintainIndentation@NMCppTextControl@nmui@@IAEXH@Z  (0004B600)
               4220 107B   ?maintainIndentation@TextControl@nmui@@IAEX_W@Z  (000AD610)
               4221 107C   ?makeAbsolute@nmui@@YA?AVwxString@@ABV2@0@Z  (00003140)
               4222 107D   ?makeCaptionAndMessage@MessageBoxLogger@nmui@@IAEXAAV?$basic_string@_WU?$char_traits@_W@std@@V?$allocator@_W@2@@std@@0@Z  (00033CA0)
               4223 107E   ?makeFirstInList@GuiNode@nmui@@QAEXXZ  (00024A30)
               4224 107F   ?makeHeader@NMRollupSection@nmui@@MAEPAVNMRollupHeading@2@HABVwxString@@ABVwxSize@@ABVNMStyle@2@@Z  (00082A70)
               4225 1080   ?makeLastInList@GuiNode@nmui@@QAEXXZ  (00024AB0)
               4226 1081   ?makeRelative@nmui@@YAXAAVwxString@@ABV2@@Z  (00003030)
               4227 1082   ?makeWxStyleFromNMStyle@Window@nmui@@SAHABVNMStyle@2@@Z  (000A5890)
               4228 1083   ?markAsCurrentPosition@NMSimpleGraph@nmui@@QAEXH@Z  (0008BF40)
               4229 1084   ?markAsModified@ResourceManagerThreadHelper@nmui@@UAE_NABVwxString@@W4ResourceTypeId@2@@Z  (00034AB0)
               4230 1085   ?maskStyleFlags@TreeItem@nmui@@QAEXH_N@Z  (000B1E30)
               4231 1086   ?matchItem@NMListControl@nmui@@QAEPAVNMListItem_@2@ABVwxString@@PAV32@H@Z  (0005D760)
               4232 1087   ?maximizeColumn@NMColumnWindow@nmui@@UAEXI@Z  (00043F70)
               4233 1088   ?measureTextClipped@GUIServices@nmui@@QAE?AVwxRect@@AAVwxDC@@ABVwxString@@ABV3@W4wxAlignment@@W4TextTruncation@12@@Z  (0002A5B0)
               4234 1089   ?modifyResources@FilteredResourceObserver@nmui@@IAEXABV?$hashmap_dense_dynamic@I_N@nmtl@@@Z  (00017400)
               4235 108A   ?mouseSelect@NMListControl@nmui@@QAEXPAVNMListItem_@2@_N1@Z  (00062BF0)
               4236 108B   ?move@Menu@nmui@@QAEXHH@Z  (00067BB0)
               4237 108C   ?moveInFrontOf@GuiNode@nmui@@QAEXPAV12@@Z  (00024AF0)
               4238 108D   ?moveInsertionPointToNextWord@NMSimpleTextCtrl@nmui@@QAEXHH@Z  (0009EED0)
               4239 108E   ?ms_classInfo@Button@nmui@@2VwxClassInfo@@A  (001C99C0)
               4240 108F   ?ms_classInfo@CheckBox@nmui@@2VwxClassInfo@@A  (001C99DC)
               4241 1090   ?ms_classInfo@Dialog@nmui@@2VwxClassInfo@@A  (001C9BB8)
               4242 1091   ?ms_classInfo@DirectoryControl@nmui@@2VwxClassInfo@@A  (001C9898)
               4243 1092   ?ms_classInfo@FilenameControl@nmui@@2VwxClassInfo@@A  (001C98E4)
               4244 1093   ?ms_classInfo@FullScreenFrame@nmui@@2VwxClassInfo@@A  (001C9DA4)
               4245 1094   ?ms_classInfo@MenuBar@nmui@@2VwxClassInfo@@A  (001C9D88)
               4246 1095   ?ms_classInfo@NMBusyBar@nmui@@2VwxClassInfo@@A  (001C99A8)
               4247 1096   ?ms_classInfo@NMColourLegend@nmui@@2VwxClassInfo@@A  (001C99F8)
               4248 1097   ?ms_classInfo@NMColourSwatch@nmui@@2VwxClassInfo@@A  (001C9A10)
               4249 1098   ?ms_classInfo@NMColumnWindow@nmui@@2VwxClassInfo@@A  (001C9A94)
               4250 1099   ?ms_classInfo@NMColumnWindowEvent@nmui@@2VwxClassInfo@@A  (001C9AAC)
               4251 109A   ?ms_classInfo@NMComboBox@nmui@@2VwxClassInfo@@A  (001C9B50)
               4252 109B   ?ms_classInfo@NMComboBoxButton@nmui@@2VwxClassInfo@@A  (001C9B08)
               4253 109C   ?ms_classInfo@NMComboBoxListCtrl@nmui@@2VwxClassInfo@@A  (001C9B38)
               4254 109D   ?ms_classInfo@NMComboBoxTextCtrl@nmui@@2VwxClassInfo@@A  (001C9B20)
               4255 109E   ?ms_classInfo@NMCppTextControl@nmui@@2VwxClassInfo@@A  (001C9B7C)
               4256 109F   ?ms_classInfo@NMExpFloatSlider@nmui@@2VwxClassInfo@@A  (001C9BE8)
               4257 10A0   ?ms_classInfo@NMFilterCtrl@nmui@@2VwxClassInfo@@A  (001C9C00)
               4258 10A1   ?ms_classInfo@NMFloatSlider@nmui@@2VwxClassInfo@@A  (001C9C1C)
               4259 10A2   ?ms_classInfo@NMFloatSpinner@nmui@@2VwxClassInfo@@A  (001C9C34)
               4260 10A3   ?ms_classInfo@NMFrameRateControl@nmui@@2VwxClassInfo@@A  (001C9C4C)
               4261 10A4   ?ms_classInfo@NMIconBar@nmui@@2VwxClassInfo@@A  (001C9C84)
               4262 10A5   ?ms_classInfo@NMIconBarEvent@nmui@@2VwxClassInfo@@A  (001C9CB4)
               4263 10A6   ?ms_classInfo@NMIconBarSlots@nmui@@2VwxClassInfo@@A  (001C9C9C)
               4264 10A7   ?ms_classInfo@NMIntSlider@nmui@@2VwxClassInfo@@A  (001C9CD4)
               4265 10A8   ?ms_classInfo@NMIntSpinner@nmui@@2VwxClassInfo@@A  (001C9CEC)
               4266 10A9   ?ms_classInfo@NMListControl@nmui@@2VwxClassInfo@@A  (001C9D0C)
               4267 10AA   ?ms_classInfo@NMListEvent@nmui@@2VwxClassInfo@@A  (001C9D24)
               4268 10AB   ?ms_classInfo@NMProgressBar@nmui@@2VwxClassInfo@@A  (001C9E60)
               4269 10AC   ?ms_classInfo@NMProgressDialog@nmui@@2VwxClassInfo@@A  (001C9E78)
               4270 10AD   ?ms_classInfo@NMRadioBox@nmui@@2VwxClassInfo@@A  (001C9E90)
               4271 10AE   ?ms_classInfo@NMRollupContainer@nmui@@2VwxClassInfo@@A  (001C9EFC)
               4272 10AF   ?ms_classInfo@NMRollupHeading@nmui@@2VwxClassInfo@@A  (001C9EA8)
               4273 10B0   ?ms_classInfo@NMRollupSection@nmui@@2VwxClassInfo@@A  (001C9EE4)
               4274 10B1   ?ms_classInfo@NMRollupSectionEvent@nmui@@2VwxClassInfo@@A  (001C9F14)
               4275 10B2   ?ms_classInfo@NMScriptControl@nmui@@2VwxClassInfo@@A  (001C9F44)
               4276 10B3   ?ms_classInfo@NMScrollBar@nmui@@2VwxClassInfo@@A  (001C9F64)
               4277 10B4   ?ms_classInfo@NMScrollPanel@nmui@@2VwxClassInfo@@A  (001C9F9C)
               4278 10B5   ?ms_classInfo@NMScrollWindow@nmui@@2VwxClassInfo@@A  (001C9FB4)
               4279 10B6   ?ms_classInfo@NMSimpleGraph@nmui@@2VwxClassInfo@@A  (001C9FCC)
               4280 10B7   ?ms_classInfo@NMSimpleGraphEvent@nmui@@2VwxClassInfo@@A  (001C9FE4)
               4281 10B8   ?ms_classInfo@NMSimpleMultiOptionDialog@nmui@@2VwxClassInfo@@A  (001CA018)
               4282 10B9   ?ms_classInfo@NMSimpleTextCtrl@nmui@@2VwxClassInfo@@A  (001CA148)
               4283 10BA   ?ms_classInfo@NMSimpleTextCtrlValidator@nmui@@2VwxClassInfo@@A  (001CA130)
               4284 10BB   ?ms_classInfo@NMSplash@nmui@@2VwxClassInfo@@A  (001CA078)
               4285 10BC   ?ms_classInfo@NMSplitter@nmui@@2VwxClassInfo@@A  (001CA094)
               4286 10BD   ?ms_classInfo@NMStaticBitmap@nmui@@2VwxClassInfo@@A  (001CA0B8)
               4287 10BE   ?ms_classInfo@NMStaticBox@nmui@@2VwxClassInfo@@A  (001CA0D0)
               4288 10BF   ?ms_classInfo@NMStaticBoxSizer@nmui@@2VwxClassInfo@@A  (001CA0E8)
               4289 10C0   ?ms_classInfo@NMStaticText@nmui@@2VwxClassInfo@@A  (001CA100)
               4290 10C1   ?ms_classInfo@NMSwitchablePanel@nmui@@2VwxClassInfo@@A  (001CA118)
               4291 10C2   ?ms_classInfo@NMToolBar@nmui@@2VwxClassInfo@@A  (001CA178)
               4292 10C3   ?ms_classInfo@NMToolBarSeparator@nmui@@2VwxClassInfo@@A  (001CA160)
               4293 10C4   ?ms_classInfo@NMToolEdgePanel@nmui@@2VwxClassInfo@@A  (001CA1A8)
               4294 10C5   ?ms_classInfo@NMToolPanel@nmui@@2VwxClassInfo@@A  (001CA1C0)
               4295 10C6   ?ms_classInfo@NMToolTitlePanel@nmui@@2VwxClassInfo@@A  (001CA190)
               4296 10C7   ?ms_classInfo@NMUIntSlider@nmui@@2VwxClassInfo@@A  (001CA1D8)
               4297 10C8   ?ms_classInfo@Notebook@nmui@@2VwxClassInfo@@A  (001C9DBC)
               4298 10C9   ?ms_classInfo@NotebookEvent@nmui@@2VwxClassInfo@@A  (001C9DD4)
               4299 10CA   ?ms_classInfo@Panel@nmui@@2VwxClassInfo@@A  (001CA220)
               4300 10CB   ?ms_classInfo@PopupMenu@nmui@@2VwxClassInfo@@A  (001C9E30)
               4301 10CC   ?ms_classInfo@RawGLCanvas@nmui@@2VwxClassInfo@@A  (001CA2C8)
               4302 10CD   ?ms_classInfo@Slider@nmui@@2VwxClassInfo@@A  (001CA030)
               4303 10CE   ?ms_classInfo@SpinButton@nmui@@2VwxClassInfo@@A  (001CA048)
               4304 10CF   ?ms_classInfo@TextControl@nmui@@2VwxClassInfo@@A  (001CA2EC)
               4305 10D0   ?ms_classInfo@TreeControl@nmui@@2VwxClassInfo@@A  (001CA30C)
               4306 10D1   ?ms_classInfo@TreeEvent@nmui@@2VwxClassInfo@@A  (001CA324)
               4307 10D2   ?ms_classInfo@Window@nmui@@2VwxClassInfo@@A  (001CA1F0)
               4308 10D3   ?ms_classInfo@WindowEvent@nmui@@2VwxClassInfo@@A  (001CA208)
               4309 10D4   ?ms_classInfo@WindowPannedEvent@nmui@@2VwxClassInfo@@A  (001C992C)
               4310 10D5   ?ms_classInfo@WindowScaledEvent@nmui@@2VwxClassInfo@@A  (001C9944)
               4311 10D6   ?ms_classInfo@wxStyledTextCtrl@@2VwxClassInfo@@A  (001CA874)
               4312 10D7   ?ms_classInfo@wxStyledTextEvent@@2VwxClassInfo@@A  (001CA88C)
               4313 10D8   ?multimediaTimerCallback@AppMainLoop@nmui@@KGXIIKKK@Z  (00001310)
               4314 10D9   ?mustDrawHoverHighlight@Button@nmui@@IBE_NXZ  (00039120)
               4315 10DA   ?nextFrame@NMSimpleGraph@nmui@@QAEXXZ  (0008C090)
               4316 10DB   ?nmui_SCROLLBAR_POSITION_CHANGED@@3HB  (001C9F94)
               4317 10DC   ?nmui_SCROLLBAR_RANGE_AND_THUMB_CHANGED@@3HB  (001C9F98)
               4318 10DD   ?noProfiling@NMListControl@nmui@@QAEXXZ  (00027C30)
               4319 10DE   ?noResources@FilteredResourcePredicate@nmui@@SAPAV12@XZ  (00017B50)
               4320 10DF   ?notifyAddResources@FileResourceManager@nmui@@MAEXABV?$hashmap_dense_dynamic@I_N@nmtl@@@Z  (000204C0)
               4321 10E0   ?notifyDirtyResources@FileResourceManager@nmui@@MAEXABV?$hashmap_dense_dynamic@I_N@nmtl@@@Z  (00020560)
               4322 10E1   ?notifyFileDeletedResources@FileResourceManager@nmui@@MAEXABV?$hashmap_dense_dynamic@I_N@nmtl@@@Z  (00020540)
               4323 10E2   ?notifyFileModifyResources@FileResourceManager@nmui@@MAEXABV?$hashmap_dense_dynamic@I_N@nmtl@@@Z  (00020500)
               4324 10E3   ?notifyRemoveResources@FileResourceManager@nmui@@MAEXABV?$hashmap_dense_dynamic@I_N@nmtl@@@Z  (00020480)
               4325 10E4   ?numArgs@LuaArgumentProcessor@nmui@@QAEHXZ  (00034E20)
               4326 10E5   ?numberOfSelectableWindows@Notebook@nmui@@UBEHXZ  (0006CDB0)
               4327 10E6   ?numberOfWindows@Notebook@nmui@@UBEHXZ  (0006C270)
               4328 10E7   ?onActivate@BaseState@nmui@@MAE_NAAVwxActivateEvent@@@Z  (00010CC0)
               4329 10E8   ?onActivate@wxEventInterceptor@nmui@@AAEXAAVwxActivateEvent@@@Z  (000BFC90)
               4330 10E9   ?onActiveColourSchemeChanged@Button@nmui@@MAEXXZ  (0003A380)
               4331 10EA   ?onActiveColourSchemeChanged@Dialog@nmui@@UAEXXZ  (0004BA00)
               4332 10EB   ?onActiveColourSchemeChanged@Frame@nmui@@UAEXXZ  (000A5440)
               4333 10EC   ?onActiveColourSchemeChanged@NMStaticText@nmui@@MAEXXZ  (00098710)
               4334 10ED   ?onActiveColourSchemeChanged@Window@nmui@@UAEXXZ  (000A5EF0)
               4335 10EE   ?onAdd@NMCheckListDialog@nmui@@IAEXAAVwxCommandEvent@@@Z  (0003CBB0)
               4336 10EF   ?onAddFile@DirectoryWatch@nmui@@AAEXAAVDirectoryWatchEvent@2@@Z  (0000B0F0)
               4337 10F0   ?onBeginDrag@NMRollupContainer@nmui@@IAEXAAVNMRollupSectionEvent@2@@Z  (000835F0)
               4338 10F1   ?onBeginDrag@NavigatorTree@nmui@@AAEXAAVTreeEvent@2@@Z  (00034C70)
               4339 10F2   ?onBeginTaskComplete@TaskListObserver@nmui@@UAEXPAVTaskList@2@PAVTaskListItemBase@2@@Z  (00099C40)
               4340 10F3   ?onBestSizeChanged@NMRollupSection@nmui@@IAEXAAVwxCommandEvent@@@Z  (00083510)
               4341 10F4   ?onBestSizeChanging@NMSplitter@nmui@@IAEXAAVwxCommandEvent@@@Z  (000963E0)
               4342 10F5   ?onButtonClick@NMRollupHeading@nmui@@AAEXAAVwxCommandEvent@@@Z  (00081FD0)
               4343 10F6   ?onButtonClick@NMRollupSection@nmui@@IAEXAAVwxCommandEvent@@@Z  (00085350)
               4344 10F7   ?onCallTipClicked@TextControl@nmui@@IAEXAAVwxStyledTextEvent@@@Z  (000AE6E0)
               4345 10F8   ?onCancelClicked@TaskListDialog@nmui@@AAEXAAVwxCommandEvent@@@Z  (0009A020)
               4346 10F9   ?onCaretTimer@NMSimpleTextCtrl@nmui@@IAEXAAVwxTimerEvent@@@Z  (0009DBB0)
               4347 10FA   ?onChar@BaseState@nmui@@MAE_NAAVwxKeyEvent@@@Z  (00010C40)
               4348 10FB   ?onChar@NMColourSwatch@nmui@@IAEXAAVwxKeyEvent@@@Z  (0003F660)
               4349 10FC   ?onChar@wxEventInterceptor@nmui@@AAEXAAVwxKeyEvent@@@Z  (000BFC10)
               4350 10FD   ?onCharAdded@NMCppTextControl@nmui@@IAEXAAVwxStyledTextEvent@@@Z  (0004B6D0)
               4351 10FE   ?onCharAdded@TextControl@nmui@@IAEXAAVwxStyledTextEvent@@@Z  (000B06F0)
               4352 10FF   ?onCheck@NMCheckListDialog@nmui@@IAEXAAVCheckBoxEvent@2@@Z  (0003CA80)
               4353 1100   ?onChildKillFocus@NMFloatSlider@nmui@@QAEXAAVwxChildFocusEvent@@@Z  (000530C0)
               4354 1101   ?onChildKillFocus@NMIntSlider@nmui@@IAEXAAVwxChildFocusEvent@@@Z  (00058970)
               4355 1102   ?onChildKillFocus@NMUIntSlider@nmui@@IAEXAAVwxChildFocusEvent@@@Z  (000A41D0)
               4356 1103   ?onChildMouseCaptureChanged@PopupPanel@nmui@@IAEXAAVwxMouseCaptureChangedEvent@@@Z  (0007C8A0)
               4357 1104   ?onChildMouseCaptureLost@PopupPanel@nmui@@IAEXAAVwxMouseCaptureLostEvent@@@Z  (0007C4B0)
               4358 1105   ?onCommitRenameEdit@NMTextRenameCtrlOwner@nmui@@UAE_NXZ  (00025890)
               4359 1106   ?onCommitRenameEdit@TreeControl@nmui@@UAE_NXZ  (000B95B0)
               4360 1107   ?onCompleteButtonClicked@TaskListDialog@nmui@@AAEXAAVwxCommandEvent@@@Z  (0009B7F0)
               4361 1108   ?onContextMenu@NMPalette@nmui@@UAE_NAAVwxMouseEvent@@@Z  (000075A0)
               4362 1109   ?onContextMenu@NavigatorTree@nmui@@AAEXAAVTreeEvent@2@@Z  (00036710)
               4363 110A   ?onContextMenuItemSelected@NavigatorGroup@nmui@@UAEXH@Z  (00037DF0)
               4364 110B   ?onContextMenuItemSelected@NavigatorItemType@nmui@@UAEXPAVNavigatorTreeItem@2@H@Z  (00099C40)
               4365 110C   ?onContextMenuShown@NavigatorGroup@nmui@@UAEXAAVTreeEvent@2@PAVNavigatorTree@2@@Z  (00099C40)
               4366 110D   ?onContextMenuShown@NavigatorItemType@nmui@@UAEXAAVTreeEvent@2@PAVNavigatorTree@2@PAVNavigatorTreeItem@2@@Z  (00099C50)
               4367 110E   ?onContextMenuShown@NavigatorTree@nmui@@UAEXAAVTreeEvent@2@@Z  (00037DF0)
               4368 110F   ?onCustomDrawTreeItemImage@NavigatorTree@nmui@@MAE_NAAVwxDC@@ABVTreeItem@2@@Z  (00036120)
               4369 1110   ?onCustomDrawTreeItemImage@TreeControl@nmui@@MAE_NAAVwxDC@@ABVTreeItem@2@@Z  (000B0F80)
               4370 1111   ?onDecrementSpinValue@NMFloatSpinner@nmui@@IAEXAAVwxCommandEvent@@@Z  (00053F90)
               4371 1112   ?onDecrementSpinValue@NMIntSpinner@nmui@@IAEXAAVwxCommandEvent@@@Z  (000595A0)
               4372 1113   ?onDestroyRenameControl@NMTextRenameCtrlOwner@nmui@@UAEXXZ  (0000A8C0)
               4373 1114   ?onDestroyRenameControl@TreeControl@nmui@@UAEXXZ  (000B0F90)
               4374 1115   ?onDirectoryWatchFileAdded@DirectoryWatchObserver@nmui@@UAEXABVDirectoryWatchEvent@2@@Z  (00037DF0)
               4375 1116   ?onDirectoryWatchFileAdded@DirectoryWatchTreeView@nmui@@UAEXABVDirectoryWatchEvent@2@@Z  (0000F830)
               4376 1117   ?onDirectoryWatchFileAdded@FileResourceManager@nmui@@AAEXABVDirectoryWatchEvent@2@@Z  (0001C9D0)
               4377 1118   ?onDirectoryWatchFileModified@DirectoryWatchObserver@nmui@@UAEXABVDirectoryWatchEvent@2@@Z  (00037DF0)
               4378 1119   ?onDirectoryWatchFileModified@FileResourceManager@nmui@@AAEXABVDirectoryWatchEvent@2@@Z  (0001CF40)
               4379 111A   ?onDirectoryWatchFileRemoved@DirectoryWatchObserver@nmui@@UAEXABVDirectoryWatchEvent@2@@Z  (00037DF0)
               4380 111B   ?onDirectoryWatchFileRemoved@DirectoryWatchTreeView@nmui@@UAEXABVDirectoryWatchEvent@2@@Z  (0000F900)
               4381 111C   ?onDirectoryWatchFileRemoved@FileResourceManager@nmui@@AAEXABVDirectoryWatchEvent@2@@Z  (0001CBA0)
               4382 111D   ?onDirectoryWatchFileRenamed@DirectoryWatchObserver@nmui@@UAEXABVDirectoryWatchEvent@2@@Z  (00037DF0)
               4383 111E   ?onDirectoryWatchFileRenamed@DirectoryWatchTreeView@nmui@@UAEXABVDirectoryWatchEvent@2@@Z  (0000F9D0)
               4384 111F   ?onDirectoryWatchFileRenamed@FileResourceManager@nmui@@AAEXABVDirectoryWatchEvent@2@@Z  (0001CCC0)
               4385 1120   ?onDirectoryWatchStart@DirectoryWatchObserver@nmui@@UAEXXZ  (0000A8C0)
               4386 1121   ?onDirectoryWatchStop@DirectoryWatchObserver@nmui@@UAEXXZ  (0000A8C0)
               4387 1122   ?onDismiss@PopupPanel@nmui@@IAEXAAVwxMouseEvent@@_N@Z  (0007CB70)
               4388 1123   ?onDontCompleteButtonClicked@TaskListDialog@nmui@@AAEXAAVwxCommandEvent@@@Z  (0009AEA0)
               4389 1124   ?onDragLeaveWindow@NavigatorTree@nmui@@AAEXAAVTreeEvent@2@@Z  (00034C80)
               4390 1125   ?onDwellBegin@TextControl@nmui@@IAEXAAVwxStyledTextEvent@@@Z  (000AE540)
               4391 1126   ?onDwellEnd@TextControl@nmui@@IAEXAAVwxStyledTextEvent@@@Z  (000AD5F0)
               4392 1127   ?onEndDrag@NavigatorTree@nmui@@AAEXAAVTreeEvent@2@@Z  (000358F0)
               4393 1128   ?onEndTaskComplete@TaskListObserver@nmui@@UAEXPAVTaskList@2@PAVTaskListItemBase@2@_N@Z  (00099C50)
               4394 1129   ?onEnsureVisible@NMRollupSection@nmui@@IAEXAAVWindowEvent@2@@Z  (00086140)
               4395 112A   ?onEnsureVisible@NMScrollWindow@nmui@@IAEXAAVWindowEvent@2@@Z  (0008AC10)
               4396 112B   ?onEnter@NMFloatSlider@nmui@@QAEXAAVwxCommandEvent@@@Z  (00053010)
               4397 112C   ?onEnter@NMIntSlider@nmui@@IAEXAAVwxCommandEvent@@@Z  (000588C0)
               4398 112D   ?onEnter@NMUIntSlider@nmui@@IAEXAAVwxCommandEvent@@@Z  (000A4120)
               4399 112E   ?onEntry@BaseState@nmui@@MAEXPAX@Z  (00037DF0)
               4400 112F   ?onErase@MenuBar@nmui@@IAEXAAVwxEraseEvent@@@Z  (00037DF0)
               4401 1130   ?onErase@PopupMenu@nmui@@IAEXAAVwxEraseEvent@@@Z  (00037DF0)
               4402 1131   ?onEraseBackground@CheckBox@nmui@@IAEXAAVwxEraseEvent@@@Z  (00037DF0)
               4403 1132   ?onEraseBackground@GuiNodeWindow@nmui@@QAEXAAVwxEraseEvent@@@Z  (00037DF0)
               4404 1133   ?onEraseBackground@NMBusyBar@nmui@@IAEXAAVwxEraseEvent@@@Z  (00037DF0)
               4405 1134   ?onEraseBackground@NMColourLegend@nmui@@IAEXAAVwxEraseEvent@@@Z  (00037DF0)
               4406 1135   ?onEraseBackground@NMColourSwatch@nmui@@IAEXAAVwxEraseEvent@@@Z  (00037DF0)
               4407 1136   ?onEraseBackground@NMComboBoxListCtrl@nmui@@IAEXAAVwxEraseEvent@@@Z  (00037DF0)
               4408 1137   ?onEraseBackground@NMIconBarSlots@nmui@@IAEXAAVwxEraseEvent@@@Z  (00037DF0)
               4409 1138   ?onEraseBackground@NMPalette@nmui@@QAEXAAVwxEraseEvent@@@Z  (00037DF0)
               4410 1139   ?onEraseBackground@NMProgressBar@nmui@@IAEXAAVwxEraseEvent@@@Z  (00037DF0)
               4411 113A   ?onEraseBackground@NMRollupHeading@nmui@@AAEXAAVwxEraseEvent@@@Z  (00037DF0)
               4412 113B   ?onEraseBackground@NMRollupSection@nmui@@IAEXAAVwxEraseEvent@@@Z  (00037DF0)
               4413 113C   ?onEraseBackground@NMScrollBar@nmui@@IAEXAAVwxEraseEvent@@@Z  (00037DF0)
               4414 113D   ?onEraseBackground@NMSimpleGraph@nmui@@IAEXAAVwxEraseEvent@@@Z  (00037DF0)
               4415 113E   ?onEraseBackground@NMSimpleTextCtrl@nmui@@IAEXAAVwxEraseEvent@@@Z  (00037DF0)
               4416 113F   ?onEraseBackground@NMStaticText@nmui@@IAEXAAVwxEraseEvent@@@Z  (00037DF0)
               4417 1140   ?onEraseBackground@NMToolTitlePanel@nmui@@AAEXAAVwxEraseEvent@@@Z  (00037DF0)
               4418 1141   ?onEraseBackground@Notebook@nmui@@IAEXAAVwxEraseEvent@@@Z  (00037DF0)
               4419 1142   ?onEraseHeader@NMColumnWindow@nmui@@IAEXAAVwxEraseEvent@@@Z  (00037DF0)
               4420 1143   ?onEraseScrollPanel@NMListControl@nmui@@IAEXAAVwxEraseEvent@@@Z  (00037DF0)
               4421 1144   ?onEraseScrollPanel@TreeControl@nmui@@IAEXAAVwxEraseEvent@@@Z  (00037DF0)
               4422 1145   ?onExit@BaseState@nmui@@MAEXXZ  (0000A8C0)
               4423 1146   ?onFloatingNotebookClosing@Notebook@nmui@@IAEXPAVNotebookFloatingWindow@2@PAVwxWindow@@@Z  (000705F0)
               4424 1147   ?onFocusChanged@NMColourSwatch@nmui@@IAEXAAVwxFocusEvent@@@Z  (00037F70)
               4425 1148   ?onFocusChanged@NMIconBarSlots@nmui@@IAEXAAVwxFocusEvent@@@Z  (00037F70)
               4426 1149   ?onFocusChanged@NMRollupHeading@nmui@@AAEXAAVwxFocusEvent@@@Z  (00037F70)
               4427 114A   ?onFormatChanged@NMFrameRateControl@nmui@@IAEXAAVwxCommandEvent@@@Z  (000548C0)
               4428 114B   ?onFrameRateValueChanged@NMFrameRateControl@nmui@@IAEXAAVwxCommandEvent@@@Z  (00054960)
               4429 114C   ?onFrameRateValueKillFocus@NMFrameRateControl@nmui@@IAEXAAVwxChildFocusEvent@@@Z  (00054A00)
               4430 114D   ?onGroupMenuItemSelected@NavigatorTree@nmui@@AAEXAAVwxCommandEvent@@@Z  (00034D40)
               4431 114E   ?onGroupShowHideToggle@NavigatorTree@nmui@@AAEXAAVwxCommandEvent@@@Z  (00035DC0)
               4432 114F   ?onHeaderContextualMenu@NMRollupSection@nmui@@IAEXAAVwxMouseEvent@@@Z  (00082B40)
               4433 1150   ?onHeaderSortColumn@TreeControl@nmui@@IAEXAAVNMColumnWindowEvent@2@@Z  (000BB0E0)
               4434 1151   ?onHorizontalScrollPositionChanged@NMScrollWindow@nmui@@IAEXAAVNMScrollBarEvent@2@@Z  (0008AB40)
               4435 1152   ?onHoverEnter@GuiNodeHoverState@nmui@@UAEXPAVGuiNode@2@@Z  (00037DF0)
               4436 1153   ?onHoverEnter@NMPaletteItem@nmui@@UAEXXZ  (0000A8C0)
               4437 1154   ?onHoverLeave@GuiNodeHoverState@nmui@@UAEXPAVGuiNode@2@@Z  (00037DF0)
               4438 1155   ?onHoverLeave@NMPaletteItem@nmui@@UAEXXZ  (0000A8C0)
               4439 1156   ?onIdle@BaseState@nmui@@MAE_NAAVwxIdleEvent@@@Z  (00010D00)
               4440 1157   ?onIdle@wxEventInterceptor@nmui@@AAEXAAVwxIdleEvent@@@Z  (000BFCB0)
               4441 1158   ?onInPlaceNavigationKey@NMListControl@nmui@@IAEXAAVwxNavigationKeyEvent@@@Z  (000B10B0)
               4442 1159   ?onInPlaceNavigationKey@TreeControl@nmui@@IAEXAAVwxNavigationKeyEvent@@@Z  (000B10B0)
               4443 115A   ?onIncrementSpinValue@NMFloatSpinner@nmui@@IAEXAAVwxCommandEvent@@@Z  (00053F60)
               4444 115B   ?onIncrementSpinValue@NMIntSpinner@nmui@@IAEXAAVwxCommandEvent@@@Z  (00059570)
               4445 115C   ?onInitAccelerators@Menu@nmui@@UAEXAAV?$vector@VwxAcceleratorEntry@@V?$allocator@VwxAcceleratorEntry@@@std@@@std@@@Z  (00037DF0)
               4446 115D   ?onInitDialog@NMCheckListDialog@nmui@@IAEXAAVwxInitDialogEvent@@@Z  (0003CA40)
               4447 115E   ?onInitDialog@NMIncrementalChoiceDialog@nmui@@IAEXAAVwxInitDialogEvent@@@Z  (000579D0)
               4448 115F   ?onItemActivated@NavigatorItemType@nmui@@UAEXPAVNavigatorTreeItem@2@@Z  (00037DF0)
               4449 1160   ?onItemActivated@NavigatorTree@nmui@@AAEXAAVTreeEvent@2@@Z  (000350B0)
               4450 1161   ?onItemDeselected@NavigatorItemType@nmui@@UAEXPAVNavigatorTreeItem@2@@Z  (00037DF0)
               4451 1162   ?onItemDeselected@NavigatorTree@nmui@@AAEXAAVTreeEvent@2@@Z  (00035070)
               4452 1163   ?onItemDropOntoItem@NavigatorItemType@nmui@@UAEXPAVNavigatorTreeItem@2@PAVTreeItem@2@@Z  (00099C40)
               4453 1164   ?onItemMenuItemSelected@NavigatorTree@nmui@@AAEXAAVwxCommandEvent@@@Z  (00035200)
               4454 1165   ?onItemRename@NavigatorItemType@nmui@@UAE_NPAVNavigatorTreeItem@2@ABVwxString@@@Z  (00034AB0)
               4455 1166   ?onItemSelected@Menu@nmui@@UAEXPAVMenuItem@2@@Z  (00037DF0)
               4456 1167   ?onItemSelected@NMIncrementalChoiceDialog@nmui@@IAEXAAVNMListEvent@2@@Z  (00057E50)
               4457 1168   ?onItemSelected@NavigatorItemType@nmui@@UAEXPAVNavigatorTreeItem@2@@Z  (00037DF0)
               4458 1169   ?onItemSelected@NavigatorTree@nmui@@AAEXAAVTreeEvent@2@@Z  (00035030)
               4459 116A   ?onKeyConsumed@TextControl@nmui@@IAEXAAVwxStyledTextEvent@@@Z  (000B0050)
               4460 116B   ?onKeyDown@BaseState@nmui@@MAE_NAAVwxKeyEvent@@@Z  (00010C00)
               4461 116C   ?onKeyDown@NMComboBoxTextCtrl@nmui@@IAEXAAVwxKeyEvent@@@Z  (0004A460)
               4462 116D   ?onKeyDown@wxEventInterceptor@nmui@@AAEXAAVwxKeyEvent@@@Z  (000BFBD0)
               4463 116E   ?onKeyPressed@NMScriptControl@nmui@@IAEXAAVwxKeyEvent@@@Z  (00087360)
               4464 116F   ?onKeyPressed@TextControl@nmui@@IAEXAAVwxStyledTextEvent@@@Z  (000B07F0)
               4465 1170   ?onKeyUp@BaseState@nmui@@MAE_NAAVwxKeyEvent@@@Z  (00010C20)
               4466 1171   ?onKeyUp@CheckBox@nmui@@IAEXAAVwxKeyEvent@@@Z  (0003C360)
               4467 1172   ?onKeyUp@wxEventInterceptor@nmui@@AAEXAAVwxKeyEvent@@@Z  (000BFBF0)
               4468 1173   ?onKillFocus@BaseState@nmui@@MAE_NAAVwxFocusEvent@@@Z  (00010CA0)
               4469 1174   ?onKillFocus@NMFloatSlider@nmui@@QAEXAAVwxFocusEvent@@@Z  (000530C0)
               4470 1175   ?onKillFocus@NMIntSlider@nmui@@QAEXAAVwxFocusEvent@@@Z  (00058970)
               4471 1176   ?onKillFocus@NMScriptControl@nmui@@IAEXAAVwxFocusEvent@@@Z  (00086980)
               4472 1177   ?onKillFocus@NMSimpleTextCtrl@nmui@@IAEXAAVwxFocusEvent@@@Z  (0009D2C0)
               4473 1178   ?onKillFocus@NMUIntSlider@nmui@@QAEXAAVwxFocusEvent@@@Z  (000A41D0)
               4474 1179   ?onKillFocus@TextControl@nmui@@IAEXAAVwxFocusEvent@@@Z  (000AD5B0)
               4475 117A   ?onKillFocus@wxEventInterceptor@nmui@@AAEXAAVwxFocusEvent@@@Z  (000BFC70)
               4476 117B   ?onLeftButtonDoubleClick@GuiNodeState@nmui@@UAEXAAVGuiNodeEvent@2@@Z  (00037DF0)
               4477 117C   ?onLeftButtonDoubleClick@GuiNodeStateManager@nmui@@QAEXAAVGuiNodeEvent@2@@Z  (000232B0)
               4478 117D   ?onLeftButtonDoubleClick@NMIconBarSlots@nmui@@IAEXAAVwxMouseEvent@@@Z  (000561F0)
               4479 117E   ?onLeftButtonDown@GuiNodeState@nmui@@UAEXAAVGuiNodeEvent@2@@Z  (00037DF0)
               4480 117F   ?onLeftButtonDown@GuiNodeStateManager@nmui@@QAEXAAVGuiNodeEvent@2@@Z  (00023250)
               4481 1180   ?onLeftButtonDown@NMRollupHeading@nmui@@AAEXAAVwxMouseEvent@@@Z  (00081A70)
               4482 1181   ?onLeftButtonUp@GuiNodeState@nmui@@UAEXAAVGuiNodeEvent@2@@Z  (00037DF0)
               4483 1182   ?onLeftButtonUp@GuiNodeStateManager@nmui@@QAEXAAVGuiNodeEvent@2@@Z  (00023280)
               4484 1183   ?onLeftButtonUp@NMColourLegend@nmui@@IAEXAAVwxMouseEvent@@@Z  (0003DFB0)
               4485 1184   ?onLeftButtonUp@NMIconBarSlots@nmui@@IAEXAAVwxMouseEvent@@@Z  (000560E0)
               4486 1185   ?onLeftButtonUp@NMRollupHeading@nmui@@AAEXAAVwxMouseEvent@@@Z  (00081B00)
               4487 1186   ?onLeftMouseDoubleClick@BaseState@nmui@@MAE_NAAVwxMouseEvent@@@Z  (00010AA0)
               4488 1187   ?onLeftMouseDown@BaseState@nmui@@MAE_NAAVwxMouseEvent@@@Z  (00010A60)
               4489 1188   ?onLeftMouseDown@PopupPanel@nmui@@IAEXAAVwxMouseEvent@@@Z  (0007CD60)
               4490 1189   ?onLeftMouseUp@BaseState@nmui@@MAE_NAAVwxMouseEvent@@@Z  (00010A80)
               4491 118A   ?onListCheckChange@NMCheckListDialog@nmui@@IAEXAAVNMListEvent@2@@Z  (0003CAA0)
               4492 118B   ?onListSelectionChange@NMCheckListDialog@nmui@@IAEXAAVNMListEvent@2@@Z  (0003CB60)
               4493 118C   ?onMarginClick@TextControl@nmui@@IAEXAAVwxStyledTextEvent@@@Z  (000AD080)
               4494 118D   ?onMessage@BaseState@nmui@@MAE_NABUMessage@2@@Z  (00010A40)
               4495 118E   ?onMiddleButtonDoubleClick@GuiNodeState@nmui@@UAEXAAVGuiNodeEvent@2@@Z  (00037DF0)
               4496 118F   ?onMiddleButtonDoubleClick@GuiNodeStateManager@nmui@@QAEXAAVGuiNodeEvent@2@@Z  (000233D0)
               4497 1190   ?onMiddleButtonDown@GuiNodeState@nmui@@UAEXAAVGuiNodeEvent@2@@Z  (00037DF0)
               4498 1191   ?onMiddleButtonDown@GuiNodeStateManager@nmui@@QAEXAAVGuiNodeEvent@2@@Z  (00023370)
               4499 1192   ?onMiddleButtonUp@GuiNodeState@nmui@@UAEXAAVGuiNodeEvent@2@@Z  (00037DF0)
               4500 1193   ?onMiddleButtonUp@GuiNodeStateManager@nmui@@QAEXAAVGuiNodeEvent@2@@Z  (000233A0)
               4501 1194   ?onMiddleMouseDoubleClick@BaseState@nmui@@MAE_NAAVwxMouseEvent@@@Z  (00010B60)
               4502 1195   ?onMiddleMouseDown@BaseState@nmui@@MAE_NAAVwxMouseEvent@@@Z  (00010B20)
               4503 1196   ?onMiddleMouseUp@BaseState@nmui@@MAE_NAAVwxMouseEvent@@@Z  (00010B40)
               4504 1197   ?onModifyFile@DirectoryWatch@nmui@@AAEXAAVDirectoryWatchEvent@2@@Z  (0000B130)
               4505 1198   ?onMouse@wxEventInterceptor@nmui@@AAEXAAVwxMouseEvent@@@Z  (000BFA60)
               4506 1199   ?onMouseCaptureChanged@PopupPanel@nmui@@IAEXAAVwxMouseCaptureChangedEvent@@@Z  (0007C4D0)
               4507 119A   ?onMouseCaptureLost@PopupPanel@nmui@@IAEXAAVwxMouseCaptureLostEvent@@@Z  (0007C4B0)
               4508 119B   ?onMouseClick@NMColourSwatch@nmui@@IAEXAAVwxMouseEvent@@@Z  (0003F630)
               4509 119C   ?onMouseDown@NMPaletteItem@nmui@@UAEXXZ  (0000A8C0)
               4510 119D   ?onMouseEnter@NMRollupHeading@nmui@@AAEXAAVwxMouseEvent@@@Z  (00081300)
               4511 119E   ?onMouseEnter@PopupPanel@nmui@@IAEXAAVwxMouseEvent@@@Z  (0007C7F0)
               4512 119F   ?onMouseEntering@BaseState@nmui@@MAE_NAAVwxMouseEvent@@@Z  (00010BC0)
               4513 11A0   ?onMouseLeave@CheckBox@nmui@@IAEXAAVwxMouseEvent@@@Z  (0003BFB0)
               4514 11A1   ?onMouseLeave@GuiNodeState@nmui@@UAEXAAVGuiNodeEvent@2@@Z  (00037DF0)
               4515 11A2   ?onMouseLeave@GuiNodeStateManager@nmui@@QAEXAAVGuiNodeEvent@2@@Z  (00023460)
               4516 11A3   ?onMouseLeave@NMRollupHeading@nmui@@AAEXAAVwxMouseEvent@@@Z  (00081310)
               4517 11A4   ?onMouseLeave@PopupPanel@nmui@@IAEXAAVwxMouseEvent@@@Z  (0007C800)
               4518 11A5   ?onMouseLeaving@BaseState@nmui@@MAE_NAAVwxMouseEvent@@@Z  (00010BE0)
               4519 11A6   ?onMouseLeftDown@CheckBox@nmui@@IAEXAAVwxMouseEvent@@@Z  (0003BFD0)
               4520 11A7   ?onMouseLeftDown@NMComboBoxButton@nmui@@IAEXAAVwxMouseEvent@@@Z  (0004A430)
               4521 11A8   ?onMouseLeftDown@NMComboBoxTextCtrl@nmui@@IAEXAAVwxMouseEvent@@@Z  (0004A500)
               4522 11A9   ?onMouseLeftUp@CheckBox@nmui@@IAEXAAVwxMouseEvent@@@Z  (0003C300)
               4523 11AA   ?onMouseMove@BaseState@nmui@@MAE_NAAVwxMouseEvent@@@Z  (00010B80)
               4524 11AB   ?onMouseMove@CheckBox@nmui@@IAEXAAVwxMouseEvent@@@Z  (0003BF50)
               4525 11AC   ?onMouseMove@GuiNodeState@nmui@@UAEXAAVGuiNodeEvent@2@@Z  (00037DF0)
               4526 11AD   ?onMouseMove@GuiNodeStateManager@nmui@@QAEXAAVGuiNodeEvent@2@@Z  (00023400)
               4527 11AE   ?onMouseMove@NMColourLegend@nmui@@IAEXAAVwxMouseEvent@@@Z  (0003E150)
               4528 11AF   ?onMouseMove@NMRollupHeading@nmui@@AAEXAAVwxMouseEvent@@@Z  (000825C0)
               4529 11B0   ?onMouseUp@NMPaletteItem@nmui@@UAEXXZ  (0000A8C0)
               4530 11B1   ?onMouseWheel@BaseState@nmui@@MAE_NAAVwxMouseEvent@@@Z  (00010BA0)
               4531 11B2   ?onMouseWheel@GuiNodeState@nmui@@UAE_NAAVGuiNodeEvent@2@@Z  (000075A0)
               4532 11B3   ?onMouseWheel@GuiNodeStateManager@nmui@@QAE_NAAVGuiNodeEvent@2@@Z  (00023430)
               4533 11B4   ?onMouseWheel@NMIconBar@nmui@@IAEXAAVwxMouseEvent@@@Z  (000559E0)
               4534 11B5   ?onMultimediaTimerTick@AppMainLoop@nmui@@MAEXI@Z  (00001770)
               4535 11B6   ?onNavigationKey@BaseState@nmui@@MAE_NAAVwxNavigationKeyEvent@@@Z  (00010C60)
               4536 11B7   ?onNavigationKey@CheckBox@nmui@@IAEXAAVwxNavigationKeyEvent@@@Z  (0003A090)
               4537 11B8   ?onNavigationKey@Notebook@nmui@@IAEXAAVwxNavigationKeyEvent@@@Z  (0006BA20)
               4538 11B9   ?onNavigationKey@wxEventInterceptor@nmui@@AAEXAAVwxNavigationKeyEvent@@@Z  (000BFC30)
               4539 11BA   ?onNo@Dialog@nmui@@IAEXAAVwxCommandEvent@@@Z  (0004BD10)
               4540 11BB   ?onNoToAll@Dialog@nmui@@IAEXAAVwxCommandEvent@@@Z  (0004BD90)
               4541 11BC   ?onNotebookCollapse@NMSplitter@nmui@@IAEXAAVNotebookEvent@2@@Z  (000967F0)
               4542 11BD   ?onNotebookContentsChanged@NMSplitter@nmui@@IAEXAAVNotebookEvent@2@@Z  (000967F0)
               4543 11BE   ?onNotebookContentsChanged@Notebook@nmui@@IAEXXZ  (00070160)
               4544 11BF   ?onOK@NMCheckListDialog@nmui@@IAEXAAVwxCommandEvent@@@Z  (0003D660)
               4545 11C0   ?onOK@NMIncrementalChoiceDialog@nmui@@IAEXAAVwxCommandEvent@@@Z  (00057E70)
               4546 11C1   ?onPaint@BaseState@nmui@@MAE_NAAVwxDC@@@Z  (00010CE0)
               4547 11C2   ?onPaint@CheckBox@nmui@@IAEXAAVwxPaintEvent@@@Z  (0003C440)
               4548 11C3   ?onPaint@GuiNodeWindow@nmui@@QAEXAAVwxPaintEvent@@@Z  (000257A0)
               4549 11C4   ?onPaint@MenuBar@nmui@@IAEXAAVwxPaintEvent@@@Z  (00069A90)
               4550 11C5   ?onPaint@NMBusyBar@nmui@@IAEXAAVwxPaintEvent@@@Z  (00038400)
               4551 11C6   ?onPaint@NMColourLegend@nmui@@IAEXAAVwxPaintEvent@@@Z  (0003E3D0)
               4552 11C7   ?onPaint@NMColourSwatch@nmui@@IAEXAAVwxPaintEvent@@@Z  (0003F6A0)
               4553 11C8   ?onPaint@NMComboBoxListCtrl@nmui@@IAEXAAVwxPaintEvent@@@Z  (000486F0)
               4554 11C9   ?onPaint@NMIconBarSlots@nmui@@IAEXAAVwxPaintEvent@@@Z  (000562C0)
               4555 11CA   ?onPaint@NMPalette@nmui@@QAEXAAVwxPaintEvent@@@Z  (00078A40)
               4556 11CB   ?onPaint@NMProgressBar@nmui@@IAEXAAVwxPaintEvent@@@Z  (0007E260)
               4557 11CC   ?onPaint@NMRollupContainer@nmui@@QAEXAAVwxPaintEvent@@@Z  (000841A0)
               4558 11CD   ?onPaint@NMRollupHeading@nmui@@AAEXAAVwxPaintEvent@@@Z  (00082280)
               4559 11CE   ?onPaint@NMRollupSection@nmui@@IAEXAAVwxPaintEvent@@@Z  (00083A20)
               4560 11CF   ?onPaint@NMScrollBar@nmui@@IAEXAAVwxPaintEvent@@@Z  (00087AA0)
               4561 11D0   ?onPaint@NMSimpleGraph@nmui@@IAEXAAVwxPaintEvent@@@Z  (0008E100)
               4562 11D1   ?onPaint@NMSimpleTextCtrl@nmui@@IAEXAAVwxPaintEvent@@@Z  (0009FB60)
               4563 11D2   ?onPaint@NMStaticText@nmui@@IAEXAAVwxPaintEvent@@@Z  (00098C60)
               4564 11D3   ?onPaint@NMToolBarSeparator@nmui@@IAEXAAVwxPaintEvent@@@Z  (000A1660)
               4565 11D4   ?onPaint@NMToolEdgePanel@nmui@@AAEXAAVwxPaintEvent@@@Z  (000A1A60)
               4566 11D5   ?onPaint@NMToolTitlePanel@nmui@@AAEXAAVwxPaintEvent@@@Z  (000A2370)
               4567 11D6   ?onPaint@Notebook@nmui@@IAEXAAVwxPaintEvent@@@Z  (0006D920)
               4568 11D7   ?onPaint@PopupMenu@nmui@@IAEXAAVwxPaintEvent@@@Z  (00079D00)
               4569 11D8   ?onPaintHeader@NMColumnWindow@nmui@@IAEXAAVwxPaintEvent@@@Z  (00042FA0)
               4570 11D9   ?onPaintScrollPanel@NMListControl@nmui@@IAEXAAVwxPaintEvent@@@Z  (0005FB30)
               4571 11DA   ?onPaintScrollPanel@TreeControl@nmui@@IAEXAAVwxPaintEvent@@@Z  (000BC300)
               4572 11DB   ?onPoppedUp@Menu@nmui@@UAEXXZ  (0000A8C0)
               4573 11DC   ?onPopupDismissed@MenuBar@nmui@@IAEXAAVwxCommandEvent@@@Z  (00069350)
               4574 11DD   ?onPopupDismissed@TreeControl@nmui@@IAEXAAVwxCommandEvent@@@Z  (000B2800)
               4575 11DE   ?onPopupPanelDismissed@NMListControl@nmui@@IAEXAAVwxNotifyEvent@@@Z  (0005A2E0)
               4576 11DF   ?onPopupPanelDismissed@TreeControl@nmui@@IAEXAAVwxNotifyEvent@@@Z  (000B1070)
               4577 11E0   ?onPromoteCategory@TaskListDialog@nmui@@EAEXPAVTaskList@2@ABVwxString@@@Z  (0009BB30)
               4578 11E1   ?onPromoteCategory@TaskListObserver@nmui@@UAEXPAVTaskList@2@ABVwxString@@@Z  (00099C40)
               4579 11E2   ?onQuitFullScreen@FullScreenFrame@nmui@@AAEXAAVwxCommandEvent@@@Z  (00070410)
               4580 11E3   ?onRegister@NavigatorGroup@nmui@@UAEXXZ  (0000A8C0)
               4581 11E4   ?onRemove@NMCheckListDialog@nmui@@IAEXAAVwxCommandEvent@@@Z  (0003D040)
               4582 11E5   ?onRemoveFile@DirectoryWatch@nmui@@AAEXAAVDirectoryWatchEvent@2@@Z  (0000B110)
               4583 11E6   ?onRenameEnd@NavigatorTree@nmui@@AAEXAAVTreeEvent@2@@Z  (00035140)
               4584 11E7   ?onRenameFile@DirectoryWatch@nmui@@AAEXAAVDirectoryWatchEvent@2@@Z  (0000B150)
               4585 11E8   ?onRenameStart@NavigatorTree@nmui@@AAEXAAVTreeEvent@2@@Z  (000350F0)
               4586 11E9   ?onRequestClearHighlightedItems@NMListControl@nmui@@MAEXH@Z  (0005FC80)
               4587 11EA   ?onRequestHighlightItemsInClientRect@NMListControl@nmui@@MAEXHABVwxRect@@ABVwxPoint@@_N@Z  (00062D00)
               4588 11EB   ?onRequestItemHitTest@NMListControl@nmui@@MBEPAVNMListItem_@2@ABVwxPoint@@PAH@Z  (0005DC00)
               4589 11EC   ?onRequestSelectAll@NMListControl@nmui@@MAEXXZ  (00062CD0)
               4590 11ED   ?onRequestSelectEnd@NMListControl@nmui@@MAEXPAVNMListItem_@2@_N1@Z  (000630D0)
               4591 11EE   ?onRequestSelectExclusively@NMListControl@nmui@@MAEXPAVNMListItem_@2@@Z  (00061790)
               4592 11EF   ?onRequestSelectHome@NMListControl@nmui@@MAEXPAVNMListItem_@2@_N1@Z  (000630C0)
               4593 11F0   ?onRequestSelectNextColumn@NMListControl@nmui@@MAEXPAVNMListItem_@2@_N1@Z  (0005C3E0)
               4594 11F1   ?onRequestSelectNextRow@NMListControl@nmui@@MAEXPAVNMListItem_@2@_N1@Z  (00062CF0)
               4595 11F2   ?onRequestSelectPageDown@NMListControl@nmui@@MAEXPAVNMListItem_@2@_N1@Z  (000630B0)
               4596 11F3   ?onRequestSelectPageUp@NMListControl@nmui@@MAEXPAVNMListItem_@2@_N1@Z  (000630A0)
               4597 11F4   ?onRequestSelectPreviousColumn@NMListControl@nmui@@MAEXPAVNMListItem_@2@_N1@Z  (0005C3D0)
               4598 11F5   ?onRequestSelectPreviousRow@NMListControl@nmui@@MAEXPAVNMListItem_@2@_N1@Z  (00062CE0)
               4599 11F6   ?onResize@NMBusyBar@nmui@@IAEXAAVwxSizeEvent@@@Z  (00037F70)
               4600 11F7   ?onResize@NMProgressBar@nmui@@IAEXAAVwxSizeEvent@@@Z  (0007E1A0)
               4601 11F8   ?onResourcesAdded@FilteredResourceObserver@nmui@@UAEXABV?$hashmap_dense_dynamic@I_N@nmtl@@@Z  (00037DF0)
               4602 11F9   ?onResourcesAdded@ResourceObserver@nmui@@UAEXABV?$hashmap_dense_dynamic@I_N@nmtl@@@Z  (00037DF0)
               4603 11FA   ?onResourcesDeleted@FilteredResourceObserver@nmui@@UAEXABV?$hashmap_dense_dynamic@I_N@nmtl@@@Z  (00037DF0)
               4604 11FB   ?onResourcesDeleted@ResourceObserver@nmui@@UAEXABV?$hashmap_dense_dynamic@I_N@nmtl@@@Z  (00037DF0)
               4605 11FC   ?onResourcesDirty@FilteredResourceObserver@nmui@@UAEXABV?$hashmap_dense_dynamic@I_N@nmtl@@@Z  (00037DF0)
               4606 11FD   ?onResourcesDirty@ResourceObserver@nmui@@UAEXABV?$hashmap_dense_dynamic@I_N@nmtl@@@Z  (00037DF0)
               4607 11FE   ?onResourcesFileDeleted@ResourceObserver@nmui@@UAEXABV?$hashmap_dense_dynamic@I_N@nmtl@@@Z  (00037DF0)
               4608 11FF   ?onResourcesFileModified@ResourceObserver@nmui@@UAEXABV?$hashmap_dense_dynamic@I_N@nmtl@@@Z  (00037DF0)
               4609 1200   ?onResourcesModified@FilteredResourceObserver@nmui@@UAEXABV?$hashmap_dense_dynamic@I_N@nmtl@@@Z  (00037DF0)
               4610 1201   ?onRightButtonDoubleClick@GuiNodeState@nmui@@UAEXAAVGuiNodeEvent@2@@Z  (00037DF0)
               4611 1202   ?onRightButtonDoubleClick@GuiNodeStateManager@nmui@@QAEXAAVGuiNodeEvent@2@@Z  (00023340)
               4612 1203   ?onRightButtonDown@GuiNodeState@nmui@@UAEXAAVGuiNodeEvent@2@@Z  (00037DF0)
               4613 1204   ?onRightButtonDown@GuiNodeStateManager@nmui@@QAEXAAVGuiNodeEvent@2@@Z  (000232E0)
               4614 1205   ?onRightButtonUp@GuiNodeState@nmui@@UAEXAAVGuiNodeEvent@2@@Z  (00037DF0)
               4615 1206   ?onRightButtonUp@GuiNodeStateManager@nmui@@QAEXAAVGuiNodeEvent@2@@Z  (00023310)
               4616 1207   ?onRightButtonUp@NMRollupHeading@nmui@@AAEXAAVwxMouseEvent@@@Z  (00081B80)
               4617 1208   ?onRightMouseDoubleClick@BaseState@nmui@@MAE_NAAVwxMouseEvent@@@Z  (00010B00)
               4618 1209   ?onRightMouseDown@BaseState@nmui@@MAE_NAAVwxMouseEvent@@@Z  (00010AC0)
               4619 120A   ?onRightMouseDown@PopupPanel@nmui@@IAEXAAVwxMouseEvent@@@Z  (0007CD70)
               4620 120B   ?onRightMouseUp@BaseState@nmui@@MAE_NAAVwxMouseEvent@@@Z  (00010AE0)
               4621 120C   ?onScriptChange@NMScriptControl@nmui@@IAEXAAVwxStyledTextEvent@@@Z  (00086950)
               4622 120D   ?onScrollDown@NMIconBar@nmui@@IAEXAAVwxCommandEvent@@@Z  (00055970)
               4623 120E   ?onScrollPanelMouseWheel@NMScrollWindow@nmui@@IAEXAAVwxMouseEvent@@@Z  (0008AB70)
               4624 120F   ?onScrollUp@NMIconBar@nmui@@IAEXAAVwxCommandEvent@@@Z  (00055900)
               4625 1210   ?onSearchCancelled@NMFilterCtrl@nmui@@AAEXAAVwxCommandEvent@@@Z  (000523D0)
               4626 1211   ?onSearchFilterBoxEnter@NMIncrementalChoiceDialog@nmui@@IAEXAAVwxCommandEvent@@@Z  (00057E50)
               4627 1212   ?onSearchFilterBoxKeyDown@NMIncrementalChoiceDialog@nmui@@IAEXAAVwxCommandEvent@@@Z  (00057CA0)
               4628 1213   ?onSearchFilterTimer@NMFilterCtrl@nmui@@AAEXAAVwxTimerEvent@@@Z  (00052800)
               4629 1214   ?onSearchPopupClicked@NMFilterCtrl@nmui@@AAEXAAVwxCommandEvent@@@Z  (000523C0)
               4630 1215   ?onSelectAllTasksStateChanged@TaskListDialog@nmui@@AAEXAAVCheckBoxEvent@2@@Z  (0009A0E0)
               4631 1216   ?onSelectionChanged@NavigatorTree@nmui@@AAEXAAVTreeEvent@2@@Z  (00034C60)
               4632 1217   ?onSelectionChanged@NavigatorTree@nmui@@UAEXXZ  (0000A8C0)
               4633 1218   ?onSetFocus@BaseState@nmui@@MAE_NAAVwxFocusEvent@@@Z  (00010C80)
               4634 1219   ?onSetFocus@Notebook@nmui@@IAEXAAVwxFocusEvent@@@Z  (0006B9F0)
               4635 121A   ?onSetFocus@wxEventInterceptor@nmui@@AAEXAAVwxFocusEvent@@@Z  (000BFC50)
               4636 121B   ?onSetTreeItemsEnabledStates@NavigatorTree@nmui@@AAEXAAVTreeEvent@2@@Z  (000357E0)
               4637 121C   ?onShow@NMScriptControl@nmui@@IAEXAAVwxShowEvent@@@Z  (000869B0)
               4638 121D   ?onShowRenameControl@NMTextRenameCtrlOwner@nmui@@UAEXXZ  (000A10A0)
               4639 121E   ?onSize@BaseState@nmui@@MAE_NAAVwxSizeEvent@@@Z  (00010D20)
               4640 121F   ?onSize@NMColourSwatch@nmui@@IAEXAAVwxSizeEvent@@@Z  (000986F0)
               4641 1220   ?onSize@NMColumnWindow@nmui@@IAEXAAVwxSizeEvent@@@Z  (00042280)
               4642 1221   ?onSize@NMComboBox@nmui@@IAEXAAVwxSizeEvent@@@Z  (000471C0)
               4643 1222   ?onSize@NMFilterCtrl@nmui@@AAEXAAVwxSizeEvent@@@Z  (00052310)
               4644 1223   ?onSize@NMIconBar@nmui@@IAEXAAVwxSizeEvent@@@Z  (00055BC0)
               4645 1224   ?onSize@NMPalette@nmui@@QAEXAAVwxSizeEvent@@@Z  (00072CB0)
               4646 1225   ?onSize@NMRollupHeading@nmui@@AAEXAAVwxSizeEvent@@@Z  (00091760)
               4647 1226   ?onSize@NMRollupSection@nmui@@IAEXAAVwxSizeEvent@@@Z  (00082E10)
               4648 1227   ?onSize@NMSimpleGraph@nmui@@IAEXAAVwxSizeEvent@@@Z  (00037F70)
               4649 1228   ?onSize@NMSimpleTextCtrl@nmui@@IAEXAAVwxSizeEvent@@@Z  (00091760)
               4650 1229   ?onSize@NMStaticBox@nmui@@IAEXAAVwxSizeEvent@@@Z  (00091760)
               4651 122A   ?onSize@NMStaticText@nmui@@IAEXAAVwxSizeEvent@@@Z  (000986F0)
               4652 122B   ?onSize@Notebook@nmui@@IAEXAAVwxSizeEvent@@@Z  (0006FD80)
               4653 122C   ?onSize@wxEventInterceptor@nmui@@AAEXAAVwxSizeEvent@@@Z  (000BFCD0)
               4654 122D   ?onSliderMoved@NMFloatSlider@nmui@@QAEXAAVwxCommandEvent@@@Z  (000A4280)
               4655 122E   ?onSliderMoved@NMIntSlider@nmui@@IAEXAAVwxCommandEvent@@@Z  (000A4280)
               4656 122F   ?onSliderMoved@NMUIntSlider@nmui@@IAEXAAVwxCommandEvent@@@Z  (000A4280)
               4657 1230   ?onSliderMoving@NMExpFloatSlider@nmui@@IAEXAAVwxCommandEvent@@@Z  (0004EE50)
               4658 1231   ?onSliderMoving@NMFloatSlider@nmui@@QAEXAAVwxCommandEvent@@@Z  (00053440)
               4659 1232   ?onSliderMoving@NMIntSlider@nmui@@IAEXAAVwxCommandEvent@@@Z  (00058B90)
               4660 1233   ?onSliderMoving@NMUIntSlider@nmui@@IAEXAAVwxCommandEvent@@@Z  (000A4440)
               4661 1234   ?onSliderRulerChanged@NMExpFloatSlider@nmui@@IAEXAAVwxCommandEvent@@@Z  (0004F2B0)
               4662 1235   ?onStart@DirectoryWatch@nmui@@AAEXAAVDirectoryWatchEvent@2@@Z  (0000B210)
               4663 1236   ?onStateEnter@GuiNodeState@nmui@@UAEXPAVGuiNode@2@PAX@Z  (00099C40)
               4664 1237   ?onStateExit@GuiNodeState@nmui@@UAEXPAVGuiNode@2@@Z  (00037DF0)
               4665 1238   ?onStop@DirectoryWatch@nmui@@AAEXAAVDirectoryWatchEvent@2@@Z  (0000B220)
               4666 1239   ?onTabBarStateChanged@Notebook@nmui@@IAEX_N@Z  (0006FC80)
               4667 123A   ?onTaskAdded@TaskListDialog@nmui@@EAEXPAVTaskList@2@PAVTaskListItemBase@2@@Z  (0009BB30)
               4668 123B   ?onTaskAdded@TaskListObserver@nmui@@UAEXPAVTaskList@2@PAVTaskListItemBase@2@@Z  (00099C40)
               4669 123C   ?onTaskRemoved@TaskListDialog@nmui@@EAEXPAVTaskList@2@PAVTaskListItemBase@2@@Z  (0009BB30)
               4670 123D   ?onTaskRemoved@TaskListObserver@nmui@@UAEXPAVTaskList@2@PAVTaskListItemBase@2@@Z  (00099C40)
               4671 123E   ?onTaskStateChanged@TaskListDialog@nmui@@AAEXAAVTreeEvent@2@@Z  (0009A040)
               4672 123F   ?onTextBoxEnter@NMFloatSpinner@nmui@@IAEXAAVwxCommandEvent@@@Z  (00053FC0)
               4673 1240   ?onTextBoxEnter@NMIntSpinner@nmui@@IAEXAAVwxCommandEvent@@@Z  (000595D0)
               4674 1241   ?onTextBoxKillFocus@NMFloatSpinner@nmui@@IAEXAAVwxChildFocusEvent@@@Z  (00053FE0)
               4675 1242   ?onTextBoxKillFocus@NMIntSpinner@nmui@@IAEXAAVwxChildFocusEvent@@@Z  (000595F0)
               4676 1243   ?onTextChanged@DirectoryControl@nmui@@IAEXAAVwxCommandEvent@@@Z  (0000A330)
               4677 1244   ?onTextChanged@FilenameControl@nmui@@IAEXAAVwxCommandEvent@@@Z  (000149A0)
               4678 1245   ?onTextChanged@NMFilterCtrl@nmui@@AAEXAAVwxCommandEvent@@@Z  (000523E0)
               4679 1246   ?onTimer@NMProfilerWindow@nmui@@AAEXAAVwxTimerEvent@@@Z  (0007D240)
               4680 1247   ?onTimer@NMScriptControl@nmui@@IAEXAAVwxTimerEvent@@@Z  (000873B0)
               4681 1248   ?onTimerTick@NMBusyBar@nmui@@IAEXAAVwxTimerEvent@@@Z  (00037F10)
               4682 1249   ?onToolButton@NMToolBar@nmui@@IAEXAAVwxCommandEvent@@@Z  (000A3480)
               4683 124A   ?onToolButton@NMToolPanel@nmui@@IAEXAAVwxCommandEvent@@@Z  (000A1E30)
               4684 124B   ?onTreeItemClicked@DirectoryWatchTreeView@nmui@@AAEXAAVTreeEvent@2@@Z  (0000FAF0)
               4685 124C   ?onUnwatchDirectory@DirectoryWatch@nmui@@AAEXAAVDirectoryWatchEvent@2@@Z  (0000B190)
               4686 124D   ?onUnwatchDirectory@DirectoryWatchObserver@nmui@@UAEXABVDirectoryWatchEvent@2@@Z  (00037DF0)
               4687 124E   ?onUnwatchDirectory@DirectoryWatchTreeView@nmui@@UAEXABVDirectoryWatchEvent@2@@Z  (00010950)
               4688 124F   ?onUpdateTimer@DirectoryWatchTreeView@nmui@@AAEXAAVwxTimerEvent@@@Z  (00010210)
               4689 1250   ?onUpdateTimer@FileResourceManager@nmui@@AAEXAAVwxTimerEvent@@@Z  (00016A30)
               4690 1251   ?onUpdateUI@NMCppTextControl@nmui@@IAEXAAVwxStyledTextEvent@@@Z  (0004B5C0)
               4691 1252   ?onUpdateUI@TextControl@nmui@@IAEXAAVwxStyledTextEvent@@@Z  (000AD2D0)
               4692 1253   ?onVerticalScrollPositionChanged@NMScrollWindow@nmui@@IAEXAAVNMScrollBarEvent@2@@Z  (0008AB10)
               4693 1254   ?onWatchDirectory@DirectoryWatch@nmui@@AAEXAAVDirectoryWatchEvent@2@@Z  (0000B170)
               4694 1255   ?onWatchDirectory@DirectoryWatchObserver@nmui@@UAEXABVDirectoryWatchEvent@2@@Z  (00037DF0)
               4695 1256   ?onWatchDirectory@DirectoryWatchTreeView@nmui@@UAEXABVDirectoryWatchEvent@2@@Z  (0000F720)
               4696 1257   ?onYes@Dialog@nmui@@IAEXAAVwxCommandEvent@@@Z  (0004BCC0)
               4697 1258   ?onYesToAll@Dialog@nmui@@IAEXAAVwxCommandEvent@@@Z  (0004BD40)
               4698 1259   ?outputDebugString@FiniteStateMachine@nmui@@IBEXPB_W@Z  (00020840)
               4699 125A   ?outputDebugString@StateManager@nmui@@ABEXPB_WPBVBaseState@2@@Z  (00011860)
               4700 125B   ?paint@Dialog@nmui@@IAEXIIJ@Z  (0004BDE0)
               4701 125C   ?paint@SelectionBorder@nmui@@UBEXPAVPanel@2@PAVwxDC@@@Z  (000A5610)
               4702 125D   ?paintBackground@NMRollupHeading@nmui@@IAEXPAVwxDC@@ABVwxRect@@@Z  (00080E80)
               4703 125E   ?paintBadge@NMPalette@nmui@@AAEXPBVNMPaletteItem@2@ABVwxRect@@AAVwxDC@@@Z  (00073320)
               4704 125F   ?paintCustomLayout@NMPalette@nmui@@QAEXPAVNMPaletteItem@2@AAVwxDC@@PAVGUIServices@2@@Z  (00074980)
               4705 1260   ?paintIcons@NMPalette@nmui@@QAEXPAVNMPaletteItem@2@AAVwxDC@@PAVGUIServices@2@@Z  (00075090)
               4706 1261   ?paintList@NMPalette@nmui@@QAEXPAVNMPaletteItem@2@AAVwxDC@@PAVGUIServices@2@@Z  (00074C90)
               4707 1262   ?paintThumbnails@NMPalette@nmui@@QAEXPAVNMPaletteItem@2@AAVwxDC@@PAVGUIServices@2@@Z  (000784D0)
               4708 1263   ?pan32@Icons@nmui@@3PAPBDA  (001C81D8)
               4709 1264   ?pasteFromClipboard@NMSimpleTextCtrl@nmui@@QAE_NXZ  (0009EB80)
               4710 1265   ?pixelsToPosition@NMSimpleTextCtrl@nmui@@IBEHH@Z  (0009D710)
               4711 1266   ?plotMarkers@NMSimpleGraph@nmui@@IAEXPAVwxDC@@ABVNMSimpleGraphAxes@2@@Z  (0008D290)
               4712 1267   ?popNextTask@FileResourceManager@nmui@@AAEPAUResourceTask@2@XZ  (0001C870)
               4713 1268   ?popNextUpdateAction@FileResourceManager@nmui@@AAEPAUUpdateAction@2@XZ  (0001BA70)
               4714 1269   ?popWindow@PanelBuilder@nmui@@IAEXXZ  (000A6980)
               4715 126A   ?populateChoiceList@NMIncrementalChoiceDialog@nmui@@IAEXXZ  (00057AE0)
               4716 126B   ?popup@PopupPanel@nmui@@UAEXXZ  (0007CA80)
               4717 126C   ?popupMenu@Dialog@nmui@@QAEXABVMenu@2@VwxPoint@@PAVwxEvtHandler@@@Z  (0004BA90)
               4718 126D   ?popupMenu@MenuBar@nmui@@QAEXPAVMenuItem@2@@Z  (00069430)
               4719 126E   ?popupMenu@NMScrollPanel@nmui@@UAEXABVMenu@2@VwxPoint@@PAVwxEvtHandler@@@Z  (00089C50)
               4720 126F   ?popupMenu@NMScrollWindow@nmui@@UAEXABVMenu@2@VwxPoint@@PAVwxEvtHandler@@@Z  (0008AAD0)
               4721 1270   ?popupMenu@Window@nmui@@UAEXABVMenu@2@VwxPoint@@PAVwxEvtHandler@@@Z  (000A63F0)
               4722 1271   ?popupTextBox@NMListControl@nmui@@QAEPAVNMSimpleTextCtrl@2@PAVNMListItem_@2@HABVNMStyle@2@ABVwxValidator@@@Z  (0005C280)
               4723 1272   ?popupTextBox@TreeControl@nmui@@QAEPAVNMSimpleTextCtrl@2@PAVTreeItem@2@HABVNMStyle@2@ABVwxValidator@@@Z  (000B80C0)
               4724 1273   ?popupWidget@NMListControl@nmui@@QAEXPAVwxWindow@@PAVNMListItem_@2@HH@Z  (0005BF60)
               4725 1274   ?popupWidget@TreeControl@nmui@@QAEXPAVwxWindow@@PAVTreeItem@2@H@Z  (000B7E10)
               4726 1275   ?poseDirectoryDialog@DirectoryControl@nmui@@MAE_NABVwxString@@PAV3@@Z  (0000A070)
               4727 1276   ?poseFileDialog@FilenameControl@nmui@@MAE_NABVwxString@@0PAV3@@Z  (00014690)
               4728 1277   ?positionToPixels@NMSimpleTextCtrl@nmui@@IBEHH@Z  (0009D660)
               4729 1278   ?postDrawItem@NavigatorItemType@nmui@@UAEXPAVNavigatorTreeItem@2@AAVwxDC@@H@Z  (00099C50)
               4730 1279   ?postMessage@BaseState@nmui@@IAEXABV?$basic_string@_WU?$char_traits@_W@std@@V?$allocator@_W@2@@std@@IPAX@Z  (00012C50)
               4731 127A   ?postMessage@BaseState@nmui@@IAEXIPAX@Z  (00012B70)
               4732 127B   ?preDrawItem@NavigatorItemType@nmui@@UAEXPAVNavigatorTreeItem@2@AAVwxDC@@H@Z  (00099C50)
               4733 127C   ?prepareCheckBoxDeviceContext@CellRenderer@nmui@@MAEXXZ  (0000A8C0)
               4734 127D   ?prepareColourSwatchDeviceContext@CellRenderer@nmui@@MAEXXZ  (0000A8C0)
               4735 127E   ?prepareColumnWindow@TreeItem@nmui@@IAEXHPAVwxWindow@@@Z  (000B2CB0)
               4736 127F   ?prepareDeviceContext@CellRenderer@nmui@@MAEXJ@Z  (0003AEA0)
               4737 1280   ?prepareImageDeviceContext@CellRenderer@nmui@@MAEXXZ  (0000A8C0)
               4738 1281   ?prepareRenderer@CellRenderer@nmui@@QAE_NPAVNMListItem_@2@H_N1@Z  (0003A900)
               4739 1282   ?prepareTextDeviceContext@CellRenderer@nmui@@MAEXXZ  (0003AF40)
               4740 1283   ?prepareTextDeviceContext@TreeItem@nmui@@MAEXAAVwxDC@@H@Z  (000B1C80)
               4741 1284   ?process@LuaArgumentProcessor@nmui@@QAE_NPAVLuaState@LuaPlus@@@Z  (00032430)
               4742 1285   ?processLine@AutoCompleteDictionary@nmui@@IAEXAAVwxString@@@Z  (000067C0)
               4743 1286   ?processLua@NMScriptControl@nmui@@MAEHPAVwxString@@0@Z  (00086C90)
               4744 1287   ?processMessageQueue@GuiController@nmui@@AAEXXZ  (000216C0)
               4745 1288   ?processThreadResults@FileResourceManager@nmui@@MAEXXZ  (000205A0)
               4746 1289   ?processUpdateActions@FileResourceManager@nmui@@AAEXXZ  (000200E0)
               4747 128A   ?promoteCategory@TaskList@nmui@@QAE_NPB_W@Z  (0009ADF0)
               4748 128B   ?pushSizer@PanelBuilder@nmui@@IAEXPAVwxSizer@@HH@Z  (000AA060)
               4749 128C   ?pushStaticSizer@PanelBuilder@nmui@@IAEPAVNMStaticBox@2@ABVwxString@@HHH@Z  (000AA330)
               4750 128D   ?pushWindow@PanelBuilder@nmui@@IAEXPAVwxWindow@@H@Z  (000AA0C0)
               4751 128E   ?queueMessage@GuiController@nmui@@AAEXHPAX@Z  (00021F50)
               4752 128F   ?queueMessage@StateManager@nmui@@AAEXABUPostedMessage@2@@Z  (00012690)
               4753 1290   ?reInit@StateManager@nmui@@QAEXXZ  (000137D0)
               4754 1291   ?reParent@GuiNode@nmui@@QAE_NPAV12@@Z  (00024940)
               4755 1292   ?rebuildChildPrevNextPointers@TreeControl@nmui@@IAEXPAVTreeItem@2@@Z  (000B4EA0)
               4756 1293   ?rebuildIDs@FileHistory@nmui@@IAEXXZ  (000502C0)
               4757 1294   ?rebuildItemsAfterSort@NMListControl@nmui@@IAEXXZ  (0005E7A0)
               4758 1295   ?rebuildRenderingCachesForTabs@Notebook@nmui@@IAEXXZ  (0006FA00)
               4759 1296   ?rebuildTaskList@TaskListDialog@nmui@@AAEXXZ  (0009B460)
               4760 1297   ?recacheSize@NMProgressBar@nmui@@IAEXXZ  (0007E100)
               4761 1298   ?recalcHeaderHeight@NMColumnWindow@nmui@@IAEXXZ  (00042670)
               4762 1299   ?recalculateChannelMaximums@NMSimpleGraph@nmui@@QAEXXZ  (0008DEC0)
               4763 129A   ?recalculateFiltering@TreeControl@nmui@@IAEXXZ  (000B4D90)
               4764 129B   ?recalculateLineHeight@NMComboBoxListCtrl@nmui@@QAEXXZ  (00045F50)
               4765 129C   ?recalculateVisibleItems@TreeControl@nmui@@IAE_NXZ  (000B3A50)
               4766 129D   ?recursivelyConnectToChildCaptureEvents@PopupPanel@nmui@@IAEXPAVwxWindow@@@Z  (0007C980)
               4767 129E   ?recursivelyDisconnectFromChildCaptureEvents@PopupPanel@nmui@@IAEXPAVwxWindow@@@Z  (0007CA00)
               4768 129F   ?recursivelyEnsureFocusReliantDataApplied@PopupPanel@nmui@@IAEXPAVwxWindow@@@Z  (0007C410)
               4769 12A0   ?redraw@AppMainLoop@nmui@@QAEXXZ  (00001930)
               4770 12A1   ?redraw@TreeControl@nmui@@IAEXXZ  (000B0F30)
               4771 12A2   ?redrawDisabled@NMScrollWindow@nmui@@QBE_NXZ  (0008AAC0)
               4772 12A3   ?redrawTabBarArea@Notebook@nmui@@IAEXXZ  (0006B990)
               4773 12A4   ?refreshButton@NMRollupSection@nmui@@IAEX_N@Z  (00082D00)
               4774 12A5   ?refreshCursor@NMSimpleTextCtrl@nmui@@IAEXXZ  (0009D5D0)
               4775 12A6   ?refreshView@NMSimpleTextCtrl@nmui@@IAEXXZ  (000B0F30)
               4776 12A7   ?registerColumnHeaderStates@NMColumnWindow@nmui@@MAEXXZ  (000422A0)
               4777 12A8   ?registerControlStates@NMRollupContainer@nmui@@IAEXXZ  (00082ED0)
               4778 12A9   ?registerGraphControlStates@NMSimpleGraph@nmui@@MAEXXZ  (0008C290)
               4779 12AA   ?registerListControlStates@NMListControl@nmui@@MAEXXZ  (00059E00)
               4780 12AB   ?registerNavigatorGroup@NavigatorTree@nmui@@QAEXPAVNavigatorGroup@2@_N@Z  (00037000)
               4781 12AC   ?registerNavigatorItemType@NavigatorTree@nmui@@QAEXPAVNavigatorItemType@2@@Z  (00036EA0)
               4782 12AD   ?registerRenderCallback@RawGLCanvas@nmui@@QAEXPAVEATRenderCallback@2@@Z  (000AC050)
               4783 12AE   ?registerState@FiniteStateMachine@nmui@@QAE_NIPAVFSMState@2@@Z  (00022060)
               4784 12AF   ?registerState@StateManager@nmui@@AAEXABV?$basic_string@_WU?$char_traits@_W@std@@V?$allocator@_W@2@@std@@PAVBaseState@2@@Z  (000124A0)
               4785 12B0   ?registerStateMachine@GuiNodeManager@nmui@@QAEXHPAVGuiNodeStateMachine@2@@Z  (00024800)
               4786 12B1   ?registerStates@NMSimpleTextCtrl@nmui@@IAEXXZ  (0009E4D0)
               4787 12B2   ?registerStates@TreeControl@nmui@@UAEXXZ  (000B0D10)
               4788 12B3   ?registerUI@GuiNodeManager@nmui@@QAEXHPAVGuiNodeUI@2@@Z  (00024820)
               4789 12B4   ?release@nmuiMonitor@nmui@@MAEXXZ  (00034590)
               4790 12B5   ?release@win32Monitor@nmui@@MAEXXZ  (00034750)
               4791 12B6   ?releaseContextForBitmap@RawGLCanvas@nmui@@UAEXAAVwxDIB@@@Z  (000ABE20)
               4792 12B7   ?releaseGLObjects@RawGLCanvas@nmui@@UAEXXZ  (0000A8C0)
               4793 12B8   ?releaseResource@FileResourceManager@nmui@@QAEXABVwxString@@PAVResourceChangeContext@2@@Z  (0001FF70)
               4794 12B9   ?releaseResource@FileResourceManager@nmui@@QAEXIPAVResourceChangeContext@2@@Z  (0001AAE0)
               4795 12BA   ?releaseState@GuiNodeState@nmui@@QAEXXZ  (00023570)
               4796 12BB   ?releaseState@GuiNodeStateMachine@nmui@@QAEXXZ  (00023140)
               4797 12BC   ?releaseState@GuiNodeStateManager@nmui@@QAEXXZ  (00022870)
               4798 12BD   ?remove@Menu@nmui@@QAEXH@Z  (00067700)
               4799 12BE   ?remove@Menu@nmui@@QAEXPAVMenuItem@2@@Z  (00066FF0)
               4800 12BF   ?remove@NMSimpleTextCtrl@nmui@@QAEXHH@Z  (0009E6A0)
               4801 12C0   ?remove@Notebook@nmui@@UAE_NPAVwxWindow@@@Z  (00071900)
               4802 12C1   ?removeActiveStates@StateManager@nmui@@AAEXPBVBaseState@2@0@Z  (00012560)
               4803 12C2   ?removeAt@Menu@nmui@@QAEXH@Z  (00067020)
               4804 12C3   ?removeChild@GuiNode@nmui@@QAE_NH@Z  (00024680)
               4805 12C4   ?removeChild@GuiNode@nmui@@QAE_NPAV12@@Z  (000248F0)
               4806 12C5   ?removeDirectory@DirectoryWatchTreeView@nmui@@QAE_NABVwxString@@@Z  (0000D030)
               4807 12C6   ?removeDirectory@FileResourceManager@nmui@@QAE_NI_N@Z  (0001DE00)
               4808 12C7   ?removeFromHistory@FileHistory@nmui@@UAEXH@Z  (00050770)
               4809 12C8   ?removeFromPathItemMapRecursively@DirectoryWatchTreeView@nmui@@AAEXPAUWatchedPathUserData@12@PAVTreeItem@2@AAV?$set@PAVTreeItem@nmui@@U?$less@PAVTreeItem@nmui@@@std@@V?$allocator@PAVTreeItem@nmui@@@4@@std@@@Z  (0000FD70)
               4810 12C9   ?removeFromWatchedPath@DirectoryWatchTreeView@nmui@@AAEXPAUWatchedPathUserData@12@ABVwxString@@AAV?$set@PAVTreeItem@nmui@@U?$less@PAVTreeItem@nmui@@@std@@V?$allocator@PAVTreeItem@nmui@@@4@@std@@@Z  (00010090)
               4811 12CA   ?removeMacroReplacement@NMMacroReplacementTool@nmui@@QAEXABVwxString@@@Z  (00065B00)
               4812 12CB   ?removeObserver@TaskList@nmui@@QAEXPAVTaskListObserver@2@@Z  (0009A340)
               4813 12CC   ?removePaletteItem@NMPalette@nmui@@QAE_NPAVNMPaletteItem@2@@Z  (000748F0)
               4814 12CD   ?removeRedrawClient@AppMainLoop@nmui@@QAEXPAVAppMainLoopRedrawClient@2@@Z  (00001AC0)
               4815 12CE   ?removeRedundantTasks@FileResourceManager@nmui@@AAEHPBUResourceTask@2@@Z  (0001BC60)
               4816 12CF   ?removeResourceObserver@FileResourceManager@nmui@@UAEXPAVFilteredResourceObserver@2@@Z  (000200C0)
               4817 12D0   ?removeResourceObserver@FileResourceManager@nmui@@UAEXPAVResourceObserver@2@@Z  (00020030)
               4818 12D1   ?removeResources@FilteredResourceObserver@nmui@@IAEXABV?$hashmap_dense_dynamic@I_N@nmtl@@@Z  (00019CA0)
               4819 12D2   ?removeSubstate@BaseState@nmui@@IAE_NPAV12@@Z  (00013530)
               4820 12D3   ?removeTask@TaskList@nmui@@QAE_NPAVTaskListItemBase@2@@Z  (0009A800)
               4821 12D4   ?removeTimerClient@AppMainLoop@nmui@@QAEXPAVAppMainLoopTimerClient@2@@Z  (00001AB0)
               4822 12D5   ?removeWatchPath@FileResourceManager@nmui@@AAEXI@Z  (0001BDF0)
               4823 12D6   ?removeWindow@NMSwitchablePanel@nmui@@QAEXPAVwxWindow@@@Z  (00099760)
               4824 12D7   ?removeWindows@NMToolPanel@nmui@@QAEXPAVwxWindow@@0@Z  (000A1DC0)
               4825 12D8   ?render@CellRenderer@nmui@@QAEXPAVwxDC@@J@Z  (0003BD20)
               4826 12D9   ?render@RawGLCanvas@nmui@@QAEXXZ  (000AB8A0)
               4827 12DA   ?renderCollapseBar@NMSplitter@nmui@@IAEXAAVwxDC@@@Z  (000958B0)
               4828 12DB   ?renderColumnHeader@NMColumnWindow@nmui@@MAEXAAVwxDC@@HABVwxRect@@@Z  (00043520)
               4829 12DC   ?renderColumnHeaders@NMColumnWindow@nmui@@MAEXAAVwxDC@@@Z  (00043870)
               4830 12DD   ?renderHighlightAbove@NMRollupContainer@nmui@@IAEXPAVNMRollupSection@2@@Z  (00084AE0)
               4831 12DE   ?renderHighlightBelow@NMRollupContainer@nmui@@IAEXPAVNMRollupSection@2@@Z  (00084B70)
               4832 12DF   ?renderListItems@NMListControl@nmui@@IAEXAAVwxDC@@@Z  (0005EFB0)
               4833 12E0   ?renderLockedWarning@NMSplitter@nmui@@IAEXAAVwxDC@@@Z  (00095C00)
               4834 12E1   ?renderNavArrows@Notebook@nmui@@IAEXAAVwxPaintDC@@AAVwxRect@@@Z  (0006BA80)
               4835 12E2   ?renderSashBackground@NMSplitter@nmui@@IAEXAAVwxDC@@@Z  (000956E0)
               4836 12E3   ?renderSashTracker@NMSplitter@nmui@@IAEXHH@Z  (00093CC0)
               4837 12E4   ?renderText@CellRenderer@nmui@@IAEXABVwxString@@W4TextTruncation@GUIServices@2@@Z  (0003B340)
               4838 12E5   ?renderTreeItems@TreeControl@nmui@@IAEXAAVwxDC@@@Z  (000BB180)
               4839 12E6   ?reorderSection@NMRollupContainer@nmui@@UAE_NPAVNMRollupSection@2@I@Z  (000857D0)
               4840 12E7   ?reorderWindow@Notebook@nmui@@QAE_NPAVwxWindow@@0@Z  (00070960)
               4841 12E8   ?reparentCursor@Cursors@nmui@@3PAPBDA  (001C1368)
               4842 12E9   ?replaceWindow@NMSplitter@nmui@@QAE_NPAVwxWindow@@0@Z  (00096680)
               4843 12EA   ?reprocessResources@FileResourceManager@nmui@@QAEXABV?$hashmap_dense_dynamic@I_N@nmtl@@@Z  (0001EAF0)
               4844 12EB   ?requestClearHighlightedItems@NMListControl@nmui@@QAEXH@Z  (0005A490)
               4845 12EC   ?requestHighlightItems@NMListControl@nmui@@QAEXHABVwxRect@@ABVwxPoint@@_N@Z  (00062D00)
               4846 12ED   ?requestHighlightItems@NMListControl@nmui@@QAEXHABVwxRect@@_N@Z  (00062CC0)
               4847 12EE   ?requestItemHitTest@NMListControl@nmui@@QBEPAVNMListItem_@2@ABVwxPoint@@PAH@Z  (0005A4A0)
               4848 12EF   ?requestSelectAll@NMListControl@nmui@@QAEXXZ  (0005A3F0)
               4849 12F0   ?requestSelectEnd@NMListControl@nmui@@QAEXPAVNMListItem_@2@_N1@Z  (0005A470)
               4850 12F1   ?requestSelectExclusively@NMListControl@nmui@@QAEXPAVNMListItem_@2@@Z  (0005A480)
               4851 12F2   ?requestSelectHome@NMListControl@nmui@@QAEXPAVNMListItem_@2@_N1@Z  (0005A460)
               4852 12F3   ?requestSelectNextColumn@NMListControl@nmui@@QAEXPAVNMListItem_@2@_N1@Z  (0005A400)
               4853 12F4   ?requestSelectNextRow@NMListControl@nmui@@QAEXPAVNMListItem_@2@_N1@Z  (0005A410)
               4854 12F5   ?requestSelectPageDown@NMListControl@nmui@@QAEXPAVNMListItem_@2@_N1@Z  (0005A450)
               4855 12F6   ?requestSelectPageUp@NMListControl@nmui@@QAEXPAVNMListItem_@2@_N1@Z  (0005A440)
               4856 12F7   ?requestSelectPreviousColumn@NMListControl@nmui@@QAEXPAVNMListItem_@2@_N1@Z  (0005A420)
               4857 12F8   ?requestSelectPreviousRow@NMListControl@nmui@@QAEXPAVNMListItem_@2@_N1@Z  (0005A430)
               4858 12F9   ?requiresLowerSeparator@TreeControl@nmui@@MAE_NABVTreeItem@2@@Z  (000B4FE0)
               4859 12FA   ?requiresUpperSeparator@TreeControl@nmui@@MAE_NABVTreeItem@2@@Z  (000B4FC0)
               4860 12FB   ?reset@LuaArgumentProcessor@nmui@@QAEXXZ  (00032350)
               4861 12FC   ?resetAllChannels@NMSimpleGraph@nmui@@QAEXXZ  (0008D9B0)
               4862 12FD   ?resetDefaultRenderOrder@CellRenderer@nmui@@QAEXXZ  (0003B0E0)
               4863 12FE   ?resetFrame@NMSimpleGraph@nmui@@QAEXXZ  (0008C050)
               4864 12FF   ?resetMaximums@NMSimpleGraph@nmui@@IAEXXZ  (0008BF10)
               4865 1300   ?resetModifiedFlag@NMFrameRateControl@nmui@@QAEXXZ  (00054500)
               4866 1301   ?resetModifiedFlag@NMSimpleTextCtrl@nmui@@QAEXXZ  (0009D430)
               4867 1302   ?resetOrigin@GuiNodeTraverseVisitor@nmui@@IAEXXZ  (00025140)
               4868 1303   ?resetProfileEntryRecursively@NMProfilerMinMaxPeakStrategy@nmui@@AAEXPAUProfilerEntry@12@@Z  (0007D480)
               4869 1304   ?resize@RawGLCanvas@nmui@@UAEXHH@Z  (00099C40)
               4870 1305   ?resizeAllToFit@Notebook@nmui@@IAEXXZ  (0006FCA0)
               4871 1306   ?resizeCells@NMListItem_@nmui@@QAEXI@Z  (00061C70)
               4872 1307   ?resizeCells@TreeItem@nmui@@QAEXI@Z  (000BCB90)
               4873 1308   ?resortColumn@NMColumnWindow@nmui@@QAEXXZ  (00044610)
               4874 1309   ?resourceExists@FileResourceManager@nmui@@QBE_NI@Z  (00018800)
               4875 130A   ?resourceObserverFilterChanged@FileResourceManager@nmui@@QAE_NPAVFilteredResourceObserver@2@ABV?$hashmap_dense_dynamic@I_N@nmtl@@@Z  (0001AFE0)
               4876 130B   ?resourceObserverFilterChanged@FileResourceManager@nmui@@QAE_NPAVFilteredResourceObserver@2@_N@Z  (0001AC60)
               4877 130C   ?restartAutoCheckTimer@NMScriptControl@nmui@@QAEXXZ  (00086930)
               4878 130D   ?restoreFocus@MenuBar@nmui@@QAEXXZ  (00068EB0)
               4879 130E   ?rethinkScrollButtonStates@NMIconBar@nmui@@IAEXXZ  (000553A0)
               4880 130F   ?revealRect@NMColumnWindow@nmui@@UAEXABVwxRect@@_N@Z  (00042770)
               4881 1310   ?revealRect@NMScrollWindow@nmui@@UAEXABVwxRect@@_N@Z  (0008A3B0)
               4882 1311   ?rotate32@Icons@nmui@@3PAPBDA  (001C82F8)
               4883 1312   ?rowExpands@PanelBuilder@nmui@@QAEXHH@Z  (000A65F0)
               4884 1313   ?s_debuggingEnabled@FiniteStateMachine@nmui@@1_NA  (001C991C)
               4885 1314   ?s_debuggingEnabled@StateManager@nmui@@0_NA  (001C98D8)
               4886 1315   ?s_logger@FiniteStateMachine@nmui@@1PAVBasicLogger@NMutils@@A  (001C9920)
               4887 1316   ?s_logger@GuiNodeManager@nmui@@0PAVBasicLogger@NMutils@@A  (001C9928)
               4888 1317   ?s_logger@StateManager@nmui@@0PAVBasicLogger@NMutils@@A  (001C98DC)
               4889 1318   ?s_profilingEnabled@NMListControl@nmui@@1_NA  (001C9D04)
               4890 1319   ?sashCollapseHitTest@NMSplitter@nmui@@IAE_NHH@Z  (00094340)
               4891 131A   ?sashHitTest@NMSplitter@nmui@@IAE_NHHH@Z  (00095410)
               4892 131B   ?satisfiesFilter@FileResourceManager@nmui@@QBE_NIPAVFilteredResourceObserver@2@@Z  (00018930)
               4893 131C   ?save@AutoCompleteDictionary@nmui@@UAE_NAAVwxString@@@Z  (00005AE0)
               4894 131D   ?saveToConfig@FileHistory@nmui@@IAEXXZ  (00050370)
               4895 131E   ?scaleWindow@GuiNodeWindowBase@nmui@@QAE_NMMMMMMMMMMMM@Z  (00026FC0)
               4896 131F   ?screenToGraph@NMSimpleGraphAxes@nmui@@QBEXAAM0@Z  (0008D060)
               4897 1320   ?screenToGraphX@NMSimpleGraphAxes@nmui@@QBEMM@Z  (0008C960)
               4898 1321   ?screenToGraphY@NMSimpleGraphAxes@nmui@@QBEMM@Z  (0008C9C0)
               4899 1322   ?scrollBottom@NMComboBoxListCtrl@nmui@@IAEXXZ  (00047880)
               4900 1323   ?scrollDecrease@NMScrollBar@nmui@@QAEXXZ  (00087F10)
               4901 1324   ?scrollDown@NMComboBoxListCtrl@nmui@@IAEXXZ  (000477D0)
               4902 1325   ?scrollDown@NMListControl@nmui@@QAEXH@Z  (0005A200)
               4903 1326   ?scrollIncrease@NMScrollBar@nmui@@QAEXXZ  (00087F30)
               4904 1327   ?scrollPageDecrease@NMScrollBar@nmui@@QAEXXZ  (00087F50)
               4905 1328   ?scrollPageDown@NMComboBoxListCtrl@nmui@@IAEXXZ  (00047810)
               4906 1329   ?scrollPageIncrease@NMScrollBar@nmui@@QAEXXZ  (00087F70)
               4907 132A   ?scrollPageUp@NMComboBoxListCtrl@nmui@@IAEXXZ  (000470B0)
               4908 132B   ?scrollToEnd@NMScrollBar@nmui@@QAEXXZ  (00088010)
               4909 132C   ?scrollToStart@NMScrollBar@nmui@@QAEXXZ  (00087F90)
               4910 132D   ?scrollTop@NMComboBoxListCtrl@nmui@@IAEXXZ  (00046120)
               4911 132E   ?scrollUp@NMComboBoxListCtrl@nmui@@IAEXXZ  (00046140)
               4912 132F   ?scrollUp@NMListControl@nmui@@QAEXH@Z  (0005A1D0)
               4913 1330   ?searchAndReplaceString@nmui@@YAXAAVwxString@@ABV2@1_NH@Z  (00003DC0)
               4914 1331   ?searchCancelled@NMFilterCtrl@nmui@@QAEXXZ  (000521C0)
               4915 1332   ?select@NMListControl@nmui@@QAEXPAVNMListItem_@2@_N1@Z  (00060B30)
               4916 1333   ?select@NMListItem_@nmui@@QAEX_N@Z  (00027C50)
               4917 1334   ?select@NMSimpleTextCtrl@nmui@@QAEXHH@Z  (0009E830)
               4918 1335   ?selectAll@NMListControl@nmui@@QAEXXZ  (00062910)
               4919 1336   ?selectAll@NMSimpleTextCtrl@nmui@@QAEXXZ  (0009E930)
               4920 1337   ?selectAndFocusText@NMComboBox@nmui@@QAEXXZ  (00046AB0)
               4921 1338   ?selectEnd@NMListControl@nmui@@QAEXPAVNMListItem_@2@_N1@Z  (00063020)
               4922 1339   ?selectExclusively@NMListControl@nmui@@QAEXPAVNMListItem_@2@@Z  (00060C90)
               4923 133A   ?selectExclusivelyByIndex@NMListControl@nmui@@QAEXH@Z  (00060D50)
               4924 133B   ?selectHome@NMListControl@nmui@@QAEXPAVNMListItem_@2@_N1@Z  (00062FB0)
               4925 133C   ?selectItem@NMIconBar@nmui@@QAEXPAVNMIconBarItem_@2@@Z  (000558C0)
               4926 133D   ?selectItem@NMIconBarSlots@nmui@@QAEXPAVNMIconBarItem_@2@@Z  (000554A0)
               4927 133E   ?selectItem@NMPalette@nmui@@QAEXPAVNMPaletteItem@2@@Z  (00077220)
               4928 133F   ?selectItem@NMRadioBox@nmui@@QAEXH@Z  (0007F3F0)
               4929 1340   ?selectItemByIndex@NMIconBar@nmui@@QAEXH@Z  (00056880)
               4930 1341   ?selectItemByIndex@NMIconBarSlots@nmui@@QAEXH@Z  (00056070)
               4931 1342   ?selectItemByIndex@NMListControl@nmui@@QAEXH_N@Z  (00060C40)
               4932 1343   ?selectLine@TextControl@nmui@@UAEXH@Z  (000ACD70)
               4933 1344   ?selectLineRange@TextControl@nmui@@QAEXHH@Z  (000AD690)
               4934 1345   ?selectMenuButton@PopupMenu@nmui@@QAE_NPAVMenuItem@2@@Z  (00079A70)
               4935 1346   ?selectMenuItem@PopupMenu@nmui@@QAE_NPAVMenuItem@2@@Z  (0007B9E0)
               4936 1347   ?selectNextColumn@NMListControl@nmui@@QAEXPAVNMListItem_@2@_N1@Z  (0005BEA0)
               4937 1348   ?selectNextRow@NMListControl@nmui@@QAEXPAVNMListItem_@2@_N1@Z  (00062A10)
               4938 1349   ?selectNextWindow@Notebook@nmui@@QAE_N_N0@Z  (0006B500)
               4939 134A   ?selectPageDown@NMListControl@nmui@@QAEXPAVNMListItem_@2@_N1@Z  (00062F40)
               4940 134B   ?selectPageUp@NMListControl@nmui@@QAEXPAVNMListItem_@2@_N1@Z  (00062ED0)
               4941 134C   ?selectPreviousColumn@NMListControl@nmui@@QAEXPAVNMListItem_@2@_N1@Z  (0005BE40)
               4942 134D   ?selectPreviousRow@NMListControl@nmui@@QAEXPAVNMListItem_@2@_N1@Z  (00062960)
               4943 134E   ?selectRange@NMListControl@nmui@@QAEXPAVNMListItem_@2@0_N@Z  (00060DA0)
               4944 134F   ?selectWindow@Notebook@nmui@@UAE_NPAVwxWindow@@@Z  (0006FFD0)
               4945 1350   ?selectionBegin@NMListControl@nmui@@QBE?AV?$_Vector_const_iterator@PAVNMListItem_@nmui@@V?$allocator@PAVNMListItem_@nmui@@@std@@@std@@XZ  (0005D340)
               4946 1351   ?selectionEnd@NMListControl@nmui@@QBE?AV?$_Vector_const_iterator@PAVNMListItem_@nmui@@V?$allocator@PAVNMListItem_@nmui@@@std@@@std@@XZ  (0005D380)
               4947 1352   ?selectionEventGroupingBegin@NMListControl@nmui@@QAEXXZ  (0005A1A0)
               4948 1353   ?selectionEventGroupingBegin@TreeControl@nmui@@QAEXXZ  (000B0EB0)
               4949 1354   ?selectionEventGroupingEnd@NMListControl@nmui@@QAEXXZ  (0005B270)
               4950 1355   ?selectionEventGroupingEnd@TreeControl@nmui@@QAEXXZ  (000BA130)
               4951 1356   ?selectionEventsEnabled@TreeControl@nmui@@QBE_NXZ  (000B0EA0)
               4952 1357   ?sendAllWindowsToOtherNotebook@Notebook@nmui@@QAE_NPAV12@@Z  (00070A60)
               4953 1358   ?sendClickEvent@Button@nmui@@QAE_NXZ  (00038A20)
               4954 1359   ?sendComboChangedEvent@NMComboBox@nmui@@MAEXXZ  (00049200)
               4955 135A   ?sendComboExpandedEvent@NMComboBox@nmui@@MAEXXZ  (00046BE0)
               4956 135B   ?sendExpandCollapseEvent@NMRollupSection@nmui@@IAE_NXZ  (00084EE0)
               4957 135C   ?sendItemSelectedEvent@NMRadioBox@nmui@@IAE_NXZ  (0007F420)
               4958 135D   ?sendMessage@GuiController@nmui@@QAEXHPAX@Z  (000220B0)
               4959 135E   ?sendMessage@StateManager@nmui@@QAEXIPAX@Z  (00014010)
               4960 135F   ?sendRightClickEvent@Button@nmui@@QAE_NXZ  (00038AD0)
               4961 1360   ?sendWindowToOtherNotebook@Notebook@nmui@@QAE_NPAV12@PAVwxWindow@@1@Z  (000708F0)
               4962 1361   ?set@NMExpFloatRange@nmui@@QAE_NMMM@Z  (0004E850)
               4963 1362   ?setActiveNode@GuiNodeStateManager@nmui@@QAEXPAVGuiNode@2@@Z  (00023160)
               4964 1363   ?setAlwaysTryToFocusChildren@Panel@nmui@@QAEX_N@Z  (000A5140)
               4965 1364   ?setAssignedUserData@MenuItem@nmui@@QAEXPAVMenuItemUserData@2@@Z  (00066380)
               4966 1365   ?setAttributes@NMListItem_@nmui@@QAEXPAVNMColumnItemAttr@2@@Z  (00027D30)
               4967 1366   ?setAttributes@TreeItem@nmui@@QAEXPAVNMColumnItemAttr@2@@Z  (000B1420)
               4968 1367   ?setAutoCheckInterval@NMScriptControl@nmui@@QAEXH@Z  (000868D0)
               4969 1368   ?setAutoCompleteDictionary@TextControl@nmui@@QAEXPAVAutoCompleteDictionary@2@@Z  (000AE010)
               4970 1369   ?setAxes@NMSimpleGraph@nmui@@QAEXABVNMSimpleGraphAxes@2@@Z  (0008D090)
               4971 136A   ?setAxesMode@NMSimpleGraph@nmui@@QAEXW4eAxesMode@12@@Z  (0008BC90)
               4972 136B   ?setBBox@MenuItem@nmui@@QAEXVwxRect@@@Z  (00066270)
               4973 136C   ?setBackgroundColour@TextControl@nmui@@MAEXHABVwxColour@@@Z  (000ACBF0)
               4974 136D   ?setBackgroundColour@TextControl@nmui@@UAEXABVwxColour@@@Z  (000AC9C0)
               4975 136E   ?setBadge@NMPaletteItem@nmui@@QAEXABVwxIcon@@@Z  (00072E90)
               4976 136F   ?setBitmap@Button@nmui@@QAEXABVwxBitmap@@@Z  (00038FE0)
               4977 1370   ?setBitmap@Menu@nmui@@QAEXHPAVwxBitmap@@@Z  (00067290)
               4978 1371   ?setBitmap@MenuItem@nmui@@QAEXPAVwxBitmap@@@Z  (00066140)
               4979 1372   ?setBitmap@NMStaticBitmap@nmui@@QAEXABVwxBitmap@@@Z  (00097400)
               4980 1373   ?setBold@TreeItem@nmui@@QAEX_N@Z  (000B1590)
               4981 1374   ?setBoolValue@NMSimpleMultiOptionDialog@nmui@@QAEXABVwxString@@_N@Z  (000906C0)
               4982 1375   ?setBorder@Panel@nmui@@QAEXPAVPanelBorder@2@@Z  (000A5C30)
               4983 1376   ?setBorder@PanelBuilder@nmui@@QAEXH@Z  (000663B0)
               4984 1377   ?setBottomBorderSize@NMRollupSection@nmui@@QAEXH@Z  (00082CA0)
               4985 1378   ?setBraceHighlightColour@TextControl@nmui@@UAEXABVwxColour@@@Z  (000ACB90)
               4986 1379   ?setButton@MenuItem@nmui@@QAEX_N@Z  (00066100)
               4987 137A   ?setButtonHelpText@NMToolBar@nmui@@QAEXHABVwxString@@@Z  (000A3420)
               4988 137B   ?setButtonImage@NMToolBar@nmui@@QAEXHABVwxBitmap@@@Z  (000A3450)
               4989 137C   ?setCallTipsBackgroundColour@TextControl@nmui@@UAEXABVwxColour@@@Z  (000ACC30)
               4990 137D   ?setCallTipsForegroundColour@TextControl@nmui@@UAEXABVwxColour@@@Z  (000ACC40)
               4991 137E   ?setCallTipsHighlightColour@TextControl@nmui@@UAEXABVwxColour@@@Z  (000ACC50)
               4992 137F   ?setCanBeClosed@Notebook@nmui@@QAEXPAVwxWindow@@_N@Z  (0006EA00)
               4993 1380   ?setCanBeFloating@Notebook@nmui@@QAEXPAVwxWindow@@_N@Z  (0006E9A0)
               4994 1381   ?setCanBeHidden@Notebook@nmui@@UAEXPAVwxWindow@@_N@Z  (0006E8D0)
               4995 1382   ?setCanBeReordered@NMRollupContainer@nmui@@QAEX_N@Z  (00083110)
               4996 1383   ?setCanExpand@NMRollupHeading@nmui@@QAEX_N@Z  (00080D60)
               4997 1384   ?setCanExpand@NMRollupSection@nmui@@QAEX_N@Z  (00085C10)
               4998 1385   ?setCancelText@TaskListDialog@nmui@@QAEXPB_W0@Z  (00099F90)
               4999 1386   ?setCellAttributes@NMListItem_@nmui@@QAEXHPAVNMColumnItemAttr@2@@Z  (0002E3F0)
               5000 1387   ?setCellColour@NMColumnItemAttr@nmui@@QAEXABVwxColour@@@Z  (0000C4F0)
               5001 1388   ?setCellStyle@NMListControl@nmui@@QAEXHHJ@Z  (0005E840)
               5002 1389   ?setCellStyle@NMListControl@nmui@@QAEXPAVNMListItem_@2@HJ@Z  (0005E870)
               5003 138A   ?setCellStyle@NMListItem_@nmui@@QAEXJH@Z  (0005DEC0)
               5004 138B   ?setCellsAreSelectable@NMListControl@nmui@@QAEX_N@Z  (0005A540)
               5005 138C   ?setChannelEnabled@NMSimpleGraph@nmui@@QAE_NI_N@Z  (0008DB30)
               5006 138D   ?setCheck@Menu@nmui@@QAEXHW4MenuCheck@2@@Z  (00068D60)
               5007 138E   ?setCheck@MenuItem@nmui@@QAEXW4MenuCheck@2@@Z  (00068A40)
               5008 138F   ?setCheckBoxRect@NMListItem_@nmui@@QAEXVwxRect@@H@Z  (0005ADA0)
               5009 1390   ?setCheckType@LuaSyntaxCheckEvent@nmui@@QAEXJ@Z  (00028740)
               5010 1391   ?setChecked@Button@nmui@@QAEX_N@Z  (00038960)
               5011 1392   ?setChecked@NMToolBar@nmui@@QAEXH_N@Z  (000A3390)
               5012 1393   ?setChecked@NMToolPanel@nmui@@QAEXH_N@Z  (000A3760)
               5013 1394   ?setChosenItem@NMIncrementalChoiceDialog@nmui@@IAEXXZ  (00057D20)
               5014 1395   ?setClickPosition@NotebookEvent@nmui@@QAEXVwxPoint@@@Z  (0006B2B0)
               5015 1396   ?setClientData@NMComboBox@nmui@@QAE_NHPAX@Z  (0004A0C0)
               5016 1397   ?setCollapsableSplitter@NMSplitter@nmui@@QAEX_N@Z  (00093BF0)
               5017 1398   ?setCollapseHighlight@NMSplitter@nmui@@IAEX_N@Z  (00095660)
               5018 1399   ?setCollapseParams@PanelBuilder@nmui@@QAEXH_N@Z  (000A6850)
               5019 139A   ?setCollapsed@NMSplitter@nmui@@QAEX_N0@Z  (000961B0)
               5020 139B   ?setCollapsed@Notebook@nmui@@QAEX_N@Z  (0006FDB0)
               5021 139C   ?setColour@NMColourSwatch@nmui@@QAEXABVwxColour@@M@Z  (0003EAF0)
               5022 139D   ?setColour@NMColourSwatch@nmui@@QAEXEEEE@Z  (0003ECD0)
               5023 139E   ?setColour@NMColourSwatch@nmui@@QAEXJ@Z  (0003EC50)
               5024 139F   ?setColour@NMColourSwatch@nmui@@QAEXMMMM@Z  (0003EBA0)
               5025 13A0   ?setColumn@NMColumnWindowEvent@nmui@@QAEXH@Z  (00083230)
               5026 13A1   ?setColumn@TreeEvent@nmui@@QAEXH@Z  (00072790)
               5027 13A2   ?setColumnAllowResize@NMColumnWindow@nmui@@UAEXI_N@Z  (00044030)
               5028 13A3   ?setColumnAutosize@NMColumnWindow@nmui@@UAEXI_N@Z  (00043FD0)
               5029 13A4   ?setColumnCheckboxState@NMListItem_@nmui@@QAE_NHW4CheckState@NMColumnItemAttr@2@@Z  (0005DFD0)
               5030 13A5   ?setColumnCheckboxState@TreeItem@nmui@@QAE_NHW4CheckState@NMColumnItemAttr@2@@Z  (000B3370)
               5031 13A6   ?setColumnColour@TreeItem@nmui@@QAEXIVwxColour@@@Z  (000B5B10)
               5032 13A7   ?setColumnHeaderFont@NMColumnWindow@nmui@@UAEXABVwxFont@@@Z  (00042710)
               5033 13A8   ?setColumnHeaderText@NMColumnWindow@nmui@@UAEXIABVwxString@@@Z  (00043CD0)
               5034 13A9   ?setColumnImage@NMListItem_@nmui@@QAE_NHH@Z  (0005DF00)
               5035 13AA   ?setColumnImage@TreeItem@nmui@@QAEXIH@Z  (000B5A80)
               5036 13AB   ?setColumnImageList@NMColumnWindow@nmui@@UAEXIPAVwxImageList@@@Z  (000443F0)
               5037 13AC   ?setColumnIndeterminate@TreeItem@nmui@@QAEXI_N@Z  (000B5900)
               5038 13AD   ?setColumnMinWidth@NMColumnWindow@nmui@@UAEXIH@Z  (00043ED0)
               5039 13AE   ?setColumnSorts@NMColumnWindow@nmui@@UAEXI_N@Z  (00042D10)
               5040 13AF   ?setColumnStyle@NMListControl@nmui@@QAEXHJ@Z  (000616F0)
               5041 13B0   ?setColumnText@NMListItem_@nmui@@QAE_NHABVwxString@@H@Z  (0005AAC0)
               5042 13B1   ?setColumnText@TreeItem@nmui@@QAEXIABVwxString@@@Z  (000B58A0)
               5043 13B2   ?setColumnTextTruncation@NMColumnWindow@nmui@@QAEXIW4TextTruncation@GUIServices@2@@Z  (00044110)
               5044 13B3   ?setColumnWidth@NMColumnWindow@nmui@@UAEXIH@Z  (00043E30)
               5045 13B4   ?setColumnWindow@TreeItem@nmui@@QAEXIPAVwxWindow@@@Z  (000B59E0)
               5046 13B5   ?setCompleteText@TaskListDialog@nmui@@QAEXPB_W0@Z  (00099E70)
               5047 13B6   ?setContentSize@NMPalette@nmui@@QAEXVwxSize@@@Z  (00072DD0)
               5048 13B7   ?setControlBackgroundColour@GUIServices@nmui@@QAEXABVwxColour@@@Z  (000076E0)
               5049 13B8   ?setControlEdgeColour@GUIServices@nmui@@QAEXABVwxColour@@@Z  (00007770)
               5050 13B9   ?setControlErrorBackgroundColour@GUIServices@nmui@@QAEXABVwxColour@@@Z  (00007740)
               5051 13BA   ?setControlFocusColour@GUIServices@nmui@@QAEXABVwxColour@@@Z  (00007780)
               5052 13BB   ?setControlHeaderBackgroundColour@GUIServices@nmui@@QAEXABVwxColour@@@Z  (00007760)
               5053 13BC   ?setControlHeaderTextColour@GUIServices@nmui@@QAEXABVwxColour@@@Z  (00007750)
               5054 13BD   ?setControlNoCommonalityBackgroundColour@GUIServices@nmui@@QAEXABVwxColour@@@Z  (00007730)
               5055 13BE   ?setControlScrollbarColour@GUIServices@nmui@@QAEXABVwxColour@@@Z  (00007790)
               5056 13BF   ?setControlSelectedBackgroundColour@GUIServices@nmui@@QAEXABVwxColour@@@Z  (00007700)
               5057 13C0   ?setControlSelectedTextColour@GUIServices@nmui@@QAEXABVwxColour@@@Z  (000076F0)
               5058 13C1   ?setControlSelectedUnfocusedColour@GUIServices@nmui@@QAEXABVwxColour@@@Z  (00007710)
               5059 13C2   ?setControlSelectedUnfocusedTextColour@GUIServices@nmui@@QAEXABVwxColour@@@Z  (00007720)
               5060 13C3   ?setControlSplitterColour@GUIServices@nmui@@QAEXABVwxColour@@@Z  (000077A0)
               5061 13C4   ?setControlTextColour@GUIServices@nmui@@QAEXABVwxColour@@@Z  (000076D0)
               5062 13C5   ?setCornerRadius@NMSimpleTextCtrl@nmui@@QAEXN@Z  (0009E880)
               5063 13C6   ?setCppCommentColour@NMCppTextControl@nmui@@QAEXABVwxColour@@@Z  (000866F0)
               5064 13C7   ?setCppCommentLineColour@NMCppTextControl@nmui@@QAEXABVwxColour@@@Z  (00086710)
               5065 13C8   ?setCppReservedWordColour@NMCppTextControl@nmui@@QAEXABVwxColour@@@Z  (0004B550)
               5066 13C9   ?setCppStringColour@NMCppTextControl@nmui@@QAEXABVwxColour@@@Z  (0004B570)
               5067 13CA   ?setCurrentFrameMarker@NMSimpleGraph@nmui@@QAEXH@Z  (0008BC20)
               5068 13CB   ?setCurrentFrameMarkerReadOnly@NMSimpleGraph@nmui@@QAEX_N@Z  (0008BBF0)
               5069 13CC   ?setCurrentPoint@GuiController@nmui@@QAEXABVwxPoint@@@Z  (000074F0)
               5070 13CD   ?setCurrentPoint@StateManager@nmui@@QAEXABVwxPoint@@@Z  (00010D70)
               5071 13CE   ?setCurrentState@FiniteStateMachine@nmui@@QAE_NIPAX@Z  (000214E0)
               5072 13CF   ?setCurrentWindow@NMSwitchablePanel@nmui@@QAEXPAVwxWindow@@@Z  (000993D0)
               5073 13D0   ?setCursor@DragState@TreeControlStates@nmui@@IAEX_N@Z  (000BE2F0)
               5074 13D1   ?setCursor@NMPalette@nmui@@QAEXW4NMPaletteCursors@2@@Z  (00072C70)
               5075 13D2   ?setCustomDrawAttributes@Notebook@nmui@@QAEXPAVwxWindow@@_NVwxColour@@2@Z  (0006EBE0)
               5076 13D3   ?setData@GuiNode@nmui@@QAEXPAVGuiNodeData@2@@Z  (00022840)
               5077 13D4   ?setDataBufferSize@NMSimpleGraph@nmui@@QAEXH@Z  (0008DD60)
               5078 13D5   ?setDebugLogger@GuiNodeManager@nmui@@SAXPAVBasicLogger@NMutils@@@Z  (00022DE0)
               5079 13D6   ?setDefaultDirectory@DirectoryControl@nmui@@QAEXABVwxString@@@Z  (0000A030)
               5080 13D7   ?setDefaultDirectory@FilenameControl@nmui@@QAEXABVwxString@@_N@Z  (00014630)
               5081 13D8   ?setDefaultFontAndColours@GUIServices@nmui@@SAXPAVwxWindow@@_N@Z  (00030FF0)
               5082 13D9   ?setDefaultImages@NMPalette@nmui@@QAEXPAVwxImage@@000@Z  (00072C10)
               5083 13DA   ?setDefaultListCellStyle@NMListControl@nmui@@QAEXJ@Z  (00027BE0)
               5084 13DB   ?setDefaultRenderOrder@CellRenderer@nmui@@QAEXAAV?$vector@JV?$allocator@J@std@@@std@@@Z  (0003BA80)
               5085 13DC   ?setDefaultStandardColours@GUIServices@nmui@@IAEXXZ  (00028830)
               5086 13DD   ?setDefaultStyle@Button@nmui@@IAEXXZ  (00038990)
               5087 13DE   ?setDescription@NMPaletteItem@nmui@@QAEXVwxString@@@Z  (00073030)
               5088 13DF   ?setDescription@Notebook@nmui@@UAEXPAVwxWindow@@VwxString@@@Z  (0006EA60)
               5089 13E0   ?setDialogBackgroundColour@GUIServices@nmui@@QAEXABVwxColour@@@Z  (000077C0)
               5090 13E1   ?setDialogCustomColour@NMColourSwatch@nmui@@QAEXHABVwxColour@@@Z  (0003EF90)
               5091 13E2   ?setDialogEdgeColour@GUIServices@nmui@@QAEXABVwxColour@@@Z  (00007800)
               5092 13E3   ?setDialogFocusColour@GUIServices@nmui@@QAEXABVwxColour@@@Z  (000077F0)
               5093 13E4   ?setDialogSelectedBackgroundColour@GUIServices@nmui@@QAEXABVwxColour@@@Z  (000077E0)
               5094 13E5   ?setDialogSelectedTextColour@GUIServices@nmui@@QAEXABVwxColour@@@Z  (000077D0)
               5095 13E6   ?setDialogStyle@FilenameControl@nmui@@QAEXJ@Z  (000145C0)
               5096 13E7   ?setDialogTextColour@GUIServices@nmui@@QAEXABVwxColour@@@Z  (000077B0)
               5097 13E8   ?setDirectory@DirectoryControl@nmui@@QAEXABVwxString@@@Z  (00014620)
               5098 13E9   ?setDirectoryItem@NMSimpleMultiOptionDialog@nmui@@QAEXABVwxString@@0@Z  (000906F0)
               5099 13EA   ?setDisabledLabel@NMSimpleTextCtrl@nmui@@QAEXABVwxString@@@Z  (0009E8D0)
               5100 13EB   ?setDisclosedWindow@NMRollupHeading@nmui@@QAEXPAVwxWindow@@@Z  (00080C20)
               5101 13EC   ?setDnDHint@Notebook@nmui@@IAEXPAVwxWindow@@_N@Z  (0006C360)
               5102 13ED   ?setDominantWindow@NMSplitter@nmui@@QAEXW4SplitterWindow@2@@Z  (00027EB0)
               5103 13EE   ?setDragCopyCursor@TreeControl@nmui@@QAEXVwxCursor@@@Z  (0000CA50)
               5104 13EF   ?setDragOver@TreeControl@nmui@@QAE_NABVwxPoint@@@Z  (000B8D90)
               5105 13F0   ?setDragReparentCursor@TreeControl@nmui@@QAEXVwxCursor@@@Z  (0000CAE0)
               5106 13F1   ?setDragThresholdDistanceSq@TreeControl@nmui@@QAEXH@Z  (0000CBE0)
               5107 13F2   ?setDrawEdges@NMSplitter@nmui@@QAEX_N@Z  (00027EE0)
               5108 13F3   ?setDropDownSize@NMComboBox@nmui@@QAEXH@Z  (00046B20)
               5109 13F4   ?setDropTarget@NMPalette@nmui@@QAEXPAVNMPaletteDropTarget@2@@Z  (00072D80)
               5110 13F5   ?setEditable@NMSimpleTextCtrl@nmui@@QAEX_N@Z  (0009FAA0)
               5111 13F6   ?setEmptyOverlayLabel@TreeControl@nmui@@QAEXABVwxString@@@Z  (0000CC00)
               5112 13F7   ?setEmptyPage@NMRollupSection@nmui@@QAE_NXZ  (00082B70)
               5113 13F8   ?setEnabled@NMToolBar@nmui@@QAEXH_N@Z  (000A32C0)
               5114 13F9   ?setEnabled@NMToolPanel@nmui@@QAEXH_N@Z  (000A36E0)
               5115 13FA   ?setEntryType@NMComboBox@nmui@@QAE_NHW4EntryType@StringData@2@@Z  (0004A280)
               5116 13FB   ?setError@DirectoryControl@nmui@@UAEX_N@Z  (00014660)
               5117 13FC   ?setError@FileResourceManager@nmui@@AAE_NPAVItemInfo@2@_NPAV?$hashmap_dense_dynamic@I_N@nmtl@@@Z  (00019280)
               5118 13FD   ?setError@FileResourceManager@nmui@@QAE_NIABVwxString@@_N@Z  (0001F9C0)
               5119 13FE   ?setError@FileResourceManager@nmui@@QAE_NI_N@Z  (0001F8D0)
               5120 13FF   ?setError@FilenameControl@nmui@@UAEX_N@Z  (00014660)
               5121 1400   ?setError@NMComboBox@nmui@@UAEX_N@Z  (00046B80)
               5122 1401   ?setError@Window@nmui@@UAEX_N@Z  (000A4DB0)
               5123 1402   ?setErrorMsg@LuaSyntaxCheckEvent@nmui@@QAEXABVwxString@@@Z  (00028730)
               5124 1403   ?setExpanded@NMRollupHeading@nmui@@QAEX_N@Z  (000820B0)
               5125 1404   ?setFilename@FilenameControl@nmui@@QAEXABVwxString@@@Z  (00014620)
               5126 1405   ?setFilenameItem@NMSimpleMultiOptionDialog@nmui@@QAEXABVwxString@@0@Z  (00090730)
               5127 1406   ?setFilter@TreeControl@nmui@@QAEXPAVTreeItemPredicate@2@@Z  (000B27A0)
               5128 1407   ?setFilterPredicate@FilteredResourceObserver@nmui@@QAEXPAVFilteredResourcePredicate@2@@Z  (0001B010)
               5129 1408   ?setFirstVisiblePosition@NMSimpleTextCtrl@nmui@@QAEXH@Z  (0009E750)
               5130 1409   ?setFlag@NMListItem_@nmui@@IAEXF_N@Z  (00059D50)
               5131 140A   ?setFlags@NMColumnWindowEvent@nmui@@QAEXH@Z  (00028360)
               5132 140B   ?setFlags@TreeEvent@nmui@@QAEXH@Z  (00028380)
               5133 140C   ?setFocusColumn@NMListControl@nmui@@QAEXH@Z  (0005A250)
               5134 140D   ?setFocusItem@NMListControl@nmui@@QAEXPAVNMListItem_@2@@Z  (0005A230)
               5135 140E   ?setFont@NMStaticBox@nmui@@IAEXAAVwxPaintDC@@@Z  (00097D60)
               5136 140F   ?setFont@NMStaticBox@nmui@@IAEXXZ  (00097D20)
               5137 1410   ?setFont@TextControl@nmui@@UAEXABVwxString@@@Z  (000ACC60)
               5138 1411   ?setFontSize@TextControl@nmui@@UAEXH@Z  (000ACC70)
               5139 1412   ?setForegroundColour@TextControl@nmui@@MAEXHABVwxColour@@@Z  (000ACBB0)
               5140 1413   ?setFrameRate@NMFrameRateControl@nmui@@QAEXN@Z  (000546F0)
               5141 1414   ?setFrameRateFormat@NMFrameRateControl@nmui@@QAEXABVwxString@@@Z  (000547B0)
               5142 1415   ?setGhostValue@Slider@nmui@@QAEXN@Z  (00091960)
               5143 1416   ?setHSL@GUIServices@nmui@@QAEXAAVwxColour@@MMM@Z  (0002D880)
               5144 1417   ?setHeaderBar@Notebook@nmui@@QAEXPAVwxWindow@@@Z  (0006B400)
               5145 1418   ?setHighlightIndex@NMComboBoxListCtrl@nmui@@QAEXH@Z  (00046010)
               5146 1419   ?setHotKey@Menu@nmui@@QAEXHABVwxString@@@Z  (000670F0)
               5147 141A   ?setHotKey@MenuItem@nmui@@QAEXABVwxString@@@Z  (00066050)
               5148 141B   ?setHoverState@GuiNodeStateMachine@nmui@@QAEXPAVGuiNodeHoverState@2@@Z  (00022840)
               5149 141C   ?setID@MenuItem@nmui@@QAEXH@Z  (00016560)
               5150 141D   ?setIgnoreAllText@TaskListDialog@nmui@@QAEXPB_W0@Z  (00099F00)
               5151 141E   ?setImage@Button@nmui@@QAEXABVwxImage@@@Z  (00039040)
               5152 141F   ?setImage@NMComboBox@nmui@@QAE_NHH@Z  (0004A120)
               5153 1420   ?setImage@NMPaletteItem@nmui@@QAEXABVwxImage@@W4ImageSize@12@@Z  (00072FA0)
               5154 1421   ?setImage@NMStaticBitmap@nmui@@QAEXABVwxImage@@@Z  (00097420)
               5155 1422   ?setImageList@NMComboBox@nmui@@QAEXPAVwxImageList@@@Z  (00046B50)
               5156 1423   ?setIncrement@NMFloatSpinner@nmui@@QAEXM@Z  (00053C50)
               5157 1424   ?setIndent@NMComboBox@nmui@@QAE_NHH@Z  (0004A1D0)
               5158 1425   ?setIndex@NMListItem_@nmui@@QAEXH@Z  (00009720)
               5159 1426   ?setInitialPoint@GuiController@nmui@@QAEXABVwxPoint@@@Z  (000074C0)
               5160 1427   ?setInitialPoint@StateManager@nmui@@QAEXABVwxPoint@@@Z  (00010D40)
               5161 1428   ?setInsertionPoint@Menu@nmui@@QAEXH@Z  (00022790)
               5162 1429   ?setInsertionPoint@NMSimpleTextCtrl@nmui@@QAEXH@Z  (0009E6F0)
               5163 142A   ?setInsertionPointFirst@NMSimpleTextCtrl@nmui@@QAEXXZ  (0009F850)
               5164 142B   ?setInsertionPointLast@NMSimpleTextCtrl@nmui@@QAEXXZ  (0009F8B0)
               5165 142C   ?setIntUserData@NMListItem_@nmui@@QAEXH@Z  (00027CD0)
               5166 142D   ?setIsBold@NMColumnItemAttr@nmui@@QAEX_N@Z  (000815B0)
               5167 142E   ?setIsCollapsd@NMSplitterEvent@nmui@@QAEX_N@Z  (00072FD0)
               5168 142F   ?setIsEditable@NMColourSwatch@nmui@@QAEX_N@Z  (0003E970)
               5169 1430   ?setIsEditable@NMComboBox@nmui@@QAEX_N@Z  (000483C0)
               5170 1431   ?setIsIndeterminate@DirectoryControl@nmui@@UAEX_N@Z  (0000A040)
               5171 1432   ?setIsIndeterminate@FilenameControl@nmui@@UAEX_N@Z  (0000A040)
               5172 1433   ?setIsIndeterminate@NMComboBox@nmui@@UAEX_N@Z  (000483E0)
               5173 1434   ?setIsIndeterminate@Window@nmui@@UAEX_N@Z  (000A4D80)
               5174 1435   ?setIsSorted@NMComboBox@nmui@@QAEX_N@Z  (0004B380)
               5175 1436   ?setItalic@TreeItem@nmui@@QAEX_N@Z  (000B15D0)
               5176 1437   ?setItem@NMIconBarEvent@nmui@@QAEXPAVNMIconBarItem_@2@@Z  (00083230)
               5177 1438   ?setItem@NMListEvent@nmui@@QAEXPAVNMListItem_@2@@Z  (00072790)
               5178 1439   ?setItemAttributes@NMListControl@nmui@@QAEXPAVNMListItem_@2@PAVNMColumnItemAttr@2@@Z  (0005A140)
               5179 143A   ?setItemCheckState@NMListControl@nmui@@QAEXPAVNMListItem_@2@HW4CheckState@NMColumnItemAttr@2@_N@Z  (0005E0E0)
               5180 143B   ?setItemCheckState@TreeControl@nmui@@QAEXPAVTreeItem@2@HW4CheckState@NMColumnItemAttr@2@@Z  (000B9710)
               5181 143C   ?setItemCheckStateByIndex@NMListControl@nmui@@QAEXHHW4CheckState@NMColumnItemAttr@2@_N@Z  (0005E2A0)
               5182 143D   ?setItemChecked@NMListControl@nmui@@QAEXPAVNMListItem_@2@H_N1@Z  (0005E2F0)
               5183 143E   ?setItemChecked@TreeControl@nmui@@QAEXPAVTreeItem@2@H_N@Z  (000B9860)
               5184 143F   ?setItemCheckedByIndex@NMListControl@nmui@@QAEXHH_N0@Z  (0005E310)
               5185 1440   ?setItemID@Menu@nmui@@QAEXPAVMenuItem@2@H@Z  (00066390)
               5186 1441   ?setItemIcon@NMIconBar@nmui@@QAEXPAVNMIconBarItem_@2@ABVwxBitmap@@@Z  (00055360)
               5187 1442   ?setItemImage@NMListControl@nmui@@QAEXPAVNMListItem_@2@HH@Z  (00060AA0)
               5188 1443   ?setItemImageByIndex@NMListControl@nmui@@QAEXHHH@Z  (00060AD0)
               5189 1444   ?setItemIndent@TreeControl@nmui@@QAEXH@Z  (000B1140)
               5190 1445   ?setItemIntUserData@NMListControl@nmui@@QAEXPAVNMListItem_@2@H@Z  (00055380)
               5191 1446   ?setItemLabel@NMIconBar@nmui@@QAEXPAVNMIconBarItem_@2@ABVwxString@@@Z  (000552F0)
               5192 1447   ?setItemReadOnly@NMListControl@nmui@@QAEXPAVNMListItem_@2@_N@Z  (0005B5B0)
               5193 1448   ?setItemRightAligned@NMListControl@nmui@@QAEXPAVNMListItem_@2@H_N@Z  (0005B1F0)
               5194 1449   ?setItemText@NMListControl@nmui@@QAEXPAVNMListItem_@2@ABVwxString@@@Z  (00060A60)
               5195 144A   ?setItemText@NMListControl@nmui@@QAEXPAVNMListItem_@2@HABVwxString@@@Z  (000609C0)
               5196 144B   ?setItemTextByIndex@NMListControl@nmui@@QAEXHHABVwxString@@@Z  (00060A00)
               5197 144C   ?setItemTypeImages@NMPalette@nmui@@QAEXIPAVwxImage@@000@Z  (00074690)
               5198 144D   ?setItemUserData@NMIconBar@nmui@@QAEXPAVNMIconBarItem_@2@PAX@Z  (00055380)
               5199 144E   ?setItemVoidPtrUserData@NMListControl@nmui@@QAEXPAVNMListItem_@2@PAX@Z  (0005A360)
               5200 144F   ?setItemVoidPtrUserDataByIndex@NMListControl@nmui@@QAEXHPAX@Z  (0005E7F0)
               5201 1450   ?setItems@NMIncrementalChoiceDialog@nmui@@QAEXABV?$Vector@VwxString@@@NMutils@@@Z  (000585F0)
               5202 1451   ?setK@NMSimpleGraphAxes@nmui@@QAEXM@Z  (0008BB20)
               5203 1452   ?setKeyEvent@NMListEvent@nmui@@QAEXABVwxKeyEvent@@@Z  (0005A770)
               5204 1453   ?setLabel@Button@nmui@@QAEXABVwxString@@@Z  (0003A720)
               5205 1454   ?setLabel@Button@nmui@@QAEXPB_W@Z  (0003A780)
               5206 1455   ?setLabel@CheckBox@nmui@@UAEXABVwxString@@@Z  (0003BF10)
               5207 1456   ?setLabel@NMPaletteItem@nmui@@QAEXVwxString@@@Z  (00072EB0)
               5208 1457   ?setLabel@NMSimpleTextCtrl@nmui@@QAEXABVwxString@@@Z  (0009E8A0)
               5209 1458   ?setLabel@NMStaticBox@nmui@@QAEXABVwxString@@@Z  (00098070)
               5210 1459   ?setLabelAlignment@Button@nmui@@QAEXW4wxAlignment@@@Z  (0003A3A0)
               5211 145A   ?setLabelTextExtents@NMPalette@nmui@@AAEXPAVNMPaletteItem@2@@Z  (00073460)
               5212 145B   ?setLargeFont@GUIServices@nmui@@QAEXPAVwxFont@@@Z  (00030440)
               5213 145C   ?setLargeFontBold@GUIServices@nmui@@QAEXPAVwxFont@@@Z  (00030490)
               5214 145D   ?setLastSelected@NMPalette@nmui@@QAEXPAVNMPaletteItem@2@@Z  (00072D50)
               5215 145E   ?setLayout@NMPalette@nmui@@QAEXW4NMPaletteLayout@2@@Z  (00072D00)
               5216 145F   ?setLeftColumnHeaderPadding@NMColumnWindow@nmui@@UAEXIH@Z  (00044580)
               5217 1460   ?setLeftPanelBarWidth@NMScrollWindow@nmui@@QAEXH@Z  (0008A310)
               5218 1461   ?setLeftRightBorderSize@NMRollupSection@nmui@@QAEXH@Z  (00082CB0)
               5219 1462   ?setLegendEnabled@NMColourLegend@nmui@@QAEXI_N@Z  (0003DF50)
               5220 1463   ?setLinearTicks@Slider@nmui@@QAEXXZ  (00091430)
               5221 1464   ?setListBoldFont@NMListControl@nmui@@QAEXABVwxFont@@@Z  (0005A0F0)
               5222 1465   ?setListControl@NMListItemCompareStrategy@nmui@@QAEXPBVNMListControl@2@@Z  (00016560)
               5223 1466   ?setListControl@NMListItemPredicate@nmui@@QAEXPAVNMListControl@2@@Z  (00016560)
               5224 1467   ?setListFont@NMListControl@nmui@@QAEXABVwxFont@@@Z  (0005A010)
               5225 1468   ?setLuaCommentColour@NMScriptControl@nmui@@QAEXABVwxColour@@@Z  (000866F0)
               5226 1469   ?setLuaCommentLineColour@NMScriptControl@nmui@@QAEXABVwxColour@@@Z  (00086710)
               5227 146A   ?setLuaDefaultColour@NMScriptControl@nmui@@QAEXABVwxColour@@@Z  (000866B0)
               5228 146B   ?setLuaLiteralStringColour@NMScriptControl@nmui@@QAEXABVwxColour@@@Z  (00086730)
               5229 146C   ?setLuaNumberColour@NMScriptControl@nmui@@QAEXABVwxColour@@@Z  (00086780)
               5230 146D   ?setLuaOperatorColour@NMScriptControl@nmui@@QAEXABVwxColour@@@Z  (00086820)
               5231 146E   ?setLuaReservedWordColour@NMScriptControl@nmui@@QAEXABVwxColour@@@Z  (0004B550)
               5232 146F   ?setLuaStringColour@NMScriptControl@nmui@@QAEXABVwxColour@@@Z  (00086750)
               5233 1470   ?setManager@FilteredResourceObserver@nmui@@IAEXPAVFileResourceManager@2@@Z  (00016560)
               5234 1471   ?setMargin@NMSimpleTextCtrl@nmui@@QAEXVwxSize@@@Z  (0009E900)
               5235 1472   ?setMarginBackgroundColour@TextControl@nmui@@UAEXABVwxColour@@@Z  (000ACB70)
               5236 1473   ?setMarginTextColour@TextControl@nmui@@UAEXABVwxColour@@@Z  (000ACB50)
               5237 1474   ?setMarkColumnSelected@MenuItem@nmui@@QAEX_N@Z  (000660A0)
               5238 1475   ?setMaxK@NMSimpleGraph@nmui@@QAEXM@Z  (0008C1A0)
               5239 1476   ?setMaxValue@NMProgressBar@nmui@@QAEXI@Z  (0007E240)
               5240 1477   ?setMaximum@NMFloatSpinner@nmui@@QAEX_NM@Z  (00053D20)
               5241 1478   ?setMaximum@NMIntSpinner@nmui@@QAEX_NH@Z  (00059400)
               5242 1479   ?setMaximum@NMProgressDialog@nmui@@QAEXH@Z  (0007E9C0)
               5243 147A   ?setMenu@FileHistory@nmui@@UAEXPAVMenu@2@@Z  (00050670)
               5244 147B   ?setMenu@NMFilterCtrl@nmui@@QAEXPAVMenu@2@@Z  (00052300)
               5245 147C   ?setMinimum@NMFloatSpinner@nmui@@QAEX_NM@Z  (00053D00)
               5246 147D   ?setMinimum@NMIntSpinner@nmui@@QAEX_NH@Z  (000593E0)
               5247 147E   ?setMinimumStepSize@Slider@nmui@@QAEXN@Z  (00091380)
               5248 147F   ?setModal@MenuItem@nmui@@QAEX_N@Z  (000662B0)
               5249 1480   ?setModified@NMSimpleTextCtrl@nmui@@IAEXXZ  (00009870)
               5250 1481   ?setMouseOverImageCursor@TreeControl@nmui@@QAEXVwxCursor@@@Z  (0000CB70)
               5251 1482   ?setNMStyle@Window@nmui@@QAEXABVNMStyle@2@@Z  (000A58F0)
               5252 1483   ?setNMStyleFlag@Window@nmui@@QAEXI@Z  (000A5930)
               5253 1484   ?setName@FiniteStateMachine@nmui@@QAEXABVwxString@@@Z  (000074A0)
               5254 1485   ?setNext@NMListItem_@nmui@@QAEXPAV12@@Z  (00027D10)
               5255 1486   ?setNoScroll@TextControl@nmui@@QAEX_N@Z  (000ADA90)
               5256 1487   ?setNode@GuiNodeEvent@nmui@@QAEXPAVGuiNode@2@@Z  (000663B0)
               5257 1488   ?setNotebookGroupID@Notebook@nmui@@UAEXABVwxString@@@Z  (0006B6B0)
               5258 1489   ?setNumDropDownItems@NMComboBoxListCtrl@nmui@@QAEXH@Z  (00009E80)
               5259 148A   ?setNumSamples@NMSimpleGraphAxes@nmui@@QAEXH@Z  (00022790)
               5260 148B   ?setNumTicks@Slider@nmui@@QAEXH@Z  (000913A0)
               5261 148C   ?setNumberOfColumns@TreeItem@nmui@@QAEXXZ  (000BCB60)
               5262 148D   ?setOrigin@GuiNode@nmui@@QAEXABVNMPoint2D@NMutils@@@Z  (00022520)
               5263 148E   ?setOrigin@GuiNodeData@nmui@@UAEXABVNMPoint2D@NMutils@@@Z  (00037DF0)
               5264 148F   ?setOvertypeMode@NMSimpleTextCtrl@nmui@@QAEX_N@Z  (0009E7F0)
               5265 1490   ?setOwnerWindow@GuiNodeManager@nmui@@QAEXPAVwxWindow@@@Z  (00016560)
               5266 1491   ?setPage@NMRollupSection@nmui@@QAE_NPAVwxWindow@@_N@Z  (00083360)
               5267 1492   ?setPanExtentsX@GuiNodeTransform@nmui@@QAEXMM@Z  (00022BD0)
               5268 1493   ?setPanExtentsY@GuiNodeTransform@nmui@@QAEXMM@Z  (00022C10)
               5269 1494   ?setPanType@GuiNodeWindowBase@nmui@@QAEXW4PanType@12@@Z  (000C1710)
               5270 1495   ?setPanX@GuiNodeTransform@nmui@@QAEXM@Z  (00022B30)
               5271 1496   ?setPanX@WindowPannedEvent@nmui@@QAEXM@Z  (000255C0)
               5272 1497   ?setPanY@GuiNodeTransform@nmui@@QAEXM@Z  (00022B60)
               5273 1498   ?setPanY@WindowPannedEvent@nmui@@QAEXM@Z  (000255D0)
               5274 1499   ?setPixelOffset@GuiNodeTransform@nmui@@QAEXABVwxPoint@@@Z  (00022C70)
               5275 149A   ?setPlotRegion@NMSimpleGraphAxes@nmui@@QAEXVwxRect@@@Z  (0008BAD0)
               5276 149B   ?setPlotTitle@NMSimpleGraph@nmui@@QAEXVwxString@@@Z  (0008BB70)
               5277 149C   ?setPoint@NMColumnWindowEvent@nmui@@QAEXABVwxPoint@@@Z  (00042990)
               5278 149D   ?setPoint@NMIconBarEvent@nmui@@QAEXABVwxPoint@@@Z  (00055730)
               5279 149E   ?setPoint@NMSimpleGraphEvent@nmui@@QAEXABVwxPoint@@@Z  (0008D010)
               5280 149F   ?setPreProcessor@NMScriptControl@nmui@@QAEXPAVLuaProcessor@2@@Z  (000286D0)
               5281 14A0   ?setPrevious@NMListItem_@nmui@@QAEXPAV12@@Z  (0003C980)
               5282 14A1   ?setPrompt@DirectoryControl@nmui@@QAEXABVwxString@@@Z  (00014610)
               5283 14A2   ?setPrompt@FilenameControl@nmui@@QAEXABVwxString@@@Z  (00014610)
               5284 14A3   ?setPublicScriptName@Window@nmui@@QAEXABVwxString@@@Z  (000A4FB0)
               5285 14A4   ?setPythonCharacterColour@NMScriptControl@nmui@@QAEXABVwxColour@@@Z  (00086780)
               5286 14A5   ?setPythonClassNameColour@NMScriptControl@nmui@@QAEXABVwxColour@@@Z  (00086730)
               5287 14A6   ?setPythonCommentBlockColour@NMScriptControl@nmui@@QAEXABVwxColour@@@Z  (00086860)
               5288 14A7   ?setPythonCommentLineColour@NMScriptControl@nmui@@QAEXABVwxColour@@@Z  (000866F0)
               5289 14A8   ?setPythonDefaultColour@NMScriptControl@nmui@@QAEXABVwxColour@@@Z  (000867A0)
               5290 14A9   ?setPythonDefinitionNameColour@NMScriptControl@nmui@@QAEXABVwxColour@@@Z  (00086800)
               5291 14AA   ?setPythonIdentifierColour@NMScriptControl@nmui@@QAEXABVwxColour@@@Z  (00086840)
               5292 14AB   ?setPythonNumberColour@NMScriptControl@nmui@@QAEXABVwxColour@@@Z  (00086710)
               5293 14AC   ?setPythonOperatorColour@NMScriptControl@nmui@@QAEXABVwxColour@@@Z  (00086820)
               5294 14AD   ?setPythonStringColour@NMScriptControl@nmui@@QAEXABVwxColour@@@Z  (000867C0)
               5295 14AE   ?setPythonStringEOLColour@NMScriptControl@nmui@@QAEXABVwxColour@@@Z  (00086880)
               5296 14AF   ?setPythonTripleColour@NMScriptControl@nmui@@QAEXABVwxColour@@@Z  (0004B570)
               5297 14B0   ?setPythonTripleDoubleColour@NMScriptControl@nmui@@QAEXABVwxColour@@@Z  (000867E0)
               5298 14B1   ?setPythonWordColour@NMScriptControl@nmui@@QAEXABVwxColour@@@Z  (0004B550)
               5299 14B2   ?setRaidoGroup@NMListItem_@nmui@@QAEXH@Z  (00072FE0)
               5300 14B3   ?setRange@NMExpFloatSlider@nmui@@UAEXMM@Z  (0004F190)
               5301 14B4   ?setRange@NMFloatSlider@nmui@@UAEXMM@Z  (00052EF0)
               5302 14B5   ?setRange@NMIntSlider@nmui@@QAEXHH@Z  (000587B0)
               5303 14B6   ?setRange@NMUIntSlider@nmui@@QAEXII@Z  (000A3FC0)
               5304 14B7   ?setRange@Slider@nmui@@QAEXNN@Z  (000910F0)
               5305 14B8   ?setRangeY@NMSimpleGraphAxes@nmui@@QAEXMM@Z  (0008CA50)
               5306 14B9   ?setRangeY@NMSimpleGraphAxes@nmui@@QAEXMMM@Z  (0008CA20)
               5307 14BA   ?setReadOnly@NMListItem_@nmui@@QAEX_N@Z  (00027C90)
               5308 14BB   ?setReadOnly@NMSimpleTextCtrl@nmui@@QAEX_N@Z  (0009D460)
               5309 14BC   ?setReadPoint@NMSimpleGraph@nmui@@QAEXH@Z  (0008C100)
               5310 14BD   ?setRenderOrder@CellRenderer@nmui@@QAEXAAV?$vector@JV?$allocator@J@std@@@std@@J@Z  (0003BB40)
               5311 14BE   ?setRenderShortcutHints@MenuBar@nmui@@QAEX_N@Z  (00068F70)
               5312 14BF   ?setRenderShortcutHints@PopupMenu@nmui@@QAEX_N@Z  (00079540)
               5313 14C0   ?setRenderer@NMListControl@nmui@@QAEXPAVCellRenderer@2@@Z  (0005A4C0)
               5314 14C1   ?setReorderInfo@NMRollupSectionEvent@nmui@@QAEXAAV?$vector@PAVNMRollupSection@nmui@@V?$allocator@PAVNMRollupSection@nmui@@@std@@@std@@0@Z  (00085980)
               5315 14C2   ?setReplacementString@NMMacroReplacement@nmui@@QAEXABVwxString@@@Z  (00065820)
               5316 14C3   ?setResizeCursor@NMSplitter@nmui@@IAEXXZ  (00093BC0)
               5317 14C4   ?setResult@LuaSyntaxCheckEvent@nmui@@QAEXH@Z  (00028720)
               5318 14C5   ?setRightAligned@NMListItem_@nmui@@QAEXH_N@Z  (0002E430)
               5319 14C6   ?setRightAlignedBitmap@Menu@nmui@@QAEXHPAVwxBitmap@@@Z  (000672D0)
               5320 14C7   ?setRightAlignedBitmap@MenuItem@nmui@@QAEXPAVwxBitmap@@@Z  (000661E0)
               5321 14C8   ?setRightColumnHeaderPadding@NMColumnWindow@nmui@@UAEXIH@Z  (000444F0)
               5322 14C9   ?setRoot@GuiNodeManager@nmui@@QAEXPAVGuiNode@2@@Z  (000247C0)
               5323 14CA   ?setRowIndex@TreeControl@nmui@@QAEXH@Z  (00059FF0)
               5324 14CB   ?setRowStyle@NMListControl@nmui@@QAEXHJ@Z  (0005E820)
               5325 14CC   ?setRowStyle@NMListControl@nmui@@QAEXPAVNMListItem_@2@J@Z  (0005A3E0)
               5326 14CD   ?setRowStyle@NMListItem_@nmui@@QAEXJ@Z  (00059D40)
               5327 14CE   ?setSashMode@NMSplitter@nmui@@QAEXW4SashMode@2@@Z  (00096040)
               5328 14CF   ?setSashValue@NMSplitter@nmui@@QAEXM_N@Z  (000960D0)
               5329 14D0   ?setSashValue@NMSplitterEvent@nmui@@QAEXM@Z  (00094090)
               5330 14D1   ?setScale@GuiNode@nmui@@QAEXABVNMPoint2D@NMutils@@@Z  (000225D0)
               5331 14D2   ?setScale@GuiNodeData@nmui@@UAEXABVNMPoint2D@NMutils@@@Z  (00037DF0)
               5332 14D3   ?setScaleExtentsX@GuiNodeTransform@nmui@@QAEXMM@Z  (00022AB0)
               5333 14D4   ?setScaleExtentsY@GuiNodeTransform@nmui@@QAEXMM@Z  (00022AE0)
               5334 14D5   ?setScaleType@GuiNodeWindowBase@nmui@@QAEXW4ScaleType@12@@Z  (00022790)
               5335 14D6   ?setScaleX@GuiNodeTransform@nmui@@QAEXM@Z  (00022A10)
               5336 14D7   ?setScaleX@WindowScaledEvent@nmui@@QAEXM@Z  (00025610)
               5337 14D8   ?setScaleY@GuiNodeTransform@nmui@@QAEXM@Z  (00022A40)
               5338 14D9   ?setScaleY@WindowScaledEvent@nmui@@QAEXM@Z  (00025620)
               5339 14DA   ?setScrollPosition@NMScrollBar@nmui@@QAEXH_N@Z  (00087E80)
               5340 14DB   ?setScrollRange@NMScrollBar@nmui@@QAEXHH_N@Z  (000880E0)
               5341 14DC   ?setScrollRate@NMScrollBar@nmui@@QAEXH@Z  (000876F0)
               5342 14DD   ?setScrollSize@NMScrollPanel@nmui@@QAEXABVwxSize@@@Z  (000899D0)
               5343 14DE   ?setScrollStepClamp@NMScrollBar@nmui@@QAEXH@Z  (00087720)
               5344 14DF   ?setScrollStepClamp@NMScrollWindow@nmui@@QAEXHH@Z  (0008A380)
               5345 14E0   ?setScrollX@NMScrollPanel@nmui@@QAEXH_N@Z  (00089AD0)
               5346 14E1   ?setScrollY@NMScrollPanel@nmui@@QAEXH_N@Z  (00089B50)
               5347 14E2   ?setScrollablePanelSize@NMScrollWindow@nmui@@QAEXABVwxSize@@@Z  (0008B3D0)
               5348 14E3   ?setSecondMouseClickExcludeRegion@PopupPanel@nmui@@UAEXVwxRect@@@Z  (0007C480)
               5349 14E4   ?setSection@NMRollupSectionEvent@nmui@@QAEXPAVNMRollupSection@2@@Z  (00083230)
               5350 14E5   ?setSectionOrder@NMRollupContainer@nmui@@UAE_NAAV?$vector@PAVNMRollupSection@nmui@@V?$allocator@PAVNMRollupSection@nmui@@@std@@@std@@@Z  (00085D00)
               5351 14E6   ?setSelected@SelectionBorder@nmui@@QAEX_N@Z  (00009670)
               5352 14E7   ?setSelectedBackgroundColour@TextControl@nmui@@UAEXABVwxColour@@@Z  (000ACB30)
               5353 14E8   ?setSelectedBitmap@Button@nmui@@QAEXABVwxBitmap@@@Z  (00039010)
               5354 14E9   ?setSelectedTextColour@TextControl@nmui@@UAEXABVwxColour@@@Z  (000ACB10)
               5355 14EA   ?setSelection@NMListControl@nmui@@QAEXABV?$Vector@PAVNMListItem_@nmui@@@NMutils@@@Z  (00060F30)
               5356 14EB   ?setSelectionColumn@NMColumnWindow@nmui@@QAEXH@Z  (0000C660)
               5357 14EC   ?setSelectionDelimiterString@NMSimpleTextCtrl@nmui@@QAEXABVwxString@@@Z  (000ACC60)
               5358 14ED   ?setSelectionDirty@TreeControl@nmui@@IAEXXZ  (000B0EC0)
               5359 14EE   ?setSelectionEnd@NMSimpleTextCtrl@nmui@@QAEXH@Z  (0009FB20)
               5360 14EF   ?setSelectionIndex@NMComboBox@nmui@@QAE_NH@Z  (0004A3D0)
               5361 14F0   ?setSelectionIndexFromString@NMComboBox@nmui@@IAEXXZ  (00049130)
               5362 14F1   ?setSelectionStart@NMSimpleTextCtrl@nmui@@QAEXH@Z  (0009FAF0)
               5363 14F2   ?setSelectionString@NMComboBox@nmui@@QAEHABVwxString@@@Z  (0004A380)
               5364 14F3   ?setSelectionStringFromIndex@NMComboBox@nmui@@IAEXXZ  (00047200)
               5365 14F4   ?setSingleWindow@NMSplitter@nmui@@QAEXPAVwxWindow@@@Z  (00094210)
               5366 14F5   ?setSmallFont@GUIServices@nmui@@QAEXPAVwxFont@@@Z  (000304E0)
               5367 14F6   ?setSmallFontBold@GUIServices@nmui@@QAEXPAVwxFont@@@Z  (00030530)
               5368 14F7   ?setSnapDistance@NMSplitter@nmui@@QAEXH@Z  (00093C30)
               5369 14F8   ?setSplashStatusLabel@NMSplash@nmui@@QAEXABVwxString@@@Z  (00093230)
               5370 14F9   ?setSplitMode@NMSplitter@nmui@@QAEXH_N@Z  (00096100)
               5371 14FA   ?setSplitMode@NMSplitterEvent@nmui@@QAEXH@Z  (0003C9C0)
               5372 14FB   ?setStandardFont@GUIServices@nmui@@QAEXPAVwxFont@@@Z  (00030300)
               5373 14FC   ?setStandardFontBold@GUIServices@nmui@@QAEXPAVwxFont@@@Z  (00030350)
               5374 14FD   ?setStandardFontFixedWidth@GUIServices@nmui@@QAEXPAVwxFont@@@Z  (000303A0)
               5375 14FE   ?setStandardFontFixedWidthBold@GUIServices@nmui@@QAEXPAVwxFont@@@Z  (000303F0)
               5376 14FF   ?setState@CheckBox@nmui@@UAEXW4State@12@@Z  (0003BEA0)
               5377 1500   ?setState@CheckBox@nmui@@UAEX_N@Z  (0003BEE0)
               5378 1501   ?setState@CheckBoxEvent@nmui@@QAEXW4State@CheckBox@2@@Z  (00083230)
               5379 1502   ?setState@NMPaletteItem@nmui@@QAEXI@Z  (00072FE0)
               5380 1503   ?setStateMachine@GuiNode@nmui@@QAEXPBVGuiNodeStateMachine@2@@Z  (00022790)
               5381 1504   ?setStaticTextFont@Button@nmui@@QAEXW4StaticTextFont@2@@Z  (00009E80)
               5382 1505   ?setStaticTextFont@NMStaticText@nmui@@QAEXW4StaticTextFont@2@@Z  (00098620)
               5383 1506   ?setString@NMComboBox@nmui@@QAE_NHABVwxString@@@Z  (0004A050)
               5384 1507   ?setStyleFlags@TreeItem@nmui@@QAEXH@Z  (000B1E10)
               5385 1508   ?setSwatchColour@NMColumnItemAttr@nmui@@QAEXABVwxColour@@@Z  (0000C590)
               5386 1509   ?setSyntaxHighlighting@NMScriptControl@nmui@@QAEXH@Z  (00087280)
               5387 150A   ?setTabSize@NMListControl@nmui@@QAEXH@Z  (00059FF0)
               5388 150B   ?setTabWindow@NotebookEvent@nmui@@QAEXPAVwxWindow@@@Z  (0003C9C0)
               5389 150C   ?setText@Menu@nmui@@QAEXHABVwxString@@@Z  (00067070)
               5390 150D   ?setText@MenuItem@nmui@@QAEXABVwxString@@@Z  (00066040)
               5391 150E   ?setText@NMSimpleTextCtrl@nmui@@QAEXABVwxString@@@Z  (000A1110)
               5392 150F   ?setText@NMSimpleTextCtrl@nmui@@QAEXABVwxString@@H@Z  (000A1140)
               5393 1510   ?setText@NMSimpleTextCtrl@nmui@@QAEXPB_W@Z  (000A10E0)
               5394 1511   ?setTextAlignment@NMProgressBar@nmui@@QAEXW4wxAlignment@@@Z  (0007E0F0)
               5395 1512   ?setTextBackgroundColour@NMColumnItemAttr@nmui@@QAEXABVwxColour@@@Z  (0000C450)
               5396 1513   ?setTextColour@NMColumnItemAttr@nmui@@QAEXABVwxColour@@@Z  (0000C3B0)
               5397 1514   ?setTextColour@NMCppTextControl@nmui@@UAEXABVwxColour@@@Z  (00086840)
               5398 1515   ?setTextColour@NMScriptControl@nmui@@UAEXABVwxColour@@@Z  (00086640)
